# Linker from Snapdragon LLVM ARM Compiler Version 4.0.3
# Linker based on LLVM version: 4.0
# Notable linker command/script options:
# CPU Architecture Version: 
# Target triple environment for the link: gnueabi
# Maximum GP size: 8
# Link type: Static
# ABI Page Size: 0x4
# CommandLine : D:\4.0.3\bin\ld.qcld.exe -X --eh-frame-hdr -m armelf_linux_eabi -dynamic-linker /lib/ld-musl-arm.so.1 -o target\gizwits_app.elf -lc++ -mno-unaligned-access -entry=0x43000000 D:\Smart-heart-rate-dector\Smart-heart-rate-dector\objs\txm_module_preamble_llvm.o -Tsdk\ld\quectel_dam_demo.ld -Map -Wl -gc-sections D:\Smart-heart-rate-dector\Smart-heart-rate-dector\objs\adc.o D:\Smart-heart-rate-dector\Smart-heart-rate-dector\objs\common.o D:\Smart-heart-rate-dector\Smart-heart-rate-dector\objs\dataPointTools.o D:\Smart-heart-rate-dector\Smart-heart-rate-dector\objs\gizwits_product.o D:\Smart-heart-rate-dector\Smart-heart-rate-dector\objs\gizwits_protocol.o D:\Smart-heart-rate-dector\Smart-heart-rate-dector\objs\gpio.o D:\Smart-heart-rate-dector\Smart-heart-rate-dector\objs\main.o D:\Smart-heart-rate-dector\Smart-heart-rate-dector\objs\plusensor.o D:\Smart-heart-rate-dector\Smart-heart-rate-dector\objs\quectel_utils.o D:\Smart-heart-rate-dector\Smart-heart-rate-dector\objs\ringbuffer.o D:\Smart-heart-rate-dector\Smart-heart-rate-dector\objs\txm_module_preamble_llvm.o D:\Smart-heart-rate-dector\Smart-heart-rate-dector\gagent\libgagent.a sdk\libs\diag_dam_lib.lib sdk\libs\qapi_psm_lib.lib sdk\libs\timer_dam_lib.lib sdk\libs\txm_lib.lib -LD:\4.0.3\armv7m-none-eabi\libc\lib -LD:\4.0.3\armv7m-none-eabi\lib --start-group -lunwind -lc++ -lc++abi --end-group -LD:\4.0.3\lib\clang\4.0.3\lib\baremetal --start-group -lc -lclang_rt.builtins-armv7m --end-group -lm -lc 
Archive member included because of file (symbol)
D:\Smart-heart-rate-dector\Smart-heart-rate-dector\gagent\libgagent.a(gagentThread.o)
		D:\Smart-heart-rate-dector\Smart-heart-rate-dector\objs\txm_module_preamble_llvm.o (sensor_dam_app_start)
D:\Smart-heart-rate-dector\Smart-heart-rate-dector\gagent\libgagent.a(iofdev.o)
		D:\Smart-heart-rate-dector\Smart-heart-rate-dector\gagent\libgagent.a(gagentThread.o) (dev_free_heap_size)
D:\Smart-heart-rate-dector\Smart-heart-rate-dector\gagent\libgagent.a(iofipc.o)
		D:\Smart-heart-rate-dector\Smart-heart-rate-dector\gagent\libgagent.a(gagentThread.o) (devUnLock)
D:\Smart-heart-rate-dector\Smart-heart-rate-dector\gagent\libgagent.a(iofpthread.o)
		D:\Smart-heart-rate-dector\Smart-heart-rate-dector\gagent\libgagent.a(gagentThread.o) (iofPthreadCreate)
D:\Smart-heart-rate-dector\Smart-heart-rate-dector\gagent\libgagent.a(iofstring.o)
		D:\Smart-heart-rate-dector\Smart-heart-rate-dector\gagent\libgagent.a(iofipc.o) (devMalloc)
D:\Smart-heart-rate-dector\Smart-heart-rate-dector\gagent\libgagent.a(local.o)
		D:\Smart-heart-rate-dector\Smart-heart-rate-dector\objs\gizwits_protocol.o (GAgentEnableBind)
D:\Smart-heart-rate-dector\Smart-heart-rate-dector\gagent\libgagent.a(localcomm.o)
		D:\Smart-heart-rate-dector\Smart-heart-rate-dector\gagent\libgagent.a(local.o) (gatEnableBindStart)
D:\Smart-heart-rate-dector\Smart-heart-rate-dector\gagent\libgagent.a(localio.o)
		D:\Smart-heart-rate-dector\Smart-heart-rate-dector\gagent\libgagent.a(local.o) (gatLocalioInit)
D:\Smart-heart-rate-dector\Smart-heart-rate-dector\gagent\libgagent.a(localprotocol.o)
		D:\Smart-heart-rate-dector\Smart-heart-rate-dector\gagent\libgagent.a(localio.o) (localExtractPacket)
D:\Smart-heart-rate-dector\Smart-heart-rate-dector\gagent\libgagent.a(nwk_manage.o)
		D:\Smart-heart-rate-dector\Smart-heart-rate-dector\gagent\libgagent.a(local.o) (gatNwkevtCbRegister)
D:\Smart-heart-rate-dector\Smart-heart-rate-dector\gagent\libgagent.a(productinfo.o)
		D:\Smart-heart-rate-dector\Smart-heart-rate-dector\gagent\libgagent.a(local.o) (gatCreatNewPassCode)
D:\Smart-heart-rate-dector\Smart-heart-rate-dector\gagent\libgagent.a(qlog.o)
		D:\Smart-heart-rate-dector\Smart-heart-rate-dector\gagent\libgagent.a(gagentThread.o) (qc_dbg_uart_init)
D:\Smart-heart-rate-dector\Smart-heart-rate-dector\gagent\libgagent.a(semaph.o)
		D:\Smart-heart-rate-dector\Smart-heart-rate-dector\gagent\libgagent.a(gagentThread.o) (iofSemInit)
D:\Smart-heart-rate-dector\Smart-heart-rate-dector\gagent\libgagent.a(simulatorcomm.o)
		D:\Smart-heart-rate-dector\Smart-heart-rate-dector\objs\gizwits_protocol.o (gagentUploadData)
D:\Smart-heart-rate-dector\Smart-heart-rate-dector\gagent\libgagent.a(tcp.o)
		D:\Smart-heart-rate-dector\Smart-heart-rate-dector\gagent\libgagent.a(iofpthread.o) (gatTcpDataSendHandle)
D:\Smart-heart-rate-dector\Smart-heart-rate-dector\gagent\libgagent.a(timer_subsystem.o)
		D:\Smart-heart-rate-dector\Smart-heart-rate-dector\gagent\libgagent.a(local.o) (gatTimerAdd)
D:\Smart-heart-rate-dector\Smart-heart-rate-dector\gagent\libgagent.a(aes.o)
		D:\Smart-heart-rate-dector\Smart-heart-rate-dector\gagent\libgagent.a(localcomm.o) (aesECB128Encrypt)
D:\Smart-heart-rate-dector\Smart-heart-rate-dector\gagent\libgagent.a(aesdata.o)
		D:\Smart-heart-rate-dector\Smart-heart-rate-dector\gagent\libgagent.a(aes.o) (invSboxAssign)
D:\Smart-heart-rate-dector\Smart-heart-rate-dector\gagent\libgagent.a(authorization.o)
		D:\Smart-heart-rate-dector\Smart-heart-rate-dector\gagent\libgagent.a(local.o) (gatAuthInit)
D:\Smart-heart-rate-dector\Smart-heart-rate-dector\gagent\libgagent.a(dp.o)
		D:\Smart-heart-rate-dector\Smart-heart-rate-dector\gagent\libgagent.a(localcomm.o) (dpTrans)
D:\Smart-heart-rate-dector\Smart-heart-rate-dector\gagent\libgagent.a(env.o)
		D:\Smart-heart-rate-dector\Smart-heart-rate-dector\gagent\libgagent.a(productinfo.o) (gatEnvRead)
D:\Smart-heart-rate-dector\Smart-heart-rate-dector\gagent\libgagent.a(gagent.o)
		D:\Smart-heart-rate-dector\Smart-heart-rate-dector\gagent\libgagent.a(localcomm.o) (gatCleanConfigData)
D:\Smart-heart-rate-dector\Smart-heart-rate-dector\gagent\libgagent.a(gatlist.o)
		D:\Smart-heart-rate-dector\Smart-heart-rate-dector\gagent\libgagent.a(timer_subsystem.o) (gatListAdd)
D:\Smart-heart-rate-dector\Smart-heart-rate-dector\gagent\libgagent.a(gatm2m.o)
		D:\Smart-heart-rate-dector\Smart-heart-rate-dector\gagent\libgagent.a(gagent.o) (gatM2MInit)
D:\Smart-heart-rate-dector\Smart-heart-rate-dector\gagent\libgagent.a(gatnet.o)
		D:\Smart-heart-rate-dector\Smart-heart-rate-dector\gagent\libgagent.a(localcomm.o) (gatEnterTestMode)
D:\Smart-heart-rate-dector\Smart-heart-rate-dector\gagent\libgagent.a(gatutilcode.o)
		D:\Smart-heart-rate-dector\Smart-heart-rate-dector\gagent\libgagent.a(local.o) (encryptDisplay)
D:\Smart-heart-rate-dector\Smart-heart-rate-dector\gagent\libgagent.a(gdns.o)
		D:\Smart-heart-rate-dector\Smart-heart-rate-dector\gagent\libgagent.a(gagent.o) (gatDnsTask)
D:\Smart-heart-rate-dector\Smart-heart-rate-dector\gagent\libgagent.a(gserver.o)
		D:\Smart-heart-rate-dector\Smart-heart-rate-dector\gagent\libgagent.a(gagent.o) (gatGServerInit)
D:\Smart-heart-rate-dector\Smart-heart-rate-dector\gagent\libgagent.a(httpgat.o)
		D:\Smart-heart-rate-dector\Smart-heart-rate-dector\gagent\libgagent.a(gagent.o) (gatHttpInit)
D:\Smart-heart-rate-dector\Smart-heart-rate-dector\gagent\libgagent.a(ioffile.o)
		D:\Smart-heart-rate-dector\Smart-heart-rate-dector\gagent\libgagent.a(env.o) (iofFileClose)
D:\Smart-heart-rate-dector\Smart-heart-rate-dector\gagent\libgagent.a(iofnet.o)
		D:\Smart-heart-rate-dector\Smart-heart-rate-dector\gagent\libgagent.a(localcomm.o) (gatIofNetGetRssi)
D:\Smart-heart-rate-dector\Smart-heart-rate-dector\gagent\libgagent.a(iofserial.o)
		D:\Smart-heart-rate-dector\Smart-heart-rate-dector\gagent\libgagent.a(localio.o) (iofSerialInit)
D:\Smart-heart-rate-dector\Smart-heart-rate-dector\gagent\libgagent.a(iofsocket.o)
		D:\Smart-heart-rate-dector\Smart-heart-rate-dector\gagent\libgagent.a(tcp.o) (gatIofSelect)
D:\Smart-heart-rate-dector\Smart-heart-rate-dector\gagent\libgagent.a(ioftime.o)
		D:\Smart-heart-rate-dector\Smart-heart-rate-dector\gagent\libgagent.a(productinfo.o) (getDevTime_MS)
D:\Smart-heart-rate-dector\Smart-heart-rate-dector\gagent\libgagent.a(lanvirtual.o)
		D:\Smart-heart-rate-dector\Smart-heart-rate-dector\gagent\libgagent.a(simulatorcomm.o) (gatLanLoginClientNumGet)
D:\Smart-heart-rate-dector\Smart-heart-rate-dector\gagent\libgagent.a(mqttgat.o)
		D:\Smart-heart-rate-dector\Smart-heart-rate-dector\gagent\libgagent.a(gatm2m.o) (gatCleanMqttCacheBuf)
D:\Smart-heart-rate-dector\Smart-heart-rate-dector\gagent\libgagent.a(mqttlib.o)
		D:\Smart-heart-rate-dector\Smart-heart-rate-dector\gagent\libgagent.a(mqttgat.o) (mqtt_connect)
D:\Smart-heart-rate-dector\Smart-heart-rate-dector\gagent\libgagent.a(otawan.o)
		D:\Smart-heart-rate-dector\Smart-heart-rate-dector\gagent\libgagent.a(gagent.o) (gatOTAEventHandle)
D:\Smart-heart-rate-dector\Smart-heart-rate-dector\gagent\libgagent.a(cmdtable.o)
		D:\Smart-heart-rate-dector\Smart-heart-rate-dector\gagent\libgagent.a(dp.o) (protCmdTab)
D:\Smart-heart-rate-dector\Smart-heart-rate-dector\gagent\libgagent.a(gagent_md5.o)
		D:\Smart-heart-rate-dector\Smart-heart-rate-dector\gagent\libgagent.a(gserver.o) (GAgent_MD5Final)
D:\Smart-heart-rate-dector\Smart-heart-rate-dector\gagent\libgagent.a(simulator.o)
		D:\Smart-heart-rate-dector\Smart-heart-rate-dector\gagent\libgagent.a(cmdtable.o) (onSimulatorLoginCb)
sdk\libs\timer_dam_lib.lib(qapi_timer_user.o)
		D:\Smart-heart-rate-dector\Smart-heart-rate-dector\objs\gizwits_protocol.o (qapi_Timer_Def)
sdk\libs\txm_lib.lib(txm_module_thread_shell_entry.o)
		D:\Smart-heart-rate-dector\Smart-heart-rate-dector\objs\gizwits_protocol.o (_txm_module_kernel_call_dispatcher)
sdk\libs\txm_lib.lib(txm_module_callback_request_thread_entry.o)
		D:\Smart-heart-rate-dector\Smart-heart-rate-dector\objs\txm_module_preamble_llvm.o (_txm_module_callback_request_thread_entry)
sdk\libs\txm_lib.lib(txm_module_system_call11.o)
		D:\Smart-heart-rate-dector\Smart-heart-rate-dector\objs\gizwits_protocol.o (_txm_module_system_call11)
sdk\libs\txm_lib.lib(txm_module_system_call12.o)
		D:\Smart-heart-rate-dector\Smart-heart-rate-dector\objs\adc.o (_txm_module_system_call12)
sdk\libs\txm_lib.lib(txm_module_system_call4.o)
		D:\Smart-heart-rate-dector\Smart-heart-rate-dector\objs\gizwits_protocol.o (_txm_module_system_call4)
sdk\libs\txm_lib.lib(txm_module_system_call5.o)
		D:\Smart-heart-rate-dector\Smart-heart-rate-dector\objs\gizwits_protocol.o (_txm_module_system_call5)
sdk\libs\txm_lib.lib(txm_module_system_call6.o)
		D:\Smart-heart-rate-dector\Smart-heart-rate-dector\objs\gizwits_protocol.o (_txm_module_system_call6)
sdk\libs\txm_lib.lib(txm_module_system_call7.o)
		D:\Smart-heart-rate-dector\Smart-heart-rate-dector\gagent\libgagent.a(iofstring.o) (_txm_module_system_call7)
sdk\libs\txm_lib.lib(txm_module_system_call8.o)
		D:\Smart-heart-rate-dector\Smart-heart-rate-dector\objs\main.o (_txm_module_system_call8)
D:\4.0.3\armv7m-none-eabi\libc\lib/libc.a(tolower.o)
		D:\Smart-heart-rate-dector\Smart-heart-rate-dector\gagent\libgagent.a(otawan.o) (tolower)
D:\4.0.3\armv7m-none-eabi\libc\lib/libc.a(toupper.o)
		D:\Smart-heart-rate-dector\Smart-heart-rate-dector\objs\common.o (toupper)
D:\4.0.3\armv7m-none-eabi\libc\lib/libc.a(malloc.o)
		D:\Smart-heart-rate-dector\Smart-heart-rate-dector\objs\gizwits_protocol.o (malloc)
D:\4.0.3\armv7m-none-eabi\libc\lib/libc.a(madvise.o)
		D:\4.0.3\armv7m-none-eabi\libc\lib/libc.a(malloc.o) (__madvise)
D:\4.0.3\armv7m-none-eabi\libc\lib/libc.a(mremap.o)
		D:\4.0.3\armv7m-none-eabi\libc\lib/libc.a(malloc.o) (__mremap)
D:\4.0.3\armv7m-none-eabi\libc\lib/libc.a(munmap.o)
		D:\4.0.3\armv7m-none-eabi\libc\lib/libc.a(malloc.o) (__munmap)
D:\4.0.3\armv7m-none-eabi\libc\lib/libc.a(rand.o)
		D:\Smart-heart-rate-dector\Smart-heart-rate-dector\gagent\libgagent.a(productinfo.o) (srand)
D:\4.0.3\armv7m-none-eabi\libc\lib/libc.a(vfprintf.o)
		D:\Smart-heart-rate-dector\Smart-heart-rate-dector\objs\quectel_utils.o (vsnprintf)
D:\4.0.3\armv7m-none-eabi\libc\lib/libc.a(fwrite.o)
		D:\4.0.3\armv7m-none-eabi\libc\lib/libc.a(vfprintf.o) (__fwritex)
D:\4.0.3\armv7m-none-eabi\libc\lib/libc.a(snprintf.o)
		D:\Smart-heart-rate-dector\Smart-heart-rate-dector\gagent\libgagent.a(iofnet.o) (snprintf)
D:\4.0.3\armv7m-none-eabi\libc\lib/libc.a(sprintf.o)
		D:\Smart-heart-rate-dector\Smart-heart-rate-dector\gagent\libgagent.a(localcomm.o) (sprintf)
D:\4.0.3\armv7m-none-eabi\libc\lib/libc.a(vsnprintf.o)
		D:\4.0.3\armv7m-none-eabi\libc\lib/libc.a(vfprintf.o) (vsnprintf_full)
D:\4.0.3\armv7m-none-eabi\libc\lib/libc.a(vsprintf.o)
		D:\4.0.3\armv7m-none-eabi\libc\lib/libc.a(sprintf.o) (vsprintf)
D:\4.0.3\armv7m-none-eabi\libc\lib/libc.a(strtol.o)
		D:\Smart-heart-rate-dector\Smart-heart-rate-dector\gagent\libgagent.a(otawan.o) (strtol)
D:\4.0.3\armv7m-none-eabi\libc\lib/libc.a(__aeabi_memclr.o)
		D:\4.0.3\armv7m-none-eabi\libc\lib/libc.a(vfprintf.o) (__aeabi_memclr4)
D:\4.0.3\armv7m-none-eabi\libc\lib/libc.a(__aeabi_memcpy.o)
		D:\4.0.3\armv7m-none-eabi\libc\lib/libc.a(vsnprintf.o) (__aeabi_memcpy8)
D:\4.0.3\armv7m-none-eabi\libc\lib/libc.a(memcpy_le.o)
		D:\Smart-heart-rate-dector\Smart-heart-rate-dector\objs\common.o (memcpy)
D:\4.0.3\armv7m-none-eabi\libc\lib/libc.a(memset_nofp_armv7.o)
		D:\Smart-heart-rate-dector\Smart-heart-rate-dector\objs\gizwits_product.o (memset)
D:\4.0.3\armv7m-none-eabi\libc\lib/libc.a(memchr.o)
		D:\4.0.3\armv7m-none-eabi\libc\lib/libc.a(vfprintf.o) (memchr)
D:\4.0.3\armv7m-none-eabi\libc\lib/libc.a(memcmp.o)
		D:\Smart-heart-rate-dector\Smart-heart-rate-dector\gagent\libgagent.a(local.o) (memcmp)
D:\4.0.3\armv7m-none-eabi\libc\lib/libc.a(strchr.o)
		D:\Smart-heart-rate-dector\Smart-heart-rate-dector\gagent\libgagent.a(gatm2m.o) (strchr)
D:\4.0.3\armv7m-none-eabi\libc\lib/libc.a(strchrnul.o)
		D:\4.0.3\armv7m-none-eabi\libc\lib/libc.a(strchr.o) (__strchrnul)
D:\4.0.3\armv7m-none-eabi\libc\lib/libc.a(strcmp.o)
		D:\Smart-heart-rate-dector\Smart-heart-rate-dector\gagent\libgagent.a(local.o) (strcmp)
D:\4.0.3\armv7m-none-eabi\libc\lib/libc.a(strcpy.o)
		D:\Smart-heart-rate-dector\Smart-heart-rate-dector\gagent\libgagent.a(local.o) (strcpy)
D:\4.0.3\armv7m-none-eabi\libc\lib/libc.a(strlen.o)
		D:\Smart-heart-rate-dector\Smart-heart-rate-dector\objs\adc.o (strlen)
D:\4.0.3\armv7m-none-eabi\libc\lib/libc.a(strncasecmp.o)
		D:\Smart-heart-rate-dector\Smart-heart-rate-dector\gagent\libgagent.a(iofstring.o) (strncasecmp)
D:\4.0.3\armv7m-none-eabi\libc\lib/libc.a(strncmp.o)
		D:\Smart-heart-rate-dector\Smart-heart-rate-dector\gagent\libgagent.a(dp.o) (strncmp)
D:\4.0.3\armv7m-none-eabi\libc\lib/libc.a(strncpy.o)
		D:\Smart-heart-rate-dector\Smart-heart-rate-dector\gagent\libgagent.a(productinfo.o) (strncpy)
D:\4.0.3\armv7m-none-eabi\libc\lib/libc.a(strstr.o)
		D:\Smart-heart-rate-dector\Smart-heart-rate-dector\gagent\libgagent.a(gatutilcode.o) (strstr)
D:\4.0.3\armv7m-none-eabi\libc\lib/libc.a(__wait.o)
		D:\4.0.3\armv7m-none-eabi\libc\lib/libc.a(malloc.o) (__wait)
D:\4.0.3\armv7m-none-eabi\libc\lib/libc.a(__errno_location.o)
		D:\4.0.3\armv7m-none-eabi\libc\lib/libc.a(malloc.o) (__errno_location)
D:\4.0.3\armv7m-none-eabi\libc\lib/libc.a(strerror.o)
		D:\4.0.3\armv7m-none-eabi\libc\lib/libc.a(vfprintf.o) (strerror)
D:\4.0.3\armv7m-none-eabi\libc\lib/libc.a(intscan.o)
		D:\4.0.3\armv7m-none-eabi\libc\lib/libc.a(strtol.o) (__intscan)
D:\4.0.3\armv7m-none-eabi\libc\lib/libc.a(libc.o)
		D:\4.0.3\armv7m-none-eabi\libc\lib/libc.a(malloc.o) (__libc)
D:\4.0.3\armv7m-none-eabi\libc\lib/libc.a(shgetc.o)
		D:\4.0.3\armv7m-none-eabi\libc\lib/libc.a(strtol.o) (__shlim)
D:\4.0.3\armv7m-none-eabi\libc\lib/libc.a(syscall_ret.o)
		D:\4.0.3\armv7m-none-eabi\libc\lib/libc.a(madvise.o) (__syscall_ret)
D:\4.0.3\armv7m-none-eabi\libc\lib/libc.a(__lctrans.o)
		D:\4.0.3\armv7m-none-eabi\libc\lib/libc.a(strerror.o) (__lctrans)
D:\4.0.3\armv7m-none-eabi\libc\lib/libc.a(expand_heap.o)
		D:\4.0.3\armv7m-none-eabi\libc\lib/libc.a(malloc.o) (__expand_heap)
D:\4.0.3\armv7m-none-eabi\libc\lib/libc.a(wctomb.o)
		D:\4.0.3\armv7m-none-eabi\libc\lib/libc.a(vfprintf.o) (wctomb)
D:\4.0.3\armv7m-none-eabi\libc\lib/libc.a(__towrite.o)
		D:\4.0.3\armv7m-none-eabi\libc\lib/libc.a(fwrite.o) (__towrite)
D:\4.0.3\armv7m-none-eabi\libc\lib/libc.a(__uflow.o)
		D:\4.0.3\armv7m-none-eabi\libc\lib/libc.a(shgetc.o) (__uflow)
D:\4.0.3\armv7m-none-eabi\libc\lib/libc.a(__lockfile.o)
		D:\4.0.3\armv7m-none-eabi\libc\lib/libc.a(vfprintf.o) (__lockfile)
D:\4.0.3\armv7m-none-eabi\libc\lib/libc.a(stpcpy.o)
		D:\4.0.3\armv7m-none-eabi\libc\lib/libc.a(strcpy.o) (__stpcpy)
D:\4.0.3\armv7m-none-eabi\libc\lib/libc.a(stpncpy.o)
		D:\4.0.3\armv7m-none-eabi\libc\lib/libc.a(strncpy.o) (__stpncpy)
D:\4.0.3\armv7m-none-eabi\libc\lib/libc.a(__brk.o)
		D:\4.0.3\armv7m-none-eabi\libc\lib/libc.a(expand_heap.o) (__brk)
D:\4.0.3\armv7m-none-eabi\libc\lib/libc.a(wcrtomb.o)
		D:\4.0.3\armv7m-none-eabi\libc\lib/libc.a(wctomb.o) (wcrtomb)
D:\4.0.3\armv7m-none-eabi\libc\lib/libc.a(__stdio_exit.o)
		D:\4.0.3\armv7m-none-eabi\libc\lib/libc.a(__towrite.o) (__stdio_exit_needed)
D:\4.0.3\armv7m-none-eabi\libc\lib/libc.a(__toread.o)
		D:\4.0.3\armv7m-none-eabi\libc\lib/libc.a(__uflow.o) (__toread)
D:\4.0.3\armv7m-none-eabi\libc\lib/libc.a(ofl.o)
		D:\4.0.3\armv7m-none-eabi\libc\lib/libc.a(__stdio_exit.o) (__ofl_lock)
D:\4.0.3\lib\clang\4.0.3\lib\baremetal/libclang_rt.builtins-armv7m.a(aeabi_uldivmod.S.obj)
		D:\4.0.3\armv7m-none-eabi\libc\lib/libc.a(vfprintf.o) (__aeabi_uldivmod)
D:\4.0.3\lib\clang\4.0.3\lib\baremetal/libclang_rt.builtins-armv7m.a(addsf3.c.obj)
		D:\Smart-heart-rate-dector\Smart-heart-rate-dector\objs\dataPointTools.o (__aeabi_fadd)
D:\4.0.3\lib\clang\4.0.3\lib\baremetal/libclang_rt.builtins-armv7m.a(divsf3.c.obj)
		D:\Smart-heart-rate-dector\Smart-heart-rate-dector\objs\dataPointTools.o (__aeabi_fdiv)
D:\4.0.3\lib\clang\4.0.3\lib\baremetal/libclang_rt.builtins-armv7m.a(fixdfsi.c.obj)
		D:\Smart-heart-rate-dector\Smart-heart-rate-dector\gagent\libgagent.a(ioftime.o) (__aeabi_d2iz)
D:\4.0.3\lib\clang\4.0.3\lib\baremetal/libclang_rt.builtins-armv7m.a(fixunssfsi.c.obj)
		D:\Smart-heart-rate-dector\Smart-heart-rate-dector\objs\dataPointTools.o (__aeabi_f2uiz)
D:\4.0.3\lib\clang\4.0.3\lib\baremetal/libclang_rt.builtins-armv7m.a(floatsisf.c.obj)
		D:\4.0.3\armv7m-none-eabi\libc\lib/libc.a(malloc.o) (__aeabi_i2f)
D:\4.0.3\lib\clang\4.0.3\lib\baremetal/libclang_rt.builtins-armv7m.a(floatunsidf.c.obj)
		D:\Smart-heart-rate-dector\Smart-heart-rate-dector\gagent\libgagent.a(ioftime.o) (__aeabi_ui2d)
D:\4.0.3\lib\clang\4.0.3\lib\baremetal/libclang_rt.builtins-armv7m.a(floatunsisf.c.obj)
		D:\Smart-heart-rate-dector\Smart-heart-rate-dector\objs\dataPointTools.o (__aeabi_ui2f)
D:\4.0.3\lib\clang\4.0.3\lib\baremetal/libclang_rt.builtins-armv7m.a(muldf3.c.obj)
		D:\Smart-heart-rate-dector\Smart-heart-rate-dector\gagent\libgagent.a(ioftime.o) (__aeabi_dmul)
D:\4.0.3\lib\clang\4.0.3\lib\baremetal/libclang_rt.builtins-armv7m.a(mulsf3.c.obj)
		D:\Smart-heart-rate-dector\Smart-heart-rate-dector\objs\dataPointTools.o (__aeabi_fmul)
D:\4.0.3\lib\clang\4.0.3\lib\baremetal/libclang_rt.builtins-armv7m.a(subsf3.c.obj)
		D:\Smart-heart-rate-dector\Smart-heart-rate-dector\objs\dataPointTools.o (__aeabi_fsub)
D:\4.0.3\lib\clang\4.0.3\lib\baremetal/libclang_rt.builtins-armv7m.a(udivmoddi4.c.obj)
		D:\4.0.3\lib\clang\4.0.3\lib\baremetal/libclang_rt.builtins-armv7m.a(aeabi_uldivmod.S.obj) (__udivmoddi4)

Allocating common symbols
Common symbol	size	file

Properties_ADC1	0x8	D:\Smart-heart-rate-dector\Smart-heart-rate-dector\objs\adc.o
adc_handle	0x4	D:\Smart-heart-rate-dector\Smart-heart-rate-dector\objs\adc.o
currentDataPoint	0x16	D:\Smart-heart-rate-dector\Smart-heart-rate-dector\objs\gizwits_product.o
free_memory_task	0x20000	D:\Smart-heart-rate-dector\Smart-heart-rate-dector\objs\gizwits_protocol.o
gizTaskStack	0x4000	D:\Smart-heart-rate-dector\Smart-heart-rate-dector\objs\gizwits_protocol.o
gizwitsProtocol	0x3de	D:\Smart-heart-rate-dector\Smart-heart-rate-dector\objs\gizwits_protocol.o
byte_pool_task	0x4	D:\Smart-heart-rate-dector\Smart-heart-rate-dector\objs\gizwits_protocol.o
gizTaskHandle	0x4	D:\Smart-heart-rate-dector\Smart-heart-rate-dector\objs\gizwits_protocol.o
timer_def_attr	0x10	D:\Smart-heart-rate-dector\Smart-heart-rate-dector\objs\gizwits_protocol.o
timer_handle	0x4	D:\Smart-heart-rate-dector\Smart-heart-rate-dector\objs\gizwits_protocol.o
timer_set_attr	0x18	D:\Smart-heart-rate-dector\Smart-heart-rate-dector\objs\gizwits_protocol.o
gpio_id_tbl	0x1c	D:\Smart-heart-rate-dector\Smart-heart-rate-dector\objs\gpio.o
tlmm_config	0x118	D:\Smart-heart-rate-dector\Smart-heart-rate-dector\objs\gpio.o
userTimer	0x4	D:\Smart-heart-rate-dector\Smart-heart-rate-dector\objs\main.o
BPM	0x4	D:\Smart-heart-rate-dector\Smart-heart-rate-dector\objs\plusensor.o
Num	0x4	D:\Smart-heart-rate-dector\Smart-heart-rate-dector\objs\plusensor.o
Signal	0x4	D:\Smart-heart-rate-dector\Smart-heart-rate-dector\objs\plusensor.o
rate	0x28	D:\Smart-heart-rate-dector\Smart-heart-rate-dector\objs\plusensor.o
free_memory_gagent	0x40000	D:\Smart-heart-rate-dector\Smart-heart-rate-dector\gagent\libgagent.a(gagentThread.o)
byte_pool_gagent	0x4	D:\Smart-heart-rate-dector\Smart-heart-rate-dector\gagent\libgagent.a(gagentThread.o)
gatThread_Handle	0x4	D:\Smart-heart-rate-dector\Smart-heart-rate-dector\gagent\libgagent.a(gagentThread.o)
gatapp_stack	0x4	D:\Smart-heart-rate-dector\Smart-heart-rate-dector\gagent\libgagent.a(gagentThread.o)
netConPara	0x100	D:\Smart-heart-rate-dector\Smart-heart-rate-dector\gagent\libgagent.a(gatnet.o)
httpRecCore	0x14	D:\Smart-heart-rate-dector\Smart-heart-rate-dector\gagent\libgagent.a(httpgat.o)
httpSendCore	0x14	D:\Smart-heart-rate-dector\Smart-heart-rate-dector\gagent\libgagent.a(httpgat.o)
gatQueue	0x4	D:\Smart-heart-rate-dector\Smart-heart-rate-dector\gagent\libgagent.a(iofipc.o)
tcp_signal_handle	0x4	D:\Smart-heart-rate-dector\Smart-heart-rate-dector\gagent\libgagent.a(iofnet.o)
gatDnsTid	0x4	D:\Smart-heart-rate-dector\Smart-heart-rate-dector\gagent\libgagent.a(iofpthread.o)
gatNetTid	0x4	D:\Smart-heart-rate-dector\Smart-heart-rate-dector\gagent\libgagent.a(iofpthread.o)
gatSerialRecTid	0x4	D:\Smart-heart-rate-dector\Smart-heart-rate-dector\gagent\libgagent.a(iofpthread.o)
gatSerialSendTid	0x4	D:\Smart-heart-rate-dector\Smart-heart-rate-dector\gagent\libgagent.a(iofpthread.o)
gatTaskProcessTid	0x4	D:\Smart-heart-rate-dector\Smart-heart-rate-dector\gagent\libgagent.a(iofpthread.o)
gatTcpDataRecTid	0x4	D:\Smart-heart-rate-dector\Smart-heart-rate-dector\gagent\libgagent.a(iofpthread.o)
gatTcpDataSendTid	0x4	D:\Smart-heart-rate-dector\Smart-heart-rate-dector\gagent\libgagent.a(iofpthread.o)
gatTcpServerTid	0x4	D:\Smart-heart-rate-dector\Smart-heart-rate-dector\gagent\libgagent.a(iofpthread.o)
gatUdpRecTid	0x4	D:\Smart-heart-rate-dector\Smart-heart-rate-dector\gagent\libgagent.a(iofpthread.o)
gatUdpSendTid	0x4	D:\Smart-heart-rate-dector\Smart-heart-rate-dector\gagent\libgagent.a(iofpthread.o)
fdList	0x4	D:\Smart-heart-rate-dector\Smart-heart-rate-dector\gagent\libgagent.a(iofserial.o)
uart_conf	0x1c	D:\Smart-heart-rate-dector\Smart-heart-rate-dector\gagent\libgagent.a(qlog.o)
tcpChListNr	0x54	D:\Smart-heart-rate-dector\Smart-heart-rate-dector\gagent\libgagent.a(tcp.o)
tcpDataNodeNr	0x14	D:\Smart-heart-rate-dector\Smart-heart-rate-dector\gagent\libgagent.a(tcp.o)
tcpSendNr	0x1c	D:\Smart-heart-rate-dector\Smart-heart-rate-dector\gagent\libgagent.a(tcp.o)
gatTimerCore	0x14	D:\Smart-heart-rate-dector\Smart-heart-rate-dector\gagent\libgagent.a(timer_subsystem.o)
timer_client_stack	0x1000	sdk\libs\timer_dam_lib.lib(qapi_timer_user.o)
timer_client_module_thread	0x4	sdk\libs\timer_dam_lib.lib(qapi_timer_user.o)
timer_thread_state	0x4	sdk\libs\timer_dam_lib.lib(qapi_timer_user.o)
timer_user_handle	0x4	sdk\libs\timer_dam_lib.lib(qapi_timer_user.o)
_txm_module_entry_info	0x4	sdk\libs\txm_lib.lib(txm_module_thread_shell_entry.o)
_txm_module_instance_ptr	0x4	sdk\libs\txm_lib.lib(txm_module_thread_shell_entry.o)
_txm_module_kernel_call_dispatcher	0x4	sdk\libs\txm_lib.lib(txm_module_thread_shell_entry.o)
__libc	0x40	D:\4.0.3\armv7m-none-eabi\libc\lib/libc.a(libc.o)

Linker Script and memory map
LOAD D:\Smart-heart-rate-dector\Smart-heart-rate-dector\objs\txm_module_preamble_llvm.o[]
LOAD D:\Smart-heart-rate-dector\Smart-heart-rate-dector\objs\adc.o[]
LOAD D:\Smart-heart-rate-dector\Smart-heart-rate-dector\objs\common.o[]
LOAD D:\Smart-heart-rate-dector\Smart-heart-rate-dector\objs\dataPointTools.o[]
LOAD D:\Smart-heart-rate-dector\Smart-heart-rate-dector\objs\gizwits_product.o[]
LOAD D:\Smart-heart-rate-dector\Smart-heart-rate-dector\objs\gizwits_protocol.o[]
LOAD D:\Smart-heart-rate-dector\Smart-heart-rate-dector\objs\gpio.o[]
LOAD D:\Smart-heart-rate-dector\Smart-heart-rate-dector\objs\main.o[]
LOAD D:\Smart-heart-rate-dector\Smart-heart-rate-dector\objs\plusensor.o[]
LOAD D:\Smart-heart-rate-dector\Smart-heart-rate-dector\objs\quectel_utils.o[]
LOAD D:\Smart-heart-rate-dector\Smart-heart-rate-dector\objs\ringbuffer.o[]
SKIPPED D:\Smart-heart-rate-dector\Smart-heart-rate-dector\objs\txm_module_preamble_llvm.o (ELF)
LOAD D:\Smart-heart-rate-dector\Smart-heart-rate-dector\gagent\libgagent.a(gagentThread.o) []
LOAD D:\Smart-heart-rate-dector\Smart-heart-rate-dector\gagent\libgagent.a(iofdev.o) []
LOAD D:\Smart-heart-rate-dector\Smart-heart-rate-dector\gagent\libgagent.a(iofipc.o) []
LOAD D:\Smart-heart-rate-dector\Smart-heart-rate-dector\gagent\libgagent.a(iofpthread.o) []
LOAD D:\Smart-heart-rate-dector\Smart-heart-rate-dector\gagent\libgagent.a(iofstring.o) []
LOAD D:\Smart-heart-rate-dector\Smart-heart-rate-dector\gagent\libgagent.a(local.o) []
LOAD D:\Smart-heart-rate-dector\Smart-heart-rate-dector\gagent\libgagent.a(localcomm.o) []
LOAD D:\Smart-heart-rate-dector\Smart-heart-rate-dector\gagent\libgagent.a(localio.o) []
LOAD D:\Smart-heart-rate-dector\Smart-heart-rate-dector\gagent\libgagent.a(localprotocol.o) []
LOAD D:\Smart-heart-rate-dector\Smart-heart-rate-dector\gagent\libgagent.a(nwk_manage.o) []
LOAD D:\Smart-heart-rate-dector\Smart-heart-rate-dector\gagent\libgagent.a(productinfo.o) []
LOAD D:\Smart-heart-rate-dector\Smart-heart-rate-dector\gagent\libgagent.a(qlog.o) []
LOAD D:\Smart-heart-rate-dector\Smart-heart-rate-dector\gagent\libgagent.a(semaph.o) []
LOAD D:\Smart-heart-rate-dector\Smart-heart-rate-dector\gagent\libgagent.a(simulatorcomm.o) []
LOAD D:\Smart-heart-rate-dector\Smart-heart-rate-dector\gagent\libgagent.a(tcp.o) []
LOAD D:\Smart-heart-rate-dector\Smart-heart-rate-dector\gagent\libgagent.a(timer_subsystem.o) []
LOAD D:\Smart-heart-rate-dector\Smart-heart-rate-dector\gagent\libgagent.a(aes.o) []
LOAD D:\Smart-heart-rate-dector\Smart-heart-rate-dector\gagent\libgagent.a(aesdata.o) []
LOAD D:\Smart-heart-rate-dector\Smart-heart-rate-dector\gagent\libgagent.a(authorization.o) []
LOAD D:\Smart-heart-rate-dector\Smart-heart-rate-dector\gagent\libgagent.a(dp.o) []
LOAD D:\Smart-heart-rate-dector\Smart-heart-rate-dector\gagent\libgagent.a(env.o) []
LOAD D:\Smart-heart-rate-dector\Smart-heart-rate-dector\gagent\libgagent.a(gagent.o) []
LOAD D:\Smart-heart-rate-dector\Smart-heart-rate-dector\gagent\libgagent.a(gatlist.o) []
LOAD D:\Smart-heart-rate-dector\Smart-heart-rate-dector\gagent\libgagent.a(gatm2m.o) []
LOAD D:\Smart-heart-rate-dector\Smart-heart-rate-dector\gagent\libgagent.a(gatnet.o) []
LOAD D:\Smart-heart-rate-dector\Smart-heart-rate-dector\gagent\libgagent.a(gatutilcode.o) []
LOAD D:\Smart-heart-rate-dector\Smart-heart-rate-dector\gagent\libgagent.a(gdns.o) []
LOAD D:\Smart-heart-rate-dector\Smart-heart-rate-dector\gagent\libgagent.a(gserver.o) []
LOAD D:\Smart-heart-rate-dector\Smart-heart-rate-dector\gagent\libgagent.a(httpgat.o) []
LOAD D:\Smart-heart-rate-dector\Smart-heart-rate-dector\gagent\libgagent.a(ioffile.o) []
LOAD D:\Smart-heart-rate-dector\Smart-heart-rate-dector\gagent\libgagent.a(iofnet.o) []
LOAD D:\Smart-heart-rate-dector\Smart-heart-rate-dector\gagent\libgagent.a(iofserial.o) []
LOAD D:\Smart-heart-rate-dector\Smart-heart-rate-dector\gagent\libgagent.a(iofsocket.o) []
LOAD D:\Smart-heart-rate-dector\Smart-heart-rate-dector\gagent\libgagent.a(ioftime.o) []
LOAD D:\Smart-heart-rate-dector\Smart-heart-rate-dector\gagent\libgagent.a(lanvirtual.o) []
LOAD D:\Smart-heart-rate-dector\Smart-heart-rate-dector\gagent\libgagent.a(mqttgat.o) []
LOAD D:\Smart-heart-rate-dector\Smart-heart-rate-dector\gagent\libgagent.a(mqttlib.o) []
LOAD D:\Smart-heart-rate-dector\Smart-heart-rate-dector\gagent\libgagent.a(otawan.o) []
LOAD D:\Smart-heart-rate-dector\Smart-heart-rate-dector\gagent\libgagent.a(cmdtable.o) []
LOAD D:\Smart-heart-rate-dector\Smart-heart-rate-dector\gagent\libgagent.a(gagent_md5.o) []
LOAD D:\Smart-heart-rate-dector\Smart-heart-rate-dector\gagent\libgagent.a(simulator.o) []
LOAD sdk\libs\timer_dam_lib.lib(qapi_timer_user.o) []
LOAD sdk\libs\txm_lib.lib(txm_module_thread_shell_entry.o) []
LOAD sdk\libs\txm_lib.lib(txm_module_callback_request_thread_entry.o) []
LOAD sdk\libs\txm_lib.lib(txm_module_system_call11.o) []
LOAD sdk\libs\txm_lib.lib(txm_module_system_call12.o) []
LOAD sdk\libs\txm_lib.lib(txm_module_system_call4.o) []
LOAD sdk\libs\txm_lib.lib(txm_module_system_call5.o) []
LOAD sdk\libs\txm_lib.lib(txm_module_system_call6.o) []
LOAD sdk\libs\txm_lib.lib(txm_module_system_call7.o) []
LOAD sdk\libs\txm_lib.lib(txm_module_system_call8.o) []
START GROUP
END GROUP
START GROUP
LOAD D:\4.0.3\armv7m-none-eabi\libc\lib/libc.a(tolower.o) []
LOAD D:\4.0.3\armv7m-none-eabi\libc\lib/libc.a(toupper.o) []
LOAD D:\4.0.3\armv7m-none-eabi\libc\lib/libc.a(malloc.o) []
LOAD D:\4.0.3\armv7m-none-eabi\libc\lib/libc.a(madvise.o) []
LOAD D:\4.0.3\armv7m-none-eabi\libc\lib/libc.a(mremap.o) []
LOAD D:\4.0.3\armv7m-none-eabi\libc\lib/libc.a(munmap.o) []
LOAD D:\4.0.3\armv7m-none-eabi\libc\lib/libc.a(rand.o) []
LOAD D:\4.0.3\armv7m-none-eabi\libc\lib/libc.a(vfprintf.o) []
LOAD D:\4.0.3\armv7m-none-eabi\libc\lib/libc.a(fwrite.o) []
LOAD D:\4.0.3\armv7m-none-eabi\libc\lib/libc.a(snprintf.o) []
LOAD D:\4.0.3\armv7m-none-eabi\libc\lib/libc.a(sprintf.o) []
LOAD D:\4.0.3\armv7m-none-eabi\libc\lib/libc.a(vsnprintf.o) []
LOAD D:\4.0.3\armv7m-none-eabi\libc\lib/libc.a(vsprintf.o) []
LOAD D:\4.0.3\armv7m-none-eabi\libc\lib/libc.a(strtol.o) []
LOAD D:\4.0.3\armv7m-none-eabi\libc\lib/libc.a(__aeabi_memclr.o) []
LOAD D:\4.0.3\armv7m-none-eabi\libc\lib/libc.a(__aeabi_memcpy.o) []
LOAD D:\4.0.3\armv7m-none-eabi\libc\lib/libc.a(memcpy_le.o) []
LOAD D:\4.0.3\armv7m-none-eabi\libc\lib/libc.a(memset_nofp_armv7.o) []
LOAD D:\4.0.3\armv7m-none-eabi\libc\lib/libc.a(memchr.o) []
LOAD D:\4.0.3\armv7m-none-eabi\libc\lib/libc.a(memcmp.o) []
LOAD D:\4.0.3\armv7m-none-eabi\libc\lib/libc.a(strchr.o) []
LOAD D:\4.0.3\armv7m-none-eabi\libc\lib/libc.a(strchrnul.o) []
LOAD D:\4.0.3\armv7m-none-eabi\libc\lib/libc.a(strcmp.o) []
LOAD D:\4.0.3\armv7m-none-eabi\libc\lib/libc.a(strcpy.o) []
LOAD D:\4.0.3\armv7m-none-eabi\libc\lib/libc.a(strlen.o) []
LOAD D:\4.0.3\armv7m-none-eabi\libc\lib/libc.a(strncasecmp.o) []
LOAD D:\4.0.3\armv7m-none-eabi\libc\lib/libc.a(strncmp.o) []
LOAD D:\4.0.3\armv7m-none-eabi\libc\lib/libc.a(strncpy.o) []
LOAD D:\4.0.3\armv7m-none-eabi\libc\lib/libc.a(strstr.o) []
LOAD D:\4.0.3\armv7m-none-eabi\libc\lib/libc.a(__wait.o) []
LOAD D:\4.0.3\armv7m-none-eabi\libc\lib/libc.a(__errno_location.o) []
LOAD D:\4.0.3\armv7m-none-eabi\libc\lib/libc.a(strerror.o) []
LOAD D:\4.0.3\armv7m-none-eabi\libc\lib/libc.a(intscan.o) []
LOAD D:\4.0.3\armv7m-none-eabi\libc\lib/libc.a(libc.o) []
LOAD D:\4.0.3\armv7m-none-eabi\libc\lib/libc.a(shgetc.o) []
LOAD D:\4.0.3\armv7m-none-eabi\libc\lib/libc.a(syscall_ret.o) []
LOAD D:\4.0.3\armv7m-none-eabi\libc\lib/libc.a(__lctrans.o) []
LOAD D:\4.0.3\armv7m-none-eabi\libc\lib/libc.a(expand_heap.o) []
LOAD D:\4.0.3\armv7m-none-eabi\libc\lib/libc.a(wctomb.o) []
LOAD D:\4.0.3\armv7m-none-eabi\libc\lib/libc.a(__towrite.o) []
LOAD D:\4.0.3\armv7m-none-eabi\libc\lib/libc.a(__uflow.o) []
LOAD D:\4.0.3\armv7m-none-eabi\libc\lib/libc.a(__lockfile.o) []
LOAD D:\4.0.3\armv7m-none-eabi\libc\lib/libc.a(stpcpy.o) []
LOAD D:\4.0.3\armv7m-none-eabi\libc\lib/libc.a(stpncpy.o) []
LOAD D:\4.0.3\armv7m-none-eabi\libc\lib/libc.a(__brk.o) []
LOAD D:\4.0.3\armv7m-none-eabi\libc\lib/libc.a(wcrtomb.o) []
LOAD D:\4.0.3\armv7m-none-eabi\libc\lib/libc.a(__stdio_exit.o) []
LOAD D:\4.0.3\armv7m-none-eabi\libc\lib/libc.a(__toread.o) []
LOAD D:\4.0.3\armv7m-none-eabi\libc\lib/libc.a(ofl.o) []
LOAD D:\4.0.3\lib\clang\4.0.3\lib\baremetal/libclang_rt.builtins-armv7m.a(aeabi_uldivmod.S.obj) []
LOAD D:\4.0.3\lib\clang\4.0.3\lib\baremetal/libclang_rt.builtins-armv7m.a(addsf3.c.obj) []
LOAD D:\4.0.3\lib\clang\4.0.3\lib\baremetal/libclang_rt.builtins-armv7m.a(divsf3.c.obj) []
LOAD D:\4.0.3\lib\clang\4.0.3\lib\baremetal/libclang_rt.builtins-armv7m.a(fixdfsi.c.obj) []
LOAD D:\4.0.3\lib\clang\4.0.3\lib\baremetal/libclang_rt.builtins-armv7m.a(fixunssfsi.c.obj) []
LOAD D:\4.0.3\lib\clang\4.0.3\lib\baremetal/libclang_rt.builtins-armv7m.a(floatsisf.c.obj) []
LOAD D:\4.0.3\lib\clang\4.0.3\lib\baremetal/libclang_rt.builtins-armv7m.a(floatunsidf.c.obj) []
LOAD D:\4.0.3\lib\clang\4.0.3\lib\baremetal/libclang_rt.builtins-armv7m.a(floatunsisf.c.obj) []
LOAD D:\4.0.3\lib\clang\4.0.3\lib\baremetal/libclang_rt.builtins-armv7m.a(muldf3.c.obj) []
LOAD D:\4.0.3\lib\clang\4.0.3\lib\baremetal/libclang_rt.builtins-armv7m.a(mulsf3.c.obj) []
LOAD D:\4.0.3\lib\clang\4.0.3\lib\baremetal/libclang_rt.builtins-armv7m.a(subsf3.c.obj) []
LOAD D:\4.0.3\lib\clang\4.0.3\lib\baremetal/libclang_rt.builtins-armv7m.a(udivmoddi4.c.obj) []
END GROUP

Linker scripts used (including INCLUDE command)
sdk\ld\quectel_dam_demo.ld

ER_RO	0x43000000	0x41ef4 # Offset: 0x60, LMA: 0x43000000
	Image$$ER_RO$$Base(0x43000000) = .( 0x43000000 );
*txm_module_preamble_llvm.o(.text .text.* )
*txm_module_preamble_llvm.o(Init )
Init	0x43000000	0x80	D:\Smart-heart-rate-dector\Smart-heart-rate-dector\objs\txm_module_preamble_llvm.o	#SHT_PROGBITS,SHF_ALLOC|SHF_EXECINSTR,4
	0x43000000		.CODE32
	0x43000000		_txm_module_preamble
*txm_module_preamble_llvm.o(.rodata .rodata.* )
KEEP (*(.text .text.* ))
.text	0x43000080	0xbc	D:\Smart-heart-rate-dector\Smart-heart-rate-dector\objs\adc.o	#SHT_PROGBITS,SHF_ALLOC|SHF_EXECINSTR,4
	0x43000080		$a.0
	0x43000080		adc_open_handle
	0x430000d0		$d.1
	0x430000d4		$a.2
	0x430000d4		adc_get_properties
	0x43000134		$d.3
.text	0x4300013c	0x47c	D:\Smart-heart-rate-dector\Smart-heart-rate-dector\objs\common.o	#SHT_PROGBITS,SHF_ALLOC|SHF_EXECINSTR,4
	0x4300013c		$a.0
	0x4300013c		gizProtocolSum
	0x43000178		exchangeBytes
	0x43000180		exchangeWord
	0x43000188		char2hex
	0x4300021c		checkStringIsNotZero
	0x43000274		checkStringIsZero
	0x430002cc		returnWeekDay
	0x4300034c		returnNtp2Wt
	0x43000488		$d.1
	0x43000498		$a.2
	0x43000498		isleap
	0x430004dc		str2Hex
	0x43000558		hex2Str
.text	0x430005b8	0x39c	D:\Smart-heart-rate-dector\Smart-heart-rate-dector\objs\dataPointTools.o	#SHT_PROGBITS,SHF_ALLOC|SHF_EXECINSTR,4
	0x430005b8		$a.0
	0x430005b8		gizByteOrderExchange
	0x43000610		gizY2X
	0x4300061c		gizX2Y
	0x43000624		gizY2XFloat
	0x43000648		gizX2YFloat
	0x43000674		gizAcrossByteJudge
	0x430006a8		gizVarlenCompressValue
	0x4300072c		gizVarlenDecompressionValue
	0x430007fc		gizStandardDecompressionValue
	0x430008cc		gizStandardCompressValue
.text	0x43000954	0x198	D:\Smart-heart-rate-dector\Smart-heart-rate-dector\objs\gizwits_product.o	#SHT_PROGBITS,SHF_ALLOC|SHF_EXECINSTR,4
	0x43000954		$a.0
	0x43000954		gizwitsEventProcess
	0x430009b4		$d.1
	0x430009ec		$a.2
	0x43000a9c		$d.3
	0x43000ac8		$a.4
	0x43000ac8		userHandle
	0x43000acc		userInit
	0x43000ae8		$d.5
.text	0x43000aec	0x1324	D:\Smart-heart-rate-dector\Smart-heart-rate-dector\objs\gizwits_protocol.o	#SHT_PROGBITS,SHF_ALLOC|SHF_EXECINSTR,4
	0x43000aec		$a.0
	0x43000aec		setConnectM2MStatus
	0x43000b00		$d.1
	0x43000b08		$a.2
	0x43000b08		getConnectM2MStatus
	0x43000b28		$d.3
	0x43000b30		uploadDataCBFunc
	0x43000b30		$a.4
	0x43000b3c		$d.5
	0x43000b40		gizGetTimerCount
	0x43000b40		$a.6
	0x43000b64		$d.7
	0x43000b68		$a.8
	0x43000b68		gizWiFiStatus
	0x43000ee8		$d.9
	0x43000f28		$a.10
	0x43000f28		gizIssuedProcess
	0x43001168		$d.11
	0x43001188		$a.12
	0x43001188		gizDataPoints2ReportData
	0x43001334		$d.13
	0x43001340		$a.14
	0x43001340		gizwitsTask
	0x43001408		$d.15
	0x4300142c		$a.16
	0x4300142c		gizwitsHandle
	0x43001764		$d.17
	0x43001794		$a.18
	0x43001794		gizSendQueue
	0x430017e0		$d.19
	0x430017ec		$a.20
	0x430017ec		gizTimerFunc
	0x430018b4		$d.21
	0x430018c8		$a.22
	0x430018c8		gizwitsSetMode
	0x430018f0		gizwitsGetNTPTime
	0x43001900		gizwitsGetTimeStamp
	0x4300191c		gizwitsInit
	0x43001cb4		$d.23
	0x43001d60		$a.24
	0x43001d60		gizwitsPassthroughData
	0x43001e00		$d.25
.text	0x43001e10	0x35c	D:\Smart-heart-rate-dector\Smart-heart-rate-dector\objs\gpio.o	#SHT_PROGBITS,SHF_ALLOC|SHF_EXECINSTR,4
	0x43001e10		$a.0
	0x43001e10		led_gpio_config
	0x43001e64		$d.1
	0x43001e6c		$a.2
	0x43001e6c		gpio_config
	0x43001fc8		$d.3
	0x43001fe4		$a.4
	0x43001fe4		motor_gpio_config
	0x43002010		$d.5
	0x43002018		$a.6
	0x43002018		set_gpio_value
	0x4300214c		$d.7
.text	0x4300216c	0x1c4	D:\Smart-heart-rate-dector\Smart-heart-rate-dector\objs\main.o	#SHT_PROGBITS,SHF_ALLOC|SHF_EXECINSTR,4
	0x4300216c		$a.0
	0x4300216c		led_init
	0x43002184		$d.1
	0x43002188		$a.2
	0x43002188		motor_init
	0x430021a0		$d.3
	0x430021a4		$a.4
	0x430021a4		heartrate_init
	0x430021bc		$d.5
	0x430021c0		$a.6
	0x430021c0		motion_init
	0x430021c8		$d.7
	0x430021cc		$a.8
	0x430021cc		pressure_init
	0x430021d4		$d.9
	0x430021d8		$a.10
	0x430021d8		userTimerCB
	0x43002254		$d.11
	0x43002268		$a.12
	0x43002268		sensorInit
	0x43002300		$d.13
	0x43002318		$a.14
	0x43002318		gagentMain
.text	0x43002330	0x38c	D:\Smart-heart-rate-dector\Smart-heart-rate-dector\objs\plusensor.o	#SHT_PROGBITS,SHF_ALLOC|SHF_EXECINSTR,4
	0x43002330		$a.0
	0x43002330		Pulsesensor_init
	0x43002388		$d.1
	0x43002398		$a.2
	0x43002398		getHeartRateValue
	0x43002684		$d.3
.text	0x430026bc	0x88	D:\Smart-heart-rate-dector\Smart-heart-rate-dector\objs\quectel_utils.o	#SHT_PROGBITS,SHF_ALLOC|SHF_EXECINSTR,4
	0x430026bc		$a.0
	0x430026bc		quectel_format_log_msg
	0x43002740		$d.1
.text	0x43002744	0x288	D:\Smart-heart-rate-dector\Smart-heart-rate-dector\objs\ringbuffer.o	#SHT_PROGBITS,SHF_ALLOC|SHF_EXECINSTR,4
	0x43002744		$a.0
	0x43002744		rbCreate
	0x4300276c		rbDelete
	0x43002798		rbCapacity
	0x430027a8		rbCanRead
	0x430027e8		rbCanWrite
	0x43002814		rbRead
	0x430028ec		rbWrite
.text	0x430029cc	0x6f8	D:\Smart-heart-rate-dector\Smart-heart-rate-dector\gagent\libgagent.a(gagentThread.o)	#SHT_PROGBITS,SHF_ALLOC|SHF_EXECINSTR,4
	0x430029cc		$a.0
	0x430029cc		groudEntryInit
	0x43002a8c		$d.1
	0x43002ab4		$a.2
	0x43002ab4		gatStartgagentThread
	0x43002b80		$d.3
	0x43002ba0		$a.4
	0x43002ba0		groudEvent
	0x43002c0c		$d.5
	0x43002c24		$a.6
	0x43002c24		Initialize_Thread_Demo
	0x43002d1c		$d.7
	0x43002d44		$a.8
	0x43002d44		gagentThread
	0x43002d68		gagent_dam_app_start
	0x43002f38		$d.9
	0x43002f78		$a.10
	0x43002f78		gatMainThread
	0x43003070		$d.11
	0x4300308c		$a.12
	0x4300308c		sensor_dam_app_start
	0x430030a8		quectel_task_entry
.text	0x430030c4	0x498	D:\Smart-heart-rate-dector\Smart-heart-rate-dector\gagent\libgagent.a(iofdev.o)	#SHT_PROGBITS,SHF_ALLOC|SHF_EXECINSTR,4
	0x430030c4		$a.0
	0x430030c4		__stack_chk_fail
	0x430030c8		iofPrintf
	0x43003168		$d.1
	0x43003174		$a.2
	0x43003174		devRestart
	0x43003230		$d.3
	0x43003248		$a.4
	0x43003248		devlogLock
	0x43003258		$d.5
	0x4300325c		$a.6
	0x4300325c		devlogUnLock
	0x4300326c		$d.7
	0x43003270		$a.8
	0x43003270		iofGatAuthKeyRead
	0x430033b8		$d.9
	0x430033dc		$a.10
	0x430033dc		dev_free_heap_size
	0x430033e0		devOtaUpgrade
	0x4300351c		$d.11
	0x43003540		$a.12
	0x43003540		devlogLockInit
	0x43003550		$d.13
	0x43003558		$a.14
	0x43003558		devDisplayTime
.text	0x4300355c	0x3a4	D:\Smart-heart-rate-dector\Smart-heart-rate-dector\gagent\libgagent.a(iofipc.o)	#SHT_PROGBITS,SHF_ALLOC|SHF_EXECINSTR,4
	0x4300355c		$a.0
	0x4300355c		iofMsgCreat
	0x43003684		$d.1
	0x430036a4		$a.2
	0x430036a4		iofSendSig
	0x43003750		$d.3
	0x4300376c		$a.4
	0x4300376c		iofRecSig
	0x43003814		$d.5
	0x4300382c		$a.6
	0x4300382c		iofLockInit
	0x4300389c		$d.7
	0x430038b0		$a.8
	0x430038b0		devLock
	0x430038d8		devUnLock
.text	0x43003900	0x588	D:\Smart-heart-rate-dector\Smart-heart-rate-dector\gagent\libgagent.a(iofpthread.o)	#SHT_PROGBITS,SHF_ALLOC|SHF_EXECINSTR,4
	0x43003900		$a.0
	0x43003900		iofTcpDataSendThread
	0x43003918		$d.1
	0x4300391c		$a.2
	0x4300391c		iofTcpDataRecThread
	0x43003934		$d.3
	0x43003938		iofUdpSendThread
	0x43003938		$a.4
	0x4300394c		$d.5
	0x43003950		iofUdpRecThread
	0x43003950		$a.6
	0x43003964		$d.7
	0x43003968		iofSerialSendThread
	0x43003968		$a.8
	0x43003980		$d.9
	0x43003984		$a.10
	0x43003984		iofSerialRecThread
	0x4300399c		$d.11
	0x430039a0		$a.12
	0x430039a0		iofNetDnsThread
	0x430039b8		$d.13
	0x430039bc		iofNetActiveThread
	0x430039bc		$a.14
	0x430039d4		$d.15
	0x430039d8		iofTaskProcessThread
	0x430039d8		$a.16
	0x43003a10		$d.17
	0x43003a14		iofPthreadCreate
	0x43003a14		$a.18
	0x43003c48		$d.19
	0x43003c70		$a.20
	0x43003c70		iofPthreadNameSet
	0x43003cf0		$d.21
	0x43003d04		$a.22
	0x43003d04		iofStartAllThread
	0x43003e3c		$d.23
	0x43003e60		$a.24
	0x43003e60		iofThreadEnable
	0x43003e6c		$d.25
	0x43003e70		$a.26
	0x43003e70		iofTcpServerThread
	0x43003e84		$d.27
.text	0x43003e88	0x7a0	D:\Smart-heart-rate-dector\Smart-heart-rate-dector\gagent\libgagent.a(iofstring.o)	#SHT_PROGBITS,SHF_ALLOC|SHF_EXECINSTR,4
	0x43003e88		$a.0
	0x43003e88		strnstr
	0x43003f2c		devMalloc
	0x43004038		$d.1
	0x43004050		$a.2
	0x43004050		objMalloc
	0x43004164		$d.3
	0x4300417c		$a.4
	0x4300417c		objFree
	0x43004210		$d.5
	0x43004220		$a.6
	0x43004220		getFreeHeap
	0x43004264		$d.7
	0x43004268		$a.8
	0x43004268		iofStrstri
	0x430042c8		my_atoi
	0x4300442c		$d.9
	0x4300443c		$a.10
	0x4300443c		gatAtoi
	0x430044fc		$d.11
	0x43004510		$a.12
	0x43004510		gatStrtoul
.text	0x43004628	0x11bc	D:\Smart-heart-rate-dector\Smart-heart-rate-dector\gagent\libgagent.a(local.o)	#SHT_PROGBITS,SHF_ALLOC|SHF_EXECINSTR,4
	0x43004628		$a.0
	0x43004628		gatAuthCbFun
	0x4300464c		gatLocalInit
	0x430048e0		$d.1
	0x43004914		$a.2
	0x43004914		gatLocalSendStatus
	0x43004adc		$d.3
	0x43004afc		$a.4
	0x43004afc		gagentInit
	0x430051a0		$d.5
	0x43005228		$a.6
	0x43005228		gatLocalStatusSync
	0x430052a4		$d.7
	0x430052b8		$a.8
	0x430052b8		gagentConfig
	0x430052bc		gagentReset
	0x430052d0		GAgentEnableBind
	0x430052e4		gagentGetNTP
	0x43005314		gatAppData2Local
	0x430056b8		$d.9
	0x430056f0		$a.10
	0x430056f0		GAgentInfoGet
	0x4300571c		$d.11
	0x4300572c		$a.12
	0x430057cc		$d.13
.text	0x430057e4	0xe54	D:\Smart-heart-rate-dector\Smart-heart-rate-dector\gagent\libgagent.a(localcomm.o)	#SHT_PROGBITS,SHF_ALLOC|SHF_EXECINSTR,4
	0x430057e4		$a.0
	0x430057e4		gatGetMcuInfo
	0x430057ec		$d.1
	0x430057f0		$a.2
	0x430057f0		gatEnableBindStart
	0x430058e0		$d.3
	0x43005908		$a.4
	0x43005908		gatEnableBindTimeOut
	0x43005978		$d.5
	0x43005990		gatFactoryMode
	0x43005990		$a.6
	0x43005a14		$d.7
	0x43005a28		gatLocalModuleCheck
	0x43005a28		$a.8
	0x43005d5c		$d.9
	0x43005d9c		$a.10
	0x43005d9c		gatEnterTest
	0x43005dfc		$d.11
	0x43005e10		$a.12
	0x43005e10		gatLocalGAgentRestart
	0x43005e74		$d.13
	0x43005e88		$a.14
	0x43005e88		gatCheckSum
	0x43005eb4		isAckCmd
	0x43005f10		$d.15
	0x43005f18		$a.16
	0x43005f18		isNeed2AckdCmd
	0x43005f64		$d.17
	0x43006008		gatLocalErrHandleAckTimeOut
	0x43006008		$a.18
	0x43006064		$d.19
	0x43006078		$a.20
	0x43006078		gatLocalErrHandle
	0x4300617c		$d.21
	0x43006198		$a.22
	0x43006198		gatLocalHandle
	0x430064ac		$d.23
	0x430064e0		$a.24
	0x430064e0		gatLocalSignalCheckTick
	0x430065c0		$d.25
	0x430065dc		$a.26
	0x430065dc		gatLocalSignalTickStart
	0x43006608		$d.27
	0x43006614		$a.28
	0x43006614		gatLocalSignalTickClose
	0x43006634		$d.29
.text	0x43006638	0x192c	D:\Smart-heart-rate-dector\Smart-heart-rate-dector\gagent\libgagent.a(localio.o)	#SHT_PROGBITS,SHF_ALLOC|SHF_EXECINSTR,4
	0x43006638		$a.0
	0x43006638		localFdGet
	0x43006644		$d.1
	0x43006648		localSemIdGet
	0x43006648		$a.2
	0x43006654		$d.3
	0x43006658		localRecvListGet
	0x43006658		$a.4
	0x43006664		$d.5
	0x43006668		localChannelNodeGet
	0x43006668		$a.6
	0x430066e4		$d.7
	0x430066ec		$a.8
	0x430066ec		localChanelListGet
	0x430066f8		$d.9
	0x430066fc		$a.10
	0x430066fc		localSendListGet
	0x43006708		$d.11
	0x4300670c		$a.12
	0x4300670c		localRecCbFunGet
	0x43006748		$d.13
	0x4300674c		$a.14
	0x4300674c		gatLocalioInit
	0x43006984		$d.15
	0x430069c4		$a.16
	0x430069c4		localRecDataCb
	0x430072fc		$d.17
	0x43007344		gatLocalSendDataUseTime
	0x43007344		$a.18
	0x43007358		gatLocalSend
	0x430076a4		$d.19
	0x430076d8		gatSerialSendHandle
	0x430076d8		$a.20
	0x43007ae0		$d.21
	0x43007b1c		gatSerialRecHandle
	0x43007b1c		$a.22
	0x43007cd0		$d.23
	0x43007cf8		gatLocalRecTimerOutHandle
	0x43007cf8		$a.24
	0x43007f44		$d.25
.text	0x43007f64	0x814	D:\Smart-heart-rate-dector\Smart-heart-rate-dector\gagent\libgagent.a(localprotocol.o)	#SHT_PROGBITS,SHF_ALLOC|SHF_EXECINSTR,4
	0x43007f64		$a.0
	0x43007f64		localWrite
	0x43008364		$d.1
	0x4300839c		$a.2
	0x4300839c		localWriteP0
	0x430083e8		$d.3
	0x430083ec		$a.4
	0x430083ec		localWriteAck
	0x43008418		localWriteAckDirect
	0x430084a0		localExtractPacket
	0x43008564		$d.5
	0x43008574		$a.6
	0x43008760		$d.7
.text	0x43008778	0x1190	D:\Smart-heart-rate-dector\Smart-heart-rate-dector\gagent\libgagent.a(nwk_manage.o)	#SHT_PROGBITS,SHF_ALLOC|SHF_EXECINSTR,4
	0x43008778		$a.0
	0x43008778		nwkHalStatusGet
	0x43008784		$d.1
	0x43008788		$a.2
	0x43008788		gatNwkInit
	0x4300880c		$d.3
	0x43008824		$a.4
	0x43008824		gatNwkevtCbRegister
	0x43008924		$d.5
	0x43008940		$a.6
	0x43008940		gatSetNwkEvent
	0x43009680		$d.7
	0x43009744		$a.8
	0x43009744		nwkSetHalStatus
	0x43009758		$d.9
	0x4300975c		$a.10
	0x4300975c		nwkResetHalStatus
	0x43009770		$d.11
	0x43009774		$a.12
	0x43009774		gatNwkEventHandle
	0x430098e8		$d.13
.text	0x43009908	0x2a60	D:\Smart-heart-rate-dector\Smart-heart-rate-dector\gagent\libgagent.a(productinfo.o)	#SHT_PROGBITS,SHF_ALLOC|SHF_EXECINSTR,4
	0x43009908		$a.0
	0x43009908		gatProductInfoUpdateFromEnv
	0x4300a1cc		$d.1
	0x4300a240		$a.2
	0x4300a240		gatCreatNewPassCode
	0x4300a2f4		$d.3
	0x4300a308		$a.4
	0x4300a308		gatConfigInfoSaveToEnv
	0x4300a574		$d.5
	0x4300a5a0		gatDumpEnvInfo
	0x4300a5a0		$a.6
	0x4300a998		$d.7
	0x4300a9e0		dumpPruductInfo
	0x4300a9e0		$a.8
	0x4300b0c8		$d.9
	0x4300b140		$a.10
	0x4300b140		gatProductDefaultInfoGet
	0x4300b148		$d.11
	0x4300b14c		$a.12
	0x4300b14c		gatProductInfoGet
	0x4300b184		$d.13
	0x4300b190		$a.14
	0x4300b190		gatProductConfiInfoSave
	0x4300b23c		$d.15
	0x4300b254		$a.16
	0x4300b254		gatProductInfoInit
	0x4300b318		$d.17
	0x4300b338		$a.18
	0x4300b338		gatProductDefaultInfoInit
	0x4300b80c		$d.19
	0x4300b860		gatProductInfoSetGServerIp
	0x4300b860		$a.20
	0x4300b8f8		$d.21
	0x4300b910		gatTimeZoneSecSet
	0x4300b910		$a.22
	0x4300b990		$d.23
	0x4300b9ac		$a.24
	0x4300b9ac		gatTimeZoneSecGet
	0x4300b9b8		$d.25
	0x4300b9bc		gatGprsApnSet
	0x4300b9bc		$a.26
	0x4300ba8c		$d.27
	0x4300baa4		gatGServerDoMainSet
	0x4300baa4		$a.28
	0x4300bb1c		$d.29
	0x4300bb24		gatConfigFlagSet
	0x4300bb24		$a.30
	0x4300bba0		$d.31
	0x4300bbbc		$a.32
	0x4300bbbc		gatSaveRebootReason
	0x4300bc34		$d.33
	0x4300bc50		$a.34
	0x4300bc50		gatLocalProductDefaultInfoSet
	0x4300bf94		$d.35
	0x4300bfc8		$a.36
	0x4300bfc8		gatProductDefaultInfoSet
	0x4300c318		$d.37
.text	0x4300c368	0x5ac	D:\Smart-heart-rate-dector\Smart-heart-rate-dector\gagent\libgagent.a(qlog.o)	#SHT_PROGBITS,SHF_ALLOC|SHF_EXECINSTR,4
	0x4300c368		$a.0
	0x4300c368		uart_recv
	0x4300c3f4		$d.1
	0x4300c3fc		$a.2
	0x4300c3fc		format_log_msg
	0x4300c4a0		$d.3
	0x4300c4a8		$a.4
	0x4300c4a8		uart_init
	0x4300c5e4		$d.5
	0x4300c608		$a.6
	0x4300c608		uart_rx_cb
	0x4300c6a4		$d.7
	0x4300c6ac		$a.8
	0x4300c6ac		uart_tx_cb
	0x4300c714		$d.9
	0x4300c71c		$a.10
	0x4300c71c		qapi_uart_tx_user_cb_dispatcher
	0x4300c73c		qapi_uart_rx_user_cb_dispatcher
	0x4300c75c		uart_print
	0x4300c7e8		$d.11
	0x4300c7f4		$a.12
	0x4300c7f4		qc_dbg_uart_init
	0x4300c848		$d.13
	0x4300c854		$a.14
	0x4300c854		qc_uart_dbg
	0x4300c90c		$d.15
.text	0x4300c914	0x348	D:\Smart-heart-rate-dector\Smart-heart-rate-dector\gagent\libgagent.a(semaph.o)	#SHT_PROGBITS,SHF_ALLOC|SHF_EXECINSTR,4
	0x4300c914		$a.0
	0x4300c914		semP
	0x4300c91c		semOp
	0x4300c968		$d.1
	0x4300c96c		$a.2
	0x4300c96c		semV
	0x4300c974		iofSemInit
	0x4300ca90		$d.3
	0x4300cab0		$a.4
	0x4300cab0		localTrigSend
	0x4300cb60		$d.5
	0x4300cb74		$a.6
	0x4300cb74		tcpTrigSend
	0x4300cbd8		$d.7
	0x4300cbe8		$a.8
	0x4300cbe8		udpTrigSend
	0x4300cc4c		$d.9
.text	0x4300cc5c	0xe14	D:\Smart-heart-rate-dector\Smart-heart-rate-dector\gagent\libgagent.a(simulatorcomm.o)	#SHT_PROGBITS,SHF_ALLOC|SHF_EXECINSTR,4
	0x4300cc5c		$a.0
	0x4300cc5c		simulatorUploadDtatTimeOutCb
	0x4300cd34		$d.1
	0x4300cd50		$a.2
	0x4300cd50		gagentUploadData
	0x4300d5c0		$d.3
	0x4300d62c		$a.4
	0x4300d62c		simulatorUploadDtatCb
	0x4300d7e0		$d.5
	0x4300d804		$a.6
	0x4300d804		gatSimulatorInit
	0x4300d834		$d.7
	0x4300d83c		$a.8
	0x4300d9d4		$d.9
	0x4300d9fc		$a.10
	0x4300da5c		$d.11
.text	0x4300da70	0x244c	D:\Smart-heart-rate-dector\Smart-heart-rate-dector\gagent\libgagent.a(tcp.o)	#SHT_PROGBITS,SHF_ALLOC|SHF_EXECINSTR,4
	0x4300da70		$a.0
	0x4300da70		gatTcpInit
	0x4300db3c		$d.1
	0x4300db60		$a.2
	0x4300db60		gatTcpDataSendHandle
	0x4300dbc4		$d.3
	0x4300dbd8		gatTcpSendTask
	0x4300dbd8		$a.4
	0x4300e1dc		$d.5
	0x4300e220		gatTcpReceiveHandle
	0x4300e220		$a.6
	0x4300e534		$d.7
	0x4300e560		gatTcpRecvDispatch
	0x4300e560		$a.8
	0x4300e6c8		$d.9
	0x4300e6e8		$a.10
	0x4300e6e8		gatTcpDelChNode
	0x4300e988		$d.11
	0x4300e9b8		$a.12
	0x4300e9b8		gatTcpListenAdd
	0x4300eba8		$d.13
	0x4300ebd0		$a.14
	0x4300ebd0		gatTcpReadRecData
	0x4300ed88		$d.15
	0x4300eda4		$a.16
	0x4300eda4		gatTcpRecv
	0x4300f360		$d.17
	0x4300f3b0		$a.18
	0x4300f3b0		gatDelTcpSendNode
	0x4300f588		$d.19
	0x4300f5a8		$a.20
	0x4300f5a8		tcpRecHandle
	0x4300f63c		$d.21
	0x4300f64c		gatDelTcpDataNode
	0x4300f64c		$a.22
	0x4300f7b4		$d.23
	0x4300f7d0		$a.24
	0x4300f7d0		gatTcpSend
	0x4300fb48		$d.25
	0x4300fb80		$a.26
	0x4300fb80		sktConnHandle
	0x4300fbfc		$d.27
	0x4300fc0c		$a.28
	0x4300fc0c		tcpSendCBHandle
	0x4300fe78		$d.29
	0x4300fea0		gatTcpClrChNode
	0x4300fea0		$a.30
.text	0x4300febc	0xb0c	D:\Smart-heart-rate-dector\Smart-heart-rate-dector\gagent\libgagent.a(timer_subsystem.o)	#SHT_PROGBITS,SHF_ALLOC|SHF_EXECINSTR,4
	0x4300febc		$a.0
	0x4300febc		gatTimerCoreInit
	0x4300ff38		$d.1
	0x4300ff54		$a.2
	0x4300ff54		gatTimerAdd
	0x43010240		$d.3
	0x4301026c		$a.4
	0x4301026c		timerRemove
	0x4301028c		$d.5
	0x43010290		$a.6
	0x43010290		timerUpdataExpire
	0x4301031c		$d.7
	0x43010330		$a.8
	0x43010330		gatTimerDel
	0x43010480		$d.9
	0x430104a0		$a.10
	0x430104a0		gatTimerTick
	0x4301059c		$d.11
	0x430105b4		$a.12
	0x430105b4		gatTimerHandle
	0x430107cc		$d.13
	0x430107f4		$a.14
	0x430107f4		gatTimerTraversal
	0x430109a0		$d.15
.text	0x430109c8	0xf04	D:\Smart-heart-rate-dector\Smart-heart-rate-dector\gagent\libgagent.a(aes.o)	#SHT_PROGBITS,SHF_ALLOC|SHF_EXECINSTR,4
	0x430109c8		$a.0
	0x430109c8		gadd
	0x430109d0		gsub
	0x430109d8		gmult
	0x43010a2c		coef_add
	0x43010a70		coef_mult
	0x43010b98		invSboxInit
	0x43010bd8		$d.1
	0x43010be0		$a.2
	0x43010be0		aesInit
	0x43010c20		$d.3
	0x43010c28		$a.4
	0x43010c28		aesDestroy
	0x43010d58		$d.5
	0x43010d74		$a.6
	0x43010d74		Rcon
	0x43010dc8		$d.7
	0x43010dcc		$a.8
	0x43010dcc		add_round_key
	0x43010e44		mix_columns
	0x43010edc		$d.9
	0x43010ee0		$a.10
	0x43010ee0		inv_mix_columns
	0x43010f78		$d.11
	0x43010f7c		$a.12
	0x43010f7c		shift_rows
	0x43010ff0		inv_shift_rows
	0x43011060		sub_bytes
	0x430110b4		$d.13
	0x430110b8		$a.14
	0x430110b8		inv_sub_bytes
	0x4301110c		$d.15
	0x43011110		$a.16
	0x43011110		sub_word
	0x4301113c		$d.17
	0x43011140		$a.18
	0x43011140		rot_word
	0x43011170		key_expansion
	0x43011298		$d.19
	0x4301129c		cipher
	0x4301129c		$a.20
	0x430113a0		inv_cipher
	0x430114a4		aesECB128Encrypt
	0x430115f4		$d.21
	0x4301160c		$a.22
	0x4301160c		aesECB128Decrypt
	0x43011778		$d.23
	0x43011790		$a.24
	0x43011790		aesECB128DecryptRaw
	0x430118b4		$d.25
.text	0x430118cc	0x1018	D:\Smart-heart-rate-dector\Smart-heart-rate-dector\gagent\libgagent.a(aesdata.o)	#SHT_PROGBITS,SHF_ALLOC|SHF_EXECINSTR,4
	0x430118cc		$a.0
	0x430118cc		sboxAssign
	0x430120d8		invSboxAssign
.text	0x430128e4	0xf04	D:\Smart-heart-rate-dector\Smart-heart-rate-dector\gagent\libgagent.a(authorization.o)	#SHT_PROGBITS,SHF_ALLOC|SHF_EXECINSTR,4
	0x430128e4		$a.0
	0x430128e4		gatAuthkeyGet
	0x43012a50		$d.1
	0x43012a68		$a.2
	0x43012a68		gatRecAuthKey
	0x43013060		$d.3
	0x430130b0		$a.4
	0x430130b0		gatGetAuthReqAck
	0x430132bc		$d.5
	0x430132fc		$a.6
	0x430132fc		gatWaitAuthKeyTimer
	0x430133c8		$d.7
	0x430133e4		$a.8
	0x430133e4		gatAuthInit
	0x430136d0		$d.9
	0x43013708		$a.10
	0x43013708		gatReqAuthKeyTimeOut
	0x430137cc		$d.11
.text	0x430137e8	0x400	D:\Smart-heart-rate-dector\Smart-heart-rate-dector\gagent\libgagent.a(dp.o)	#SHT_PROGBITS,SHF_ALLOC|SHF_EXECINSTR,4
	0x430137e8		$a.0
	0x430137e8		isInCurMode
	0x430137fc		$d.1
	0x43013800		$a.2
	0x43013800		getCurMode
	0x4301380c		$d.3
	0x43013810		$a.4
	0x43013810		gatSetCurMode
	0x43013828		$d.5
	0x4301382c		$a.6
	0x4301382c		gatResetCurMode
	0x43013844		$d.7
	0x43013848		$a.8
	0x43013848		getDpEntry
	0x4301392c		$d.9
	0x43013944		$a.10
	0x43013944		dpTrans
	0x43013bb8		$d.11
.text	0x43013be8	0x874	D:\Smart-heart-rate-dector\Smart-heart-rate-dector\gagent\libgagent.a(env.o)	#SHT_PROGBITS,SHF_ALLOC|SHF_EXECINSTR,4
	0x43013be8		$a.0
	0x43013be8		getEnvErase
	0x43013cd0		$d.1
	0x43013cec		$a.2
	0x43013cec		gatEnvWrite
	0x43014268		$d.3
	0x430142b0		$a.4
	0x430142b0		gatEnvRead
	0x4301443c		$d.5
.text	0x4301445c	0x260c	D:\Smart-heart-rate-dector\Smart-heart-rate-dector\gagent\libgagent.a(gagent.o)	#SHT_PROGBITS,SHF_ALLOC|SHF_EXECINSTR,4
	0x4301445c		$a.0
	0x4301445c		gatReBootTimerStart
	0x430144f0		$d.1
	0x43014510		gagentRebootTimer
	0x43014510		$a.2
	0x43014584		$d.3
	0x43014598		$a.4
	0x43014598		gatSetSoftVer
	0x43014610		$d.5
	0x43014628		$a.6
	0x43014628		gatGetSoftVer
	0x4301468c		$d.7
	0x430146a4		gatMsgId
	0x430146a4		$a.8
	0x430146b0		$d.9
	0x430146b4		$a.10
	0x430146b4		gagentReBootHandle
	0x43014710		$d.11
	0x43014724		$a.12
	0x43014724		gatReBoot
	0x43014784		$d.13
	0x430147b8		$a.14
	0x4301489c		$d.15
	0x430148ec		$a.16
	0x430148ec		gatDealUserPayload90
	0x43014b30		$d.17
	0x43014b54		gatDataRecCb
	0x43014b54		$a.18
	0x43014d18		$d.19
	0x43014d40		gatDealUserPayload93
	0x43014d40		$a.20
	0x43015590		$d.21
	0x430155dc		gatTaskHandle
	0x430155dc		$a.22
	0x43015744		$d.23
	0x43015784		$a.24
	0x43015a58		$d.25
	0x43015aa4		$a.26
	0x43015aa4		gatStatusGet
	0x43015ab0		$d.27
	0x43015ab4		$a.28
	0x43015ab4		gatStatusSet
	0x43015ba0		$d.29
	0x43015bbc		$a.30
	0x43015bbc		gatRunTimeDataGet
	0x43015bc4		$d.31
	0x43015bc8		gatNtpTimeUpData
	0x43015bc8		$a.32
	0x43015bdc		$d.33
	0x43015be0		gatCleanConfigData
	0x43015be0		$a.34
	0x43015ea0		$d.35
	0x43015ecc		gatDataSend
	0x43015ecc		$a.36
	0x430164d4		$d.37
	0x43016524		gatDataSendCb
	0x43016524		$a.38
	0x430167fc		$d.39
	0x43016838		$a.40
	0x43016838		gatRunTimeDataInit
	0x430168f4		$d.41
	0x43016910		$a.42
	0x43016910		gatInit
	0x43016a08		$d.43
	0x43016a30		$a.44
	0x43016a30		printfGod
	0x43016a60		$d.45
.text	0x43016a68	0xac	D:\Smart-heart-rate-dector\Smart-heart-rate-dector\gagent\libgagent.a(gatlist.o)	#SHT_PROGBITS,SHF_ALLOC|SHF_EXECINSTR,4
	0x43016a68		$a.0
	0x43016a68		gatListHeadInit
	0x43016a74		__gatListAdd
	0x43016a84		gatListAdd
	0x43016a98		gatListAddTail
	0x43016ab0		__gatListDel
	0x43016abc		gatListDel
	0x43016ad4		gatListEmpty
	0x43016aec		gatListEmptyCareful
.text	0x43016b14	0x2648	D:\Smart-heart-rate-dector\Smart-heart-rate-dector\gagent\libgagent.a(gatm2m.o)	#SHT_PROGBITS,SHF_ALLOC|SHF_EXECINSTR,4
	0x43016b14		$a.0
	0x43016b14		m2mInfoGet
	0x43016b1c		$d.1
	0x43016b20		$a.2
	0x43016b20		m2mInfoSet
	0x43016dc8		$d.3
	0x43016dfc		$a.4
	0x43016dfc		m2mSktRecCb
	0x43016f2c		$d.5
	0x43016f4c		m2mSktConnCb
	0x43016f4c		$a.6
	0x430171d0		$d.7
	0x4301720c		$a.8
	0x4301720c		m2mSend
	0x43017374		$d.9
	0x43017398		$a.10
	0x43017398		gatM2MReStartServerTimeOut
	0x430173b0		m2mSocketErrHandle
	0x430173cc		$d.11
	0x430173d0		$a.12
	0x430173d0		m2mSktDisConnCb
	0x430173d4		gatGetM2MDomain
	0x430173e0		$d.13
	0x430173e4		$a.14
	0x430173e4		gatSetM2MDomain
	0x43017460		$d.15
	0x43017478		$a.16
	0x43017478		gatGetM2MPort
	0x43017484		$d.17
	0x43017488		$a.18
	0x43017488		gatSetM2MPort
	0x430174f8		$d.19
	0x43017510		$a.20
	0x43017510		gatM2MSocketConnect
	0x43017614		$d.21
	0x4301762c		$a.22
	0x4301762c		onM2MLoginCb
	0x43017814		$d.23
	0x4301783c		$a.24
	0x4301783c		onM2MSubTopicCb
	0x43017958		$d.25
	0x43017978		$a.26
	0x43017978		onM2MUserDataRecCb
	0x43017c58		$d.27
	0x43017c88		$a.28
	0x43017c88		onM2MHeartBeatCb
	0x43017ce4		$d.29
	0x43017cf8		$a.30
	0x43017cf8		onAppOnLineNumCb
	0x43017f90		$d.31
	0x43017fc8		$a.32
	0x43017fc8		onOTA41EventNoticCb
	0x4301844c		$d.33
	0x4301849c		onOTA4EventNoticCb
	0x4301849c		$a.34
	0x430184f4		$d.35
	0x43018508		cloudSendDataCb
	0x43018508		$a.36
	0x43018570		$d.37
	0x43018584		$a.38
	0x43018584		gatWanClinetNumGet
	0x43018590		$d.39
	0x43018594		gatM2MInit
	0x43018594		$a.40
	0x430185d4		$d.41
	0x430185dc		gatM2MHandleGatStatus
	0x430185dc		$a.42
	0x430186fc		$d.43
	0x43018718		$a.44
	0x43018718		gatM2MReInit
	0x430187a8		$d.45
	0x430187c0		gatM2MServerStart
	0x430187c0		$a.46
	0x43018870		$d.47
	0x43018894		gatm2mDnsCb
	0x43018894		$a.48
	0x43018998		$d.49
	0x430189b8		gatM2MServerStop
	0x430189b8		$a.50
	0x43018a40		$d.51
	0x43018a58		gatM2MReStartServer
	0x43018a58		$a.52
	0x43018b58		$d.53
	0x43018b7c		gatM2MStopReStartServer
	0x43018b7c		$a.54
	0x43018b8c		$d.55
	0x43018b90		$a.56
	0x43018b90		gatResCloudCtrl
	0x43018de0		$d.57
	0x43018e10		$a.58
	0x43018e10		gatM2MCommand
	0x43019124		$d.59
.text	0x4301915c	0x1d14	D:\Smart-heart-rate-dector\Smart-heart-rate-dector\gagent\libgagent.a(gatnet.o)	#SHT_PROGBITS,SHF_ALLOC|SHF_EXECINSTR,4
	0x4301915c		$a.0
	0x4301915c		gatNetConnParaGet
	0x43019164		$d.1
	0x43019168		$a.2
	0x43019168		gatRouterConnTimeout
	0x430193ec		$d.3
	0x4301941c		gatRouterUpdateInfo
	0x4301941c		$a.4
	0x430196a4		$d.5
	0x430196cc		gatNetEventHandle
	0x430196cc		$a.6
	0x43019768		$d.7
	0x43019788		$a.8
	0x43019788		gatNetExcepTimeout
	0x430197ec		$d.9
	0x43019800		$a.10
	0x43019800		gatNetInit
	0x43019b30		$d.11
	0x43019b70		$a.12
	0x43019b70		gatNetConfig
	0x43019c98		$d.13
	0x43019cbc		gatAirlinkCb
	0x43019cbc		$a.14
	0x43019e28		$d.15
	0x43019e44		gatConfigDataParse
	0x43019e44		$a.16
	0x4301a124		$d.17
	0x4301a218		$a.18
	0x4301a350		$d.19
	0x4301a360		$a.20
	0x4301a798		$d.21
	0x4301a804		gatEnterTestMode
	0x4301a804		$a.22
	0x4301a890		$d.23
	0x4301a8ac		$a.24
	0x4301a8ac		gatNetWriteConfig
	0x4301ac0c		$d.25
	0x4301ac38		$a.26
	0x4301ac38		gatTestModeTick
	0x4301ad48		$d.27
	0x4301ad6c		$a.28
	0x4301ad6c		gatExitTest
	0x4301ae58		$d.29
.text	0x4301ae70	0xb20	D:\Smart-heart-rate-dector\Smart-heart-rate-dector\gagent\libgagent.a(gatutilcode.o)	#SHT_PROGBITS,SHF_ALLOC|SHF_EXECINSTR,4
	0x4301ae70		$a.0
	0x4301ae70		getKeyValueCustom
	0x4301b05c		$d.1
	0x4301b070		$a.2
	0x4301b070		getKeyValue
	0x4301b078		iofToupper
	0x4301b08c		strToHex
	0x4301b124		hexToStr
	0x4301b178		$d.3
	0x4301b180		$a.4
	0x4301b180		gatIofInet_addr
	0x4301b2b0		isleap
	0x4301b2f4		get_yeardays
	0x4301b314		gatNtp2Wt
	0x4301b4b4		$d.5
	0x4301b4d0		$a.6
	0x4301b4d0		gatUpLoadDataCombine
	0x4301b854		$d.7
	0x4301b874		$a.8
	0x4301b874		adStrtoul
	0x4301b98c		encryptDisplay
.text	0x4301b990	0xab8	D:\Smart-heart-rate-dector\Smart-heart-rate-dector\gagent\libgagent.a(gdns.o)	#SHT_PROGBITS,SHF_ALLOC|SHF_EXECINSTR,4
	0x4301b990		$a.0
	0x4301b990		dnsDataDump
	0x4301bc40		$d.1
	0x4301bc74		$a.2
	0x4301bc74		gatGetHostByName
	0x4301be98		$d.3
	0x4301bebc		$a.4
	0x4301bebc		gatDnsTask
	0x4301bf7c		$d.5
	0x4301bf90		$a.6
	0x4301bf90		_dnsTick
	0x4301c0cc		$d.7
	0x4301c0e8		$a.8
	0x4301c0e8		_getDnsReqByName
	0x4301c160		$d.9
	0x4301c16c		$a.10
	0x4301c16c		_dnsResult
	0x4301c3e0		$d.11
	0x4301c414		$a.12
	0x4301c414		_dnsResultCb
.text	0x4301c448	0x3f68	D:\Smart-heart-rate-dector\Smart-heart-rate-dector\gagent\libgagent.a(gserver.o)	#SHT_PROGBITS,SHF_ALLOC|SHF_EXECINSTR,4
	0x4301c448		$a.0
	0x4301c448		Http_Decrypt_RES
	0x4301ca40		$d.1
	0x4301ca74		gatParsingGServerErrcode
	0x4301ca74		$a.2
	0x4301cb54		$d.3
	0x4301cb68		$a.4
	0x4301cb68		gatRegsiter
	0x4301da74		$d.5
	0x4301da78		$a.6
	0x4301dc88		$d.7
	0x4301dc9c		$a.8
	0x4301dd80		$d.9
	0x4301dd94		$a.10
	0x4301de64		$d.11
	0x4301de78		$a.12
	0x4301e084		$d.13
	0x4301e098		$a.14
	0x4301e0a8		$d.15
	0x4301e16c		$a.16
	0x4301e16c		gatProvision
	0x4301e404		$d.17
	0x4301e438		$a.18
	0x4301e438		gatProvisionRecCb
	0x4301ebe8		$d.19
	0x4301ec54		gatNormalDeviceDisable
	0x4301ec54		$a.20
	0x4301ee8c		$d.21
	0x4301eec4		$a.22
	0x4301eec4		gatDeviceDisableRecCb
	0x4301f2d0		$d.23
	0x4301f318		$a.24
	0x4301f318		gatGServerStart
	0x4301f6e8		$d.25
	0x4301f720		$a.26
	0x4301f720		gserverDnsCb
	0x4301f85c		$d.27
	0x4301f878		$a.28
	0x4301f878		gatRegsiterRecCb
	0x4301fe20		$d.29
	0x4301fe7c		$a.30
	0x4301fe7c		gatGServerInit
	0x4301fe88		$d.31
	0x4301fe8c		gatGServerHandleGatStatus
	0x4301fe8c		$a.32
	0x43020108		$d.33
	0x43020140		gatProvisionTimer
	0x43020140		$a.34
	0x43020154		gatRegsiterTimer
	0x430202a8		$d.35
	0x430202cc		gserverExcepTimeout
	0x430202cc		$a.36
	0x43020398		$d.37
.text	0x430203b0	0x300c	D:\Smart-heart-rate-dector\Smart-heart-rate-dector\gagent\libgagent.a(httpgat.o)	#SHT_PROGBITS,SHF_ALLOC|SHF_EXECINSTR,4
	0x430203b0		$a.0
	0x430203b0		gatHttpInit
	0x43020408		$d.1
	0x43020418		$a.2
	0x43020418		httpDelSendNode
	0x4302057c		$d.3
	0x43020598		httpDelRecNode
	0x43020598		$a.4
	0x43020788		$d.5
	0x430207a4		$a.6
	0x430207a4		httpRecCb
	0x4302178c		$d.7
	0x43021790		$a.8
	0x430217dc		$d.9
	0x43021800		$a.10
	0x43021970		$d.11
	0x43021974		$a.12
	0x430219a0		$d.13
	0x430219a8		$a.14
	0x43021b60		$d.15
	0x43021b64		$a.16
	0x43021c70		$d.17
	0x43021c74		$a.18
	0x43021d4c		$d.19
	0x43021d5c		$a.20
	0x43021eb0		$d.21
	0x43021f4c		$a.22
	0x43021f4c		gatHTTPRecvTick
	0x430220b0		$d.23
	0x430220cc		httpSendResult
	0x430220cc		$a.24
	0x4302210c		httpSigHandle
	0x430222dc		$d.25
	0x43022300		$a.26
	0x43022300		httpConnCb
	0x43022688		$d.27
	0x430226c8		$a.28
	0x430226c8		httpSendCb
	0x430228d4		$d.29
	0x430228f8		$a.30
	0x430228f8		gatHttpReq
	0x43022c30		$d.31
	0x43022c40		$a.32
	0x430230c0		$d.33
	0x43023118		$a.34
	0x43023118		httpParseRescode
	0x43023204		$d.35
	0x43023214		$a.36
	0x43023214		httpPostContextAdapter
	0x43023308		$d.37
	0x4302330c		$a.38
	0x4302330c		httpBodyUserCb
	0x430233b4		$d.39
.text	0x430233bc	0x101c	D:\Smart-heart-rate-dector\Smart-heart-rate-dector\gagent\libgagent.a(ioffile.o)	#SHT_PROGBITS,SHF_ALLOC|SHF_EXECINSTR,4
	0x430233bc		$a.0
	0x430233bc		iofFileOpen
	0x430235b0		$d.1
	0x430235d0		$a.2
	0x430235d0		fs_errorMsg
	0x43023658		$d.3
	0x43023698		$a.4
	0x430236a8		$d.5
	0x430236f8		$a.6
	0x430236f8		iofFileClose
	0x430237ac		$d.7
	0x430237c0		$a.8
	0x430237c0		iofFileRead
	0x43023920		$d.9
	0x4302393c		$a.10
	0x4302393c		iofFileWrite
	0x43023d70		$d.11
	0x43023d9c		$a.12
	0x43023d9c		iofFileErase
	0x43023ee8		$d.13
	0x43023f00		$a.14
	0x43023f00		iofFileProductInfoTransformation
	0x430243bc		$d.15
.text	0x430243d8	0x2810	D:\Smart-heart-rate-dector\Smart-heart-rate-dector\gagent\libgagent.a(iofnet.o)	#SHT_PROGBITS,SHF_ALLOC|SHF_EXECINSTR,4
	0x430243d8		$a.0
	0x430243d8		gatNetLocalIp
	0x430243e0		$d.1
	0x430243e4		gatNetCacheSSIDGet
	0x430243e4		$a.2
	0x430243ec		$d.3
	0x430243f0		gatNetCachePwdGet
	0x430243f0		$a.4
	0x430243f8		$d.5
	0x430243fc		$a.6
	0x430243fc		gatNetCacheBSSIDGet
	0x43024404		gatNetBackupSSIDGet
	0x43024434		gatNetBackupPwdGet
	0x43024464		gatNetBackupBSSIDGet
	0x43024494		gatNetCacheSSIDSet
	0x430244c4		gatNetCachePwdSet
	0x430244f8		gatNetCacheBSSIDSet
	0x4302452c		gatNetBackupSSIDSet
	0x43024560		gatNetBackupPwdSet
	0x43024594		gatNetBackupBSSIDSet
	0x430245c8		gatNetStationStart
	0x430245f0		gatNetStationStop
	0x430245f8		gatNetSoftApStart
	0x4302467c		$d.7
	0x43024690		gatNetSoftApStop
	0x43024690		$a.8
	0x43024698		gatNetMACGet
	0x43024880		$d.9
	0x430248ac		gatIofNetInit
	0x430248ac		$a.10
	0x43024990		$d.11
	0x430249b0		$a.12
	0x430249b0		gatIofNetGetRssi
	0x43024b0c		$d.13
	0x43024b2c		$a.14
	0x43024b2c		gatNetGetSignalLevel
	0x43024b88		gatOpenAirlink
	0x43024bac		$d.15
	0x43024bb4		$a.16
	0x43024bb4		gatCloseAirlink
	0x43024bbc		gatWiFiScanResult
	0x43024bc4		$d.17
	0x43024bc8		$a.18
	0x43024bc8		iofWifiScan
	0x43024c48		$d.19
	0x43024c60		$a.20
	0x43024c60		gatNetStartScan
	0x43024dcc		$d.21
	0x43024df0		$a.22
	0x43024df0		iofGetHostByName
	0x43024edc		$d.23
	0x43024ef8		get_ip_from_url
	0x43024ef8		$a.24
	0x430253a0		$d.25
	0x430253d0		iofGatGetHostByName
	0x430253d0		$a.26
	0x430254a0		$d.27
	0x430254b4		iofNetDnsHandle
	0x430254b4		$a.28
	0x43025660		$d.29
	0x43025684		iofNetCheckNetStatus
	0x43025684		$a.30
	0x430257b8		$d.31
	0x430257d4		$a.32
	0x430257d4		tcp_inet_ntoa
	0x43025838		$d.33
	0x4302583c		$a.34
	0x4302583c		tcp_show_sysinfo
	0x43025c00		$d.35
	0x43025c34		$a.36
	0x43025c34		tcp_netctrl_start
	0x43026120		$d.37
	0x4302616c		tcp_netctrl_stop
	0x4302616c		$a.38
	0x43026220		$d.39
	0x43026238		iofNetActiveHandle
	0x43026238		$a.40
	0x430266b4		$d.41
	0x430266f8		dns_parser
	0x430266f8		$a.42
	0x430267fc		$d.43
	0x43026814		$a.44
	0x43026814		tcp_net_event_cb
	0x43026b54		$d.45
	0x43026b84		$a.46
	0x43026b84		qapi_dss_cb_uspace_dispatcher
	0x43026be4		$d.47
.text	0x43026be8	0x86c	D:\Smart-heart-rate-dector\Smart-heart-rate-dector\gagent\libgagent.a(iofserial.o)	#SHT_PROGBITS,SHF_ALLOC|SHF_EXECINSTR,4
	0x43026be8		$a.0
	0x43026be8		iofSerialRecGet
	0x43026bf4		$d.1
	0x43026bf8		$a.2
	0x43026bf8		iofSerialOpen
	0x43026e94		$d.3
	0x43026ed4		$a.4
	0x43026ed4		SerialRxCb
	0x43026f44		$d.5
	0x43026f5c		$a.6
	0x43026f5c		SerialTxCb
	0x43026fb4		$d.7
	0x43026fc8		$a.8
	0x43026fc8		qapi_uart_tx_user_cb_dispatcher
	0x43026fe8		qapi_uart_rx_user_cb_dispatcher
	0x43027008		iofSerialInit
	0x430270b0		$d.9
	0x430270d0		$a.10
	0x430270d0		iofSerialSelect
	0x43027138		$d.11
	0x43027150		$a.12
	0x43027150		iofSerialSend
	0x430272f4		$d.13
	0x43027324		$a.14
	0x43027324		iofSerialRead
	0x43027430		$d.15
.text	0x43027454	0x5c8	D:\Smart-heart-rate-dector\Smart-heart-rate-dector\gagent\libgagent.a(iofsocket.o)	#SHT_PROGBITS,SHF_ALLOC|SHF_EXECINSTR,4
	0x43027454		$a.0
	0x43027454		gatIofSocketClose
	0x430274f8		$d.1
	0x43027510		$a.2
	0x43027510		gatIofSocketConnect
	0x43027730		$d.3
	0x43027750		$a.4
	0x43027750		gatIofTcpSend
	0x430278ec		$d.5
	0x43027904		$a.6
	0x43027904		gatTcpSendResult
	0x43027930		gatIofUdpSend
	0x43027938		gatIofSocketTcpRecv
	0x43027988		$d.7
	0x4302798c		$a.8
	0x4302798c		gatIofSocketUdpRecv
	0x43027994		gatIofSelect
	0x430279ec		gatIofTcpCreateServer
	0x430279f4		gatIofTcpServerListen
	0x430279fc		gatCreateUDPServer
	0x43027a04		gatIofUdpCreateBCServer
	0x43027a0c		gatIofSocketInit
	0x43027a10		gatIofTcpSocketInfoGet
	0x43027a14		gatIofUdpSocketInfoGet
.text	0x43027a1c	0x564	D:\Smart-heart-rate-dector\Smart-heart-rate-dector\gagent\libgagent.a(ioftime.o)	#SHT_PROGBITS,SHF_ALLOC|SHF_EXECINSTR,4
	0x43027a1c		$a.0
	0x43027a1c		milliseconds_sleep
	0x43027a2c		iofThreadDelay
	0x43027a3c		getDevTime_MS
	0x43027ae4		$d.1
	0x43027afc		$a.2
	0x43027afc		getDevTime_S
	0x43027ba4		$d.3
	0x43027bbc		$a.4
	0x43027bbc		iofTimerInit
	0x43027cb8		$d.5
	0x43027cd8		$a.6
	0x43027cd8		timerCb
	0x43027cf0		iofCurTime
	0x43027cf4		iofLocalTimerMSStart
	0x43027e40		$d.7
	0x43027e68		$a.8
	0x43027e68		iofLocalTimerMSStop
	0x43027f68		$d.9
.text	0x43027f80	0x80	D:\Smart-heart-rate-dector\Smart-heart-rate-dector\gagent\libgagent.a(lanvirtual.o)	#SHT_PROGBITS,SHF_ALLOC|SHF_EXECINSTR,4
	0x43027f80		$a.0
	0x43027f80		isLoginClient
	0x43027f88		gatLanSend
	0x43027fe4		$d.1
	0x43027ff8		$a.2
	0x43027ff8		gatLanLoginClientNumGet
.text	0x43028000	0x17a8	D:\Smart-heart-rate-dector\Smart-heart-rate-dector\gagent\libgagent.a(mqttgat.o)	#SHT_PROGBITS,SHF_ALLOC|SHF_EXECINSTR,4
	0x43028000		$a.0
	0x43028000		mqttConnBrokerInit
	0x430280cc		$d.1
	0x430280e4		$a.2
	0x430280e4		mqttDoHeartBeat
	0x4302833c		$d.3
	0x43028368		mqttPingTimeSetAlive
	0x43028368		$a.4
	0x43028384		mqttExtractPacket
	0x430284a4		$d.5
	0x430284d4		$a.6
	0x43028cf4		$d.7
	0x43028d60		mqttDataHandle
	0x43028d60		$a.8
	0x43028e08		$d.9
	0x43028e38		$a.10
	0x43029030		$d.11
	0x43029060		$a.12
	0x43029060		mqttSubTopicS
	0x43029164		$d.13
	0x43029178		$a.14
	0x43029178		mqttSendPubData
	0x430291fc		gatMqttInit
	0x4302927c		$d.15
	0x43029298		gatMqttReInit
	0x43029298		$a.16
	0x430293bc		$d.17
	0x430293dc		gatM2MHeartBeatStart
	0x430293dc		$a.18
	0x43029464		$d.19
	0x43029480		gatM2MHeartBeatStop
	0x43029480		$a.20
	0x430294e4		$d.21
	0x430294f8		gatCleanMqttCacheBuf
	0x430294f8		$a.22
	0x430295cc		$d.23
	0x430295e8		gatCloudGizDataSend
	0x430295e8		$a.24
	0x43029788		$d.25
.text	0x430297a8	0x1330	D:\Smart-heart-rate-dector\Smart-heart-rate-dector\gagent\libgagent.a(mqttlib.o)	#SHT_PROGBITS,SHF_ALLOC|SHF_EXECINSTR,4
	0x430297a8		$a.0
	0x430297a8		mqtt_num_rem_len_bytes_safe
	0x430298d8		$d.1
	0x430298f4		$a.2
	0x430298f4		mqtt_num_rem_len_bytes
	0x4302992c		mqtt_len_of_bytes
	0x4302997c		mqtt_parse_rem_len
	0x430299b8		mqtt_parse_msg_id
	0x43029a38		mqtt_parse_pub_topic_ptr
	0x43029a84		mqtt_parse_publish_msg
	0x43029ab4		mqtt_parse_pub_msg_ptr
	0x43029b2c		mqtt_init
	0x43029bac		mqtt_init_auth
	0x43029c00		mqtt_set_alive
	0x43029c08		mqtt_connect
	0x4302a1e8		$d.3
	0x4302a21c		$a.4
	0x4302a21c		mqtt_disconnect
	0x4302a264		mqtt_ping
	0x4302a2ac		mqtt_publish_with_qos
	0x4302a6a4		$d.5
	0x4302a6d4		$a.6
	0x4302a6d4		mqtt_subscribes
	0x4302aaa8		$d.7
.text	0x4302aad8	0x1f78	D:\Smart-heart-rate-dector\Smart-heart-rate-dector\gagent\libgagent.a(otawan.o)	#SHT_PROGBITS,SHF_ALLOC|SHF_EXECINSTR,4
	0x4302aad8		$a.0
	0x4302aad8		gatWanOtaParmGet
	0x4302aae0		$d.1
	0x4302aae4		gatWanOtaStatusGet
	0x4302aae4		$a.2
	0x4302ab48		$d.3
	0x4302ab60		$a.4
	0x4302ab60		gatOTAEventHandle
	0x4302accc		$d.5
	0x4302ace8		$a.6
	0x4302ace8		gatReqLastVersion
	0x4302aeb4		$d.7
	0x4302aef0		$a.8
	0x4302aef0		gatGetMD5
	0x4302b0c8		$d.9
	0x4302b0ec		$a.10
	0x4302b0ec		gatGetFileType
	0x4302b2c4		$d.11
	0x4302b2ec		$a.12
	0x4302b2ec		gatReqLastVersionCb
	0x4302bab8		$d.13
	0x4302bb28		$a.14
	0x4302bb28		gatDownloadFirmware
	0x4302bc5c		$d.15
	0x4302bc78		$a.16
	0x4302bc78		gatDownLoadFirmwareCb
	0x4302c86c		$d.17
	0x4302c914		$a.18
	0x4302c914		gatWanOtaStatusSet
	0x4302c97c		$d.19
	0x4302c994		$a.20
	0x4302c994		gatReDownloadTimerCb
	0x4302ca38		$d.21
.text	0x4302ca50	0xc34	D:\Smart-heart-rate-dector\Smart-heart-rate-dector\gagent\libgagent.a(gagent_md5.o)	#SHT_PROGBITS,SHF_ALLOC|SHF_EXECINSTR,4
	0x4302ca50		$a.0
	0x4302ca50		GAgent_MD5Init
	0x4302ca80		$d.1
	0x4302ca90		$a.2
	0x4302ca90		GAgent_MD5Update
	0x4302cb50		GAgent_MD5Transform
	0x4302d478		$d.3
	0x4302d574		$a.4
	0x4302d574		GAgent_MD5Final
	0x4302d5e8		$d.5
	0x4302d5ec		$a.6
	0x4302d5ec		GAgent_MD5Encode
	0x4302d63c		GAgent_MD5Decode
.text	0x4302d684	0x45bc	D:\Smart-heart-rate-dector\Smart-heart-rate-dector\gagent\libgagent.a(simulator.o)	#SHT_PROGBITS,SHF_ALLOC|SHF_EXECINSTR,4
	0x4302d684		$a.0
	0x4302d684		simulatorLogOutCloudTimeOutCb
	0x4302d758		$d.1
	0x4302d774		$a.2
	0x4302d774		onSimulatorLoginCb
	0x4302d970		$d.3
	0x4302d980		$a.4
	0x4302db50		$d.5
	0x4302db8c		onSimulatorSignOutCb
	0x4302db8c		$a.6
	0x4302dd98		$d.7
	0x4302ddc8		gatSubDevsLoginCb
	0x4302ddc8		$a.8
	0x4302deb0		$d.9
	0x4302dec8		$a.10
	0x4302dec8		gatSubDevsRegisterCb
	0x4302dfe8		$d.11
	0x4302e008		$a.12
	0x4302e008		gagentDevsLogin
	0x4302e5f4		$d.13
	0x4302e650		$a.14
	0x4302e650		gagentconnect2M2M
	0x4302e91c		$d.15
	0x4302e954		$a.16
	0x4302e954		gagentDevsRegister
	0x4302f6ec		$d.17
	0x4302f794		$a.18
	0x4302f794		gagentDisconnectM2M
	0x4302fac8		$d.19
	0x4302fb08		$a.20
	0x4302fb08		simulatorM2MSignOutSocketCb
	0x4302fbf4		$d.21
	0x4302fc10		$a.22
	0x4302fc10		gagentResetSimulator
	0x4302fe34		$d.23
	0x4302fe48		$a.24
	0x4302ff88		$d.25
	0x4302ffc4		simulatorGServerResetRec_Cb
	0x4302ffc4		$a.26
	0x43030820		$d.27
	0x43030890		gatRegsiterSubRecCb
	0x43030890		$a.28
	0x43031670		$d.29
	0x430316e0		$a.30
	0x430316e0		simulatorDevsLoginTimeOutCb
	0x4303185c		$d.31
	0x43031880		gatRegsiterErrorHandle
	0x43031880		$a.32
	0x43031c10		$d.33
.text.qapi_Timer_Get_Cbinfo	0x43031c40	0x38	sdk\libs\timer_dam_lib.lib(qapi_timer_user.o)	#SHT_PROGBITS,SHF_ALLOC|SHF_EXECINSTR,4
	0x43031c40		$t.0
	0x43031c41		qapi_Timer_Get_Cbinfo
	0x43031c74		$d.1
.text.timer_client_cb_handler	0x43031c78	0x28	sdk\libs\timer_dam_lib.lib(qapi_timer_user.o)	#SHT_PROGBITS,SHF_ALLOC|SHF_EXECINSTR,2
	0x43031c78		$t.2
	0x43031c79		timer_client_cb_handler
.text.qapi_timer_user_init	0x43031ca0	0xb4	sdk\libs\timer_dam_lib.lib(qapi_timer_user.o)	#SHT_PROGBITS,SHF_ALLOC|SHF_EXECINSTR,4
	0x43031ca0		$t.3
	0x43031ca1		qapi_timer_user_init
	0x43031d30		$d.4
.text.qapi_Timer_Def	0x43031d54	0x54	sdk\libs\timer_dam_lib.lib(qapi_timer_user.o)	#SHT_PROGBITS,SHF_ALLOC|SHF_EXECINSTR,4
	0x43031d54		$t.5
	0x43031d55		qapi_Timer_Def
	0x43031d9c		$d.6
.text.qapi_Timer_Set	0x43031da8	0x38	sdk\libs\timer_dam_lib.lib(qapi_timer_user.o)	#SHT_PROGBITS,SHF_ALLOC|SHF_EXECINSTR,4
	0x43031da8		$t.7
	0x43031da9		qapi_Timer_Set
	0x43031ddc		$d.8
.text.qapi_Timer_Get_Timer_Info	0x43031de0	0x38	sdk\libs\timer_dam_lib.lib(qapi_timer_user.o)	#SHT_PROGBITS,SHF_ALLOC|SHF_EXECINSTR,4
	0x43031de0		$t.9
	0x43031de1		qapi_Timer_Get_Timer_Info
	0x43031e14		$d.10
.text.qapi_Timer_Sleep	0x43031e18	0x38	sdk\libs\timer_dam_lib.lib(qapi_timer_user.o)	#SHT_PROGBITS,SHF_ALLOC|SHF_EXECINSTR,4
	0x43031e18		$t.11
	0x43031e19		qapi_Timer_Sleep
	0x43031e4c		$d.12
.text.qapi_Timer_Undef	0x43031e50	0x34	sdk\libs\timer_dam_lib.lib(qapi_timer_user.o)	#SHT_PROGBITS,SHF_ALLOC|SHF_EXECINSTR,4
	0x43031e50		$t.13
	0x43031e51		qapi_Timer_Undef
	0x43031e80		$d.14
.text.qapi_Timer_Stop	0x43031e84	0x34	sdk\libs\timer_dam_lib.lib(qapi_timer_user.o)	#SHT_PROGBITS,SHF_ALLOC|SHF_EXECINSTR,4
	0x43031e84		$t.15
	0x43031e85		qapi_Timer_Stop
	0x43031eb4		$d.16
.text.qapi_time_get	0x43031eb8	0x3c	sdk\libs\timer_dam_lib.lib(qapi_timer_user.o)	#SHT_PROGBITS,SHF_ALLOC|SHF_EXECINSTR,4
	0x43031eb8		$t.17
	0x43031eb9		qapi_time_get
	0x43031ef0		$d.18
.text._txm_module_thread_shell_entry	0x43031ef4	0x94	sdk\libs\txm_lib.lib(txm_module_thread_shell_entry.o)	#SHT_PROGBITS,SHF_ALLOC|SHF_EXECINSTR,4
	0x43031ef4		$a.0
	0x43031ef4		_txm_module_thread_shell_entry
	0x43031f7c		$d.1
.text._txm_module_callback_request_thread_entry	0x43031f88	0x108	sdk\libs\txm_lib.lib(txm_module_callback_request_thread_entry.o)	#SHT_PROGBITS,SHF_ALLOC|SHF_EXECINSTR,4
	0x43031f88		$a.0
	0x43031f88		_txm_module_callback_request_thread_entry
	0x43031fe0		$d.1
	0x43031ff4		$a.2
	0x43032088		$d.3
.text._txm_module_system_call11	0x43032090	0x68	sdk\libs\txm_lib.lib(txm_module_system_call11.o)	#SHT_PROGBITS,SHF_ALLOC|SHF_EXECINSTR,4
	0x43032090		$a.0
	0x43032090		_txm_module_system_call11
	0x430320f4		$d.1
.text._txm_module_system_call12	0x430320f8	0x70	sdk\libs\txm_lib.lib(txm_module_system_call12.o)	#SHT_PROGBITS,SHF_ALLOC|SHF_EXECINSTR,4
	0x430320f8		$a.0
	0x430320f8		_txm_module_system_call12
	0x43032164		$d.1
.text._txm_module_system_call4	0x43032168	0x2c	sdk\libs\txm_lib.lib(txm_module_system_call4.o)	#SHT_PROGBITS,SHF_ALLOC|SHF_EXECINSTR,4
	0x43032168		$a.0
	0x43032168		_txm_module_system_call4
	0x43032190		$d.1
.text._txm_module_system_call5	0x43032194	0x34	sdk\libs\txm_lib.lib(txm_module_system_call5.o)	#SHT_PROGBITS,SHF_ALLOC|SHF_EXECINSTR,4
	0x43032194		$a.0
	0x43032194		_txm_module_system_call5
	0x430321c4		$d.1
.text._txm_module_system_call6	0x430321c8	0x3c	sdk\libs\txm_lib.lib(txm_module_system_call6.o)	#SHT_PROGBITS,SHF_ALLOC|SHF_EXECINSTR,4
	0x430321c8		$a.0
	0x430321c8		_txm_module_system_call6
	0x43032200		$d.1
.text._txm_module_system_call7	0x43032204	0x44	sdk\libs\txm_lib.lib(txm_module_system_call7.o)	#SHT_PROGBITS,SHF_ALLOC|SHF_EXECINSTR,4
	0x43032204		$a.0
	0x43032204		_txm_module_system_call7
	0x43032244		$d.1
.text._txm_module_system_call8	0x43032248	0x4c	sdk\libs\txm_lib.lib(txm_module_system_call8.o)	#SHT_PROGBITS,SHF_ALLOC|SHF_EXECINSTR,4
	0x43032248		$a.0
	0x43032248		_txm_module_system_call8
	0x43032290		$d.1
.text.tolower	0x43032294	0xe	D:\4.0.3\armv7m-none-eabi\libc\lib/libc.a(tolower.o)	#SHT_PROGBITS,SHF_ALLOC|SHF_EXECINSTR,2
	0x43032294		$t
	0x43032295		tolower
.text.__tolower_l	0x430322a2	0x4	D:\4.0.3\armv7m-none-eabi\libc\lib/libc.a(tolower.o)	#SHT_PROGBITS,SHF_ALLOC|SHF_EXECINSTR,2
	0x430322a2		$t
	0x430322a3		__tolower_l
	0x430322a3		tolower_l
.text.toupper	0x430322a6	0xe	D:\4.0.3\armv7m-none-eabi\libc\lib/libc.a(toupper.o)	#SHT_PROGBITS,SHF_ALLOC|SHF_EXECINSTR,2
	0x430322a6		$t
	0x430322a7		toupper
.text.__toupper_l	0x430322b4	0x4	D:\4.0.3\armv7m-none-eabi\libc\lib/libc.a(toupper.o)	#SHT_PROGBITS,SHF_ALLOC|SHF_EXECINSTR,2
	0x430322b4		$t
	0x430322b5		__toupper_l
	0x430322b5		toupper_l
.text.malloc	0x430322b8	0x1b8	D:\4.0.3\armv7m-none-eabi\libc\lib/libc.a(malloc.o)	#SHT_PROGBITS,SHF_ALLOC|SHF_EXECINSTR,4
	0x430322b8		$t
	0x430322b9		malloc
	0x43032458		$d
.text.adjust_size	0x43032470	0x34	D:\4.0.3\armv7m-none-eabi\libc\lib/libc.a(malloc.o)	#SHT_PROGBITS,SHF_ALLOC|SHF_EXECINSTR,4
	0x43032470		$t
	0x43032471		adjust_size
	0x430324a0		$d
.text.alloc_rev	0x430324a4	0x40	D:\4.0.3\armv7m-none-eabi\libc\lib/libc.a(malloc.o)	#SHT_PROGBITS,SHF_ALLOC|SHF_EXECINSTR,2
	0x430324a4		$t
	0x430324a5		alloc_rev
.text.lock_bin	0x430324e4	0x28	D:\4.0.3\armv7m-none-eabi\libc\lib/libc.a(malloc.o)	#SHT_PROGBITS,SHF_ALLOC|SHF_EXECINSTR,4
	0x430324e4		$t
	0x430324e5		lock_bin
	0x43032508		$d
.text.unbin	0x4303250c	0x68	D:\4.0.3\armv7m-none-eabi\libc\lib/libc.a(malloc.o)	#SHT_PROGBITS,SHF_ALLOC|SHF_EXECINSTR,4
	0x4303250c		$t
	0x4303250d		unbin
	0x43032570		$d
.text.unlock_bin	0x43032574	0x10	D:\4.0.3\armv7m-none-eabi\libc\lib/libc.a(malloc.o)	#SHT_PROGBITS,SHF_ALLOC|SHF_EXECINSTR,4
	0x43032574		$t
	0x43032575		unlock_bin
	0x43032580		$d
.text.trim	0x43032584	0x32	D:\4.0.3\armv7m-none-eabi\libc\lib/libc.a(malloc.o)	#SHT_PROGBITS,SHF_ALLOC|SHF_EXECINSTR,2
	0x43032584		$t
	0x43032585		trim
.text.__malloc0	0x430325b6	0x2a	D:\4.0.3\armv7m-none-eabi\libc\lib/libc.a(malloc.o)	#SHT_PROGBITS,SHF_ALLOC|SHF_EXECINSTR,2
	0x430325b6		$t
	0x430325b7		__malloc0
.text.realloc	0x430325e0	0x108	D:\4.0.3\armv7m-none-eabi\libc\lib/libc.a(malloc.o)	#SHT_PROGBITS,SHF_ALLOC|SHF_EXECINSTR,2
	0x430325e0		$t
	0x430325e1		realloc
	0x4303261e		$d
	0x43032620		$t
	0x43032680		$d
	0x43032682		$t
.text.free	0x430326e8	0x178	D:\4.0.3\armv7m-none-eabi\libc\lib/libc.a(malloc.o)	#SHT_PROGBITS,SHF_ALLOC|SHF_EXECINSTR,4
	0x430326e8		$t
	0x430326e9		free
	0x43032710		$d
	0x43032712		$t
	0x43032722		$d
	0x43032724		$t
	0x4303285c		$d
.text.alloc_fwd	0x43032860	0x3c	D:\4.0.3\armv7m-none-eabi\libc\lib/libc.a(malloc.o)	#SHT_PROGBITS,SHF_ALLOC|SHF_EXECINSTR,2
	0x43032860		$t
	0x43032861		alloc_fwd
.text.bin_index	0x4303289c	0x2c	D:\4.0.3\armv7m-none-eabi\libc\lib/libc.a(malloc.o)	#SHT_PROGBITS,SHF_ALLOC|SHF_EXECINSTR,4
	0x4303289c		$t
	0x4303289d		bin_index
	0x430328c4		$d
.text.lock	0x430328c8	0x3c	D:\4.0.3\armv7m-none-eabi\libc\lib/libc.a(malloc.o)	#SHT_PROGBITS,SHF_ALLOC|SHF_EXECINSTR,4
	0x430328c8		$t
	0x430328c9		lock
	0x43032900		$d
.text.unlock	0x43032904	0x32	D:\4.0.3\armv7m-none-eabi\libc\lib/libc.a(malloc.o)	#SHT_PROGBITS,SHF_ALLOC|SHF_EXECINSTR,2
	0x43032904		$t
	0x43032905		unlock
.text.a_and	0x43032936	0x22	D:\4.0.3\armv7m-none-eabi\libc\lib/libc.a(malloc.o)	#SHT_PROGBITS,SHF_ALLOC|SHF_EXECINSTR,2
	0x43032936		$t
	0x43032937		a_and
.text.a_sc	0x43032958	0xe	D:\4.0.3\armv7m-none-eabi\libc\lib/libc.a(malloc.o)	#SHT_PROGBITS,SHF_ALLOC|SHF_EXECINSTR,2
	0x43032958		$t
	0x43032959		a_sc
.text.__syscall3	0x43032966	0xa	D:\4.0.3\armv7m-none-eabi\libc\lib/libc.a(malloc.o)	#SHT_PROGBITS,SHF_ALLOC|SHF_EXECINSTR,2
	0x43032966		$t
	0x43032967		__syscall3
.text.a_or	0x43032970	0x22	D:\4.0.3\armv7m-none-eabi\libc\lib/libc.a(malloc.o)	#SHT_PROGBITS,SHF_ALLOC|SHF_EXECINSTR,2
	0x43032970		$t
	0x43032971		a_or
.text.__madvise	0x43032992	0xe	D:\4.0.3\armv7m-none-eabi\libc\lib/libc.a(madvise.o)	#SHT_PROGBITS,SHF_ALLOC|SHF_EXECINSTR,2
	0x43032992		$t
	0x43032993		__madvise
	0x43032993		madvise
.text.dummy	0x430329a0	0x2	D:\4.0.3\armv7m-none-eabi\libc\lib/libc.a(mremap.o)	#SHT_PROGBITS,SHF_ALLOC|SHF_EXECINSTR,2
	0x430329a0		$t
	0x430329a1		dummy
	0x430329a1		__vm_wait
PADDING_ALIGNMENT	0x430329a2	0x2	0x0
.text.__mremap	0x430329a4	0x54	D:\4.0.3\armv7m-none-eabi\libc\lib/libc.a(mremap.o)	#SHT_PROGBITS,SHF_ALLOC|SHF_EXECINSTR,4
	0x430329a4		$t
	0x430329a5		__mremap
	0x430329a5		mremap
	0x430329f4		$d
.text.dummy	0x430329f8	0x2	D:\4.0.3\armv7m-none-eabi\libc\lib/libc.a(munmap.o)	#SHT_PROGBITS,SHF_ALLOC|SHF_EXECINSTR,2
	0x430329f8		$t
	0x430329f9		dummy
.text.__munmap	0x430329fa	0x1a	D:\4.0.3\armv7m-none-eabi\libc\lib/libc.a(munmap.o)	#SHT_PROGBITS,SHF_ALLOC|SHF_EXECINSTR,2
	0x430329fa		$t
	0x430329fb		__munmap
	0x430329fb		munmap
.text.srand	0x43032a14	0x10	D:\4.0.3\armv7m-none-eabi\libc\lib/libc.a(rand.o)	#SHT_PROGBITS,SHF_ALLOC|SHF_EXECINSTR,4
	0x43032a14		$t
	0x43032a15		srand
	0x43032a20		$d
.text.rand	0x43032a24	0x34	D:\4.0.3\armv7m-none-eabi\libc\lib/libc.a(rand.o)	#SHT_PROGBITS,SHF_ALLOC|SHF_EXECINSTR,4
	0x43032a24		$t
	0x43032a25		rand
	0x43032a4c		$d
.text.vfprintf	0x43032a58	0xd6	D:\4.0.3\armv7m-none-eabi\libc\lib/libc.a(vfprintf.o)	#SHT_PROGBITS,SHF_ALLOC|SHF_EXECINSTR,2
	0x43032a58		$t
	0x43032a59		vfprintf
PADDING_ALIGNMENT	0x43032b2e	0x2	0x0
.text.printf_core	0x43032b30	0x6a8	D:\4.0.3\armv7m-none-eabi\libc\lib/libc.a(vfprintf.o)	#SHT_PROGBITS,SHF_ALLOC|SHF_EXECINSTR,4
	0x43032b30		$t
	0x43032b31		printf_core
	0x43032de0		$d
	0x43032de8		$t
	0x43033050		$d
	0x43033076		$t
	0x430331b4		$d
.text.vsnprintf	0x430331d8	0x1a4	D:\4.0.3\armv7m-none-eabi\libc\lib/libc.a(vfprintf.o)	#SHT_PROGBITS,SHF_ALLOC|SHF_EXECINSTR,4
	0x430331d8		$t
	0x430331d9		vsnprintf
	0x43033378		$d
.text.fmt_u32	0x4303337c	0x22	D:\4.0.3\armv7m-none-eabi\libc\lib/libc.a(vfprintf.o)	#SHT_PROGBITS,SHF_ALLOC|SHF_EXECINSTR,2
	0x4303337c		$t
	0x4303337d		fmt_u32
.text.out	0x4303339e	0x14	D:\4.0.3\armv7m-none-eabi\libc\lib/libc.a(vfprintf.o)	#SHT_PROGBITS,SHF_ALLOC|SHF_EXECINSTR,2
	0x4303339e		$t
	0x4303339f		out
.text.getint	0x430333b2	0x1e	D:\4.0.3\armv7m-none-eabi\libc\lib/libc.a(vfprintf.o)	#SHT_PROGBITS,SHF_ALLOC|SHF_EXECINSTR,2
	0x430333b2		$t
	0x430333b3		getint
.text.pop_arg	0x430333d0	0x80	D:\4.0.3\armv7m-none-eabi\libc\lib/libc.a(vfprintf.o)	#SHT_PROGBITS,SHF_ALLOC|SHF_EXECINSTR,4
	0x430333d0		$t
	0x430333d1		pop_arg
	0x430333de		$d
	0x430333e8		$t
.text.pad	0x43033450	0x4e	D:\4.0.3\armv7m-none-eabi\libc\lib/libc.a(vfprintf.o)	#SHT_PROGBITS,SHF_ALLOC|SHF_EXECINSTR,2
	0x43033450		$t
	0x43033451		pad
.text.__fwritex	0x4303349e	0x76	D:\4.0.3\armv7m-none-eabi\libc\lib/libc.a(fwrite.o)	#SHT_PROGBITS,SHF_ALLOC|SHF_EXECINSTR,2
	0x4303349e		$t
	0x4303349f		__fwritex
.text.fwrite	0x43033514	0x58	D:\4.0.3\armv7m-none-eabi\libc\lib/libc.a(fwrite.o)	#SHT_PROGBITS,SHF_ALLOC|SHF_EXECINSTR,2
	0x43033514		$t
	0x43033515		fwrite
	0x43033515		fwrite_unlocked
.text.snprintf	0x4303356c	0x16	D:\4.0.3\armv7m-none-eabi\libc\lib/libc.a(snprintf.o)	#SHT_PROGBITS,SHF_ALLOC|SHF_EXECINSTR,2
	0x4303356c		$t
	0x4303356d		snprintf
.text.sprintf	0x43033582	0x18	D:\4.0.3\armv7m-none-eabi\libc\lib/libc.a(sprintf.o)	#SHT_PROGBITS,SHF_ALLOC|SHF_EXECINSTR,2
	0x43033582		$t
	0x43033583		sprintf
PADDING_ALIGNMENT	0x4303359a	0x2	0x0
.text.vsnprintf_full	0x4303359c	0x74	D:\4.0.3\armv7m-none-eabi\libc\lib/libc.a(vsnprintf.o)	#SHT_PROGBITS,SHF_ALLOC|SHF_EXECINSTR,4
	0x4303359c		$t
	0x4303359d		vsnprintf_full
	0x43033608		$d
.text.sn_write	0x43033610	0x22	D:\4.0.3\armv7m-none-eabi\libc\lib/libc.a(vsnprintf.o)	#SHT_PROGBITS,SHF_ALLOC|SHF_EXECINSTR,2
	0x43033610		$t
	0x43033611		sn_write
PADDING_ALIGNMENT	0x43033632	0x2	0x0
.text.vsprintf	0x43033634	0x10	D:\4.0.3\armv7m-none-eabi\libc\lib/libc.a(vsprintf.o)	#SHT_PROGBITS,SHF_ALLOC|SHF_EXECINSTR,4
	0x43033634		$t
	0x43033635		vsprintf
	0x43033640		$d
.text.strtoull	0x43033644	0x12	D:\4.0.3\armv7m-none-eabi\libc\lib/libc.a(strtol.o)	#SHT_PROGBITS,SHF_ALLOC|SHF_EXECINSTR,2
	0x43033644		$t
	0x43033645		strtoull
	0x43033645		__strtoull_internal
PADDING_ALIGNMENT	0x43033656	0x2	0x0
.text.strtox	0x43033658	0x5c	D:\4.0.3\armv7m-none-eabi\libc\lib/libc.a(strtol.o)	#SHT_PROGBITS,SHF_ALLOC|SHF_EXECINSTR,4
	0x43033658		$t
	0x43033659		strtox
	0x430336b0		$d
.text.strtoll	0x430336b4	0x14	D:\4.0.3\armv7m-none-eabi\libc\lib/libc.a(strtol.o)	#SHT_PROGBITS,SHF_ALLOC|SHF_EXECINSTR,2
	0x430336b4		$t
	0x430336b5		strtoll
	0x430336b5		__strtoll_internal
.text.strtoul	0x430336c8	0x14	D:\4.0.3\armv7m-none-eabi\libc\lib/libc.a(strtol.o)	#SHT_PROGBITS,SHF_ALLOC|SHF_EXECINSTR,2
	0x430336c8		$t
	0x430336c9		strtoul
	0x430336c9		__strtoul_internal
.text.strtol	0x430336dc	0x14	D:\4.0.3\armv7m-none-eabi\libc\lib/libc.a(strtol.o)	#SHT_PROGBITS,SHF_ALLOC|SHF_EXECINSTR,2
	0x430336dc		$t
	0x430336dd		strtol
	0x430336dd		__strtol_internal
.text.strtoimax	0x430336f0	0x4	D:\4.0.3\armv7m-none-eabi\libc\lib/libc.a(strtol.o)	#SHT_PROGBITS,SHF_ALLOC|SHF_EXECINSTR,2
	0x430336f0		$t
	0x430336f1		strtoimax
	0x430336f1		__strtoimax_internal
.text.strtoumax	0x430336f4	0x4	D:\4.0.3\armv7m-none-eabi\libc\lib/libc.a(strtol.o)	#SHT_PROGBITS,SHF_ALLOC|SHF_EXECINSTR,2
	0x430336f4		$t
	0x430336f5		strtoumax
	0x430336f5		__strtoumax_internal
.text.__aeabi_memclr	0x430336f8	0x8	D:\4.0.3\armv7m-none-eabi\libc\lib/libc.a(__aeabi_memclr.o)	#SHT_PROGBITS,SHF_ALLOC|SHF_EXECINSTR,2
	0x430336f8		$t
	0x430336f9		__aeabi_memclr
	0x430336f9		__aeabi_memclr4
	0x430336f9		__aeabi_memclr8
.text.__aeabi_memcpy	0x43033700	0x4	D:\4.0.3\armv7m-none-eabi\libc\lib/libc.a(__aeabi_memcpy.o)	#SHT_PROGBITS,SHF_ALLOC|SHF_EXECINSTR,2
	0x43033700		$t
	0x43033701		__aeabi_memcpy
	0x43033701		__aeabi_memcpy4
	0x43033701		__aeabi_memcpy8
.text	0x43033704	0x2ee	D:\4.0.3\armv7m-none-eabi\libc\lib/libc.a(memcpy_le.o)	#SHT_PROGBITS,SHF_ALLOC|SHF_EXECINSTR,2
	0x43033704		$t
	0x43033705		memcpy
	0x43033744		src_aligned
	0x43033792		congruent_aligned32
	0x43033792		cached_aligned32
	0x430337a8		less_than_32_left
	0x430337f6		non_congruent
	0x43033872		loop16
	0x430338ce		loop8
	0x4303392a		loop24
	0x43033982		less_than_thirtytwo
	0x430339ac		partial_word_tail
	0x430339c8		copy_last_3_and_return
PADDING_ALIGNMENT	0x430339f2	0x2	0x0
.text	0x430339f4	0x68	D:\4.0.3\armv7m-none-eabi\libc\lib/libc.a(memset_nofp_armv7.o)	#SHT_PROGBITS,SHF_ALLOC|SHF_EXECINSTR,4
	0x430339f4		$t
	0x430339f5		memset
.text.memchr	0x43033a5c	0x5c	D:\4.0.3\armv7m-none-eabi\libc\lib/libc.a(memchr.o)	#SHT_PROGBITS,SHF_ALLOC|SHF_EXECINSTR,2
	0x43033a5c		$t
	0x43033a5d		memchr
.text.memcmp	0x43033ab8	0x1c	D:\4.0.3\armv7m-none-eabi\libc\lib/libc.a(memcmp.o)	#SHT_PROGBITS,SHF_ALLOC|SHF_EXECINSTR,2
	0x43033ab8		$t
	0x43033ab9		memcmp
.text.strchr	0x43033ad4	0x14	D:\4.0.3\armv7m-none-eabi\libc\lib/libc.a(strchr.o)	#SHT_PROGBITS,SHF_ALLOC|SHF_EXECINSTR,2
	0x43033ad4		$t
	0x43033ad5		strchr
.text.__strchrnul	0x43033ae8	0x5c	D:\4.0.3\armv7m-none-eabi\libc\lib/libc.a(strchrnul.o)	#SHT_PROGBITS,SHF_ALLOC|SHF_EXECINSTR,2
	0x43033ae8		$t
	0x43033ae9		__strchrnul
	0x43033ae9		strchrnul
.text.strcmp	0x43033b44	0x14	D:\4.0.3\armv7m-none-eabi\libc\lib/libc.a(strcmp.o)	#SHT_PROGBITS,SHF_ALLOC|SHF_EXECINSTR,2
	0x43033b44		$t
	0x43033b45		strcmp
.text.strcpy	0x43033b58	0xc	D:\4.0.3\armv7m-none-eabi\libc\lib/libc.a(strcpy.o)	#SHT_PROGBITS,SHF_ALLOC|SHF_EXECINSTR,2
	0x43033b58		$t
	0x43033b59		strcpy
.text.strlen	0x43033b64	0x34	D:\4.0.3\armv7m-none-eabi\libc\lib/libc.a(strlen.o)	#SHT_PROGBITS,SHF_ALLOC|SHF_EXECINSTR,2
	0x43033b64		$t
	0x43033b65		strlen
.text.strncasecmp	0x43033b98	0x48	D:\4.0.3\armv7m-none-eabi\libc\lib/libc.a(strncasecmp.o)	#SHT_PROGBITS,SHF_ALLOC|SHF_EXECINSTR,2
	0x43033b98		$t
	0x43033b99		strncasecmp
.text.__strncasecmp_l	0x43033be0	0x4	D:\4.0.3\armv7m-none-eabi\libc\lib/libc.a(strncasecmp.o)	#SHT_PROGBITS,SHF_ALLOC|SHF_EXECINSTR,2
	0x43033be0		$t
	0x43033be1		__strncasecmp_l
	0x43033be1		strncasecmp_l
.text.strncmp	0x43033be4	0x28	D:\4.0.3\armv7m-none-eabi\libc\lib/libc.a(strncmp.o)	#SHT_PROGBITS,SHF_ALLOC|SHF_EXECINSTR,2
	0x43033be4		$t
	0x43033be5		strncmp
.text.strncpy	0x43033c0c	0xc	D:\4.0.3\armv7m-none-eabi\libc\lib/libc.a(strncpy.o)	#SHT_PROGBITS,SHF_ALLOC|SHF_EXECINSTR,2
	0x43033c0c		$t
	0x43033c0d		strncpy
.text.strstr	0x43033c18	0x2d0	D:\4.0.3\armv7m-none-eabi\libc\lib/libc.a(strstr.o)	#SHT_PROGBITS,SHF_ALLOC|SHF_EXECINSTR,2
	0x43033c18		$t
	0x43033c19		strstr
.text.__wait	0x43033ee8	0x64	D:\4.0.3\armv7m-none-eabi\libc\lib/libc.a(__wait.o)	#SHT_PROGBITS,SHF_ALLOC|SHF_EXECINSTR,2
	0x43033ee8		$t
	0x43033ee9		__wait
.text.__syscall4	0x43033f4c	0xa	D:\4.0.3\armv7m-none-eabi\libc\lib/libc.a(__wait.o)	#SHT_PROGBITS,SHF_ALLOC|SHF_EXECINSTR,2
	0x43033f4c		$t
	0x43033f4d		__syscall4
.text.a_fetch_add	0x43033f56	0x18	D:\4.0.3\armv7m-none-eabi\libc\lib/libc.a(__wait.o)	#SHT_PROGBITS,SHF_ALLOC|SHF_EXECINSTR,2
	0x43033f56		$t
	0x43033f57		a_fetch_add
.text.__errno_location	0x43033f6e	0x8	D:\4.0.3\armv7m-none-eabi\libc\lib/libc.a(__errno_location.o)	#SHT_PROGBITS,SHF_ALLOC|SHF_EXECINSTR,2
	0x43033f6e		$t
	0x43033f6f		__errno_location
PADDING_ALIGNMENT	0x43033f76	0x2	0x0
.text.__strerror_l	0x43033f78	0x3c	D:\4.0.3\armv7m-none-eabi\libc\lib/libc.a(strerror.o)	#SHT_PROGBITS,SHF_ALLOC|SHF_EXECINSTR,4
	0x43033f78		$t
	0x43033f79		__strerror_l
	0x43033f79		strerror_l
	0x43033fac		$d
.text.strerror	0x43033fb4	0xc	D:\4.0.3\armv7m-none-eabi\libc\lib/libc.a(strerror.o)	#SHT_PROGBITS,SHF_ALLOC|SHF_EXECINSTR,2
	0x43033fb4		$t
	0x43033fb5		strerror
.text.__intscan	0x43033fc0	0x418	D:\4.0.3\armv7m-none-eabi\libc\lib/libc.a(intscan.o)	#SHT_PROGBITS,SHF_ALLOC|SHF_EXECINSTR,4
	0x43033fc0		$t
	0x43033fc1		__intscan
	0x430343c4		$d
.text.__shlim	0x430343d8	0x2a	D:\4.0.3\armv7m-none-eabi\libc\lib/libc.a(shgetc.o)	#SHT_PROGBITS,SHF_ALLOC|SHF_EXECINSTR,2
	0x430343d8		$t
	0x430343d9		__shlim
.text.__shgetc	0x43034402	0x8c	D:\4.0.3\armv7m-none-eabi\libc\lib/libc.a(shgetc.o)	#SHT_PROGBITS,SHF_ALLOC|SHF_EXECINSTR,2
	0x43034402		$t
	0x43034403		__shgetc
PADDING_ALIGNMENT	0x4303448e	0x2	0x0
.text.__syscall_ret	0x43034490	0x20	D:\4.0.3\armv7m-none-eabi\libc\lib/libc.a(syscall_ret.o)	#SHT_PROGBITS,SHF_ALLOC|SHF_EXECINSTR,4
	0x43034490		$t
	0x43034491		__syscall_ret
	0x430344ac		$d
.text.dummy	0x430344b0	0x2	D:\4.0.3\armv7m-none-eabi\libc\lib/libc.a(__lctrans.o)	#SHT_PROGBITS,SHF_ALLOC|SHF_EXECINSTR,2
	0x430344b0		$t
	0x430344b1		dummy
	0x430344b1		__lctrans_impl
.text.__lctrans	0x430344b2	0x4	D:\4.0.3\armv7m-none-eabi\libc\lib/libc.a(__lctrans.o)	#SHT_PROGBITS,SHF_ALLOC|SHF_EXECINSTR,2
	0x430344b2		$t
	0x430344b3		__lctrans
.text.__lctrans_cur	0x430344b6	0xe	D:\4.0.3\armv7m-none-eabi\libc\lib/libc.a(__lctrans.o)	#SHT_PROGBITS,SHF_ALLOC|SHF_EXECINSTR,2
	0x430344b6		$t
	0x430344b7		__lctrans_cur
.text.__expand_heap	0x430344c4	0x50	D:\4.0.3\armv7m-none-eabi\libc\lib/libc.a(expand_heap.o)	#SHT_PROGBITS,SHF_ALLOC|SHF_EXECINSTR,4
	0x430344c4		$t
	0x430344c5		__expand_heap
	0x43034508		$d
.text.wctomb	0x43034514	0xc	D:\4.0.3\armv7m-none-eabi\libc\lib/libc.a(wctomb.o)	#SHT_PROGBITS,SHF_ALLOC|SHF_EXECINSTR,2
	0x43034514		$t
	0x43034515		wctomb
.text.__towrite	0x43034520	0x38	D:\4.0.3\armv7m-none-eabi\libc\lib/libc.a(__towrite.o)	#SHT_PROGBITS,SHF_ALLOC|SHF_EXECINSTR,2
	0x43034520		$t
	0x43034521		__towrite
.text.__towrite_needs_stdio_exit	0x43034558	0x4	D:\4.0.3\armv7m-none-eabi\libc\lib/libc.a(__towrite.o)	#SHT_PROGBITS,SHF_ALLOC|SHF_EXECINSTR,2
	0x43034558		$t
	0x43034559		__towrite_needs_stdio_exit
.text.__uflow	0x4303455c	0x2a	D:\4.0.3\armv7m-none-eabi\libc\lib/libc.a(__uflow.o)	#SHT_PROGBITS,SHF_ALLOC|SHF_EXECINSTR,2
	0x4303455c		$t
	0x4303455d		__uflow
.text.__lockfile	0x43034586	0x4	D:\4.0.3\armv7m-none-eabi\libc\lib/libc.a(__lockfile.o)	#SHT_PROGBITS,SHF_ALLOC|SHF_EXECINSTR,2
	0x43034586		$t
	0x43034587		__lockfile
.text.__unlockfile	0x4303458a	0x2	D:\4.0.3\armv7m-none-eabi\libc\lib/libc.a(__lockfile.o)	#SHT_PROGBITS,SHF_ALLOC|SHF_EXECINSTR,2
	0x4303458a		$t
	0x4303458b		__unlockfile
.text.__stpcpy	0x4303458c	0x3e	D:\4.0.3\armv7m-none-eabi\libc\lib/libc.a(stpcpy.o)	#SHT_PROGBITS,SHF_ALLOC|SHF_EXECINSTR,2
	0x4303458c		$t
	0x4303458d		__stpcpy
	0x4303458d		stpcpy
.text.__stpncpy	0x430345ca	0x68	D:\4.0.3\armv7m-none-eabi\libc\lib/libc.a(stpncpy.o)	#SHT_PROGBITS,SHF_ALLOC|SHF_EXECINSTR,2
	0x430345ca		$t
	0x430345cb		__stpncpy
	0x430345cb		stpncpy
PADDING_ALIGNMENT	0x43034632	0x2	0x0
.text.__brk	0x43034634	0x78	D:\4.0.3\armv7m-none-eabi\libc\lib/libc.a(__brk.o)	#SHT_PROGBITS,SHF_ALLOC|SHF_EXECINSTR,4
	0x43034634		$t
	0x43034635		__brk
	0x43034694		$d
.text.wcrtomb	0x430346ac	0xb0	D:\4.0.3\armv7m-none-eabi\libc\lib/libc.a(wcrtomb.o)	#SHT_PROGBITS,SHF_ALLOC|SHF_EXECINSTR,2
	0x430346ac		$t
	0x430346ad		wcrtomb
.text.__stdio_exit	0x4303475c	0x30	D:\4.0.3\armv7m-none-eabi\libc\lib/libc.a(__stdio_exit.o)	#SHT_PROGBITS,SHF_ALLOC|SHF_EXECINSTR,4
	0x4303475c		$t
	0x4303475d		__stdio_exit
	0x4303475d		__stdio_exit_needed
	0x43034784		$d
.text.close_file	0x4303478c	0x3c	D:\4.0.3\armv7m-none-eabi\libc\lib/libc.a(__stdio_exit.o)	#SHT_PROGBITS,SHF_ALLOC|SHF_EXECINSTR,2
	0x4303478c		$t
	0x4303478d		close_file
.text.__toread	0x430347c8	0x50	D:\4.0.3\armv7m-none-eabi\libc\lib/libc.a(__toread.o)	#SHT_PROGBITS,SHF_ALLOC|SHF_EXECINSTR,2
	0x430347c8		$t
	0x430347c9		__toread
.text.__toread_needs_stdio_exit	0x43034818	0x4	D:\4.0.3\armv7m-none-eabi\libc\lib/libc.a(__toread.o)	#SHT_PROGBITS,SHF_ALLOC|SHF_EXECINSTR,2
	0x43034818		$t
	0x43034819		__toread_needs_stdio_exit
.text.__ofl_lock	0x4303481c	0x8	D:\4.0.3\armv7m-none-eabi\libc\lib/libc.a(ofl.o)	#SHT_PROGBITS,SHF_ALLOC|SHF_EXECINSTR,4
	0x4303481c		$t
	0x4303481d		__ofl_lock
	0x43034820		$d
.text.__ofl_unlock	0x43034824	0x2	D:\4.0.3\armv7m-none-eabi\libc\lib/libc.a(ofl.o)	#SHT_PROGBITS,SHF_ALLOC|SHF_EXECINSTR,2
	0x43034824		$t
	0x43034825		__ofl_unlock
PADDING_ALIGNMENT	0x43034826	0x2	0x0
.text	0x43034828	0x14	D:\4.0.3\lib\clang\4.0.3\lib\baremetal/libclang_rt.builtins-armv7m.a(aeabi_uldivmod.S.obj)	#SHT_PROGBITS,SHF_ALLOC|SHF_EXECINSTR,4
	0x43034828		$t.0
	0x43034829		__aeabi_uldivmod
.text.__addsf3	0x4303483c	0x180	D:\4.0.3\lib\clang\4.0.3\lib\baremetal/libclang_rt.builtins-armv7m.a(addsf3.c.obj)	#SHT_PROGBITS,SHF_ALLOC|SHF_EXECINSTR,4
	0x4303483c		$t.0
	0x4303483d		__addsf3
	0x4303483d		__aeabi_fadd
	0x430349b0		$d.1
.text.fromRep	0x430349bc	0x2	D:\4.0.3\lib\clang\4.0.3\lib\baremetal/libclang_rt.builtins-armv7m.a(addsf3.c.obj)	#SHT_PROGBITS,SHF_ALLOC|SHF_EXECINSTR,2
	0x430349bc		$t.2
	0x430349bd		fromRep
.text.normalize	0x430349be	0x14	D:\4.0.3\lib\clang\4.0.3\lib\baremetal/libclang_rt.builtins-armv7m.a(addsf3.c.obj)	#SHT_PROGBITS,SHF_ALLOC|SHF_EXECINSTR,2
	0x430349be		$t.3
	0x430349bf		normalize
.text.__divsf3	0x430349d4	0x16c	D:\4.0.3\lib\clang\4.0.3\lib\baremetal/libclang_rt.builtins-armv7m.a(divsf3.c.obj)	#SHT_PROGBITS,SHF_ALLOC|SHF_EXECINSTR,4
	0x430349d4		$t.0
	0x430349d5		__aeabi_fdiv
	0x430349d5		__divsf3
	0x43034b34		$d.1
.text.normalize	0x43034b40	0x14	D:\4.0.3\lib\clang\4.0.3\lib\baremetal/libclang_rt.builtins-armv7m.a(divsf3.c.obj)	#SHT_PROGBITS,SHF_ALLOC|SHF_EXECINSTR,2
	0x43034b40		$t.2
	0x43034b41		normalize
.text.__fixdfsi	0x43034b54	0x68	D:\4.0.3\lib\clang\4.0.3\lib\baremetal/libclang_rt.builtins-armv7m.a(fixdfsi.c.obj)	#SHT_PROGBITS,SHF_ALLOC|SHF_EXECINSTR,4
	0x43034b54		$t.0
	0x43034b55		__aeabi_d2iz
	0x43034b55		__fixdfsi
	0x43034bb4		$d.1
.text.__fixunssfsi	0x43034bbc	0x40	D:\4.0.3\lib\clang\4.0.3\lib\baremetal/libclang_rt.builtins-armv7m.a(fixunssfsi.c.obj)	#SHT_PROGBITS,SHF_ALLOC|SHF_EXECINSTR,4
	0x43034bbc		$t.0
	0x43034bbd		__aeabi_f2uiz
	0x43034bbd		__fixunssfsi
	0x43034bf8		$d.1
.text.__floatsisf	0x43034bfc	0x62	D:\4.0.3\lib\clang\4.0.3\lib\baremetal/libclang_rt.builtins-armv7m.a(floatsisf.c.obj)	#SHT_PROGBITS,SHF_ALLOC|SHF_EXECINSTR,2
	0x43034bfc		$t.0
	0x43034bfd		__aeabi_i2f
	0x43034bfd		__floatsisf
.text.__floatunsidf	0x43034c60	0x46	D:\4.0.3\lib\clang\4.0.3\lib\baremetal/libclang_rt.builtins-armv7m.a(floatunsidf.c.obj)	#SHT_PROGBITS,SHF_ALLOC|SHF_EXECINSTR,2
	0x43034c60		$t.0
	0x43034c61		__aeabi_ui2d
	0x43034c61		__floatunsidf
.text.__floatunsisf	0x43034ca8	0x4e	D:\4.0.3\lib\clang\4.0.3\lib\baremetal/libclang_rt.builtins-armv7m.a(floatunsisf.c.obj)	#SHT_PROGBITS,SHF_ALLOC|SHF_EXECINSTR,2
	0x43034ca8		$t.0
	0x43034ca9		__aeabi_ui2f
	0x43034ca9		__floatunsisf
.text.__muldf3	0x43034cf8	0x32c	D:\4.0.3\lib\clang\4.0.3\lib\baremetal/libclang_rt.builtins-armv7m.a(muldf3.c.obj)	#SHT_PROGBITS,SHF_ALLOC|SHF_EXECINSTR,4
	0x43034cf8		$t.0
	0x43034cf9		__aeabi_dmul
	0x43034cf9		__muldf3
	0x43035010		$d.1
.text.normalize	0x43035024	0x46	D:\4.0.3\lib\clang\4.0.3\lib\baremetal/libclang_rt.builtins-armv7m.a(muldf3.c.obj)	#SHT_PROGBITS,SHF_ALLOC|SHF_EXECINSTR,2
	0x43035024		$t.2
	0x43035025		normalize
.text.__mulsf3	0x4303506c	0x13c	D:\4.0.3\lib\clang\4.0.3\lib\baremetal/libclang_rt.builtins-armv7m.a(mulsf3.c.obj)	#SHT_PROGBITS,SHF_ALLOC|SHF_EXECINSTR,4
	0x4303506c		$t.0
	0x4303506d		__aeabi_fmul
	0x4303506d		__mulsf3
	0x430351a0		$d.1
.text.normalize	0x430351a8	0x14	D:\4.0.3\lib\clang\4.0.3\lib\baremetal/libclang_rt.builtins-armv7m.a(mulsf3.c.obj)	#SHT_PROGBITS,SHF_ALLOC|SHF_EXECINSTR,2
	0x430351a8		$t.2
	0x430351a9		normalize
.text.__subsf3	0x430351bc	0xc	D:\4.0.3\lib\clang\4.0.3\lib\baremetal/libclang_rt.builtins-armv7m.a(subsf3.c.obj)	#SHT_PROGBITS,SHF_ALLOC|SHF_EXECINSTR,2
	0x430351bc		$t.0
	0x430351bd		__aeabi_fsub
	0x430351bd		__subsf3
.text.__udivmoddi4	0x430351c8	0x1d4	D:\4.0.3\lib\clang\4.0.3\lib\baremetal/libclang_rt.builtins-armv7m.a(udivmoddi4.c.obj)	#SHT_PROGBITS,SHF_ALLOC|SHF_EXECINSTR,2
	0x430351c8		$t.0
	0x430351c9		__udivmoddi4
*(Init )
*(.rodata .rodata.* )
.rodata.str1.1	0x4303539c	0xa	D:\Smart-heart-rate-dector\Smart-heart-rate-dector\objs\adc.o	#SHT_PROGBITS,SHF_ALLOC|SHF_MERGE|SHF_STRINGS,1
	0x4303539c		.L.str
.rodata.str1.1	0x430353a6	0xa	D:\Smart-heart-rate-dector\Smart-heart-rate-dector\objs\adc.o	#SHT_PROGBITS,SHF_ALLOC|SHF_MERGE|SHF_STRINGS,1
	0x430353a6		.L.str.1
.rodata	0x430353b0	0x30	D:\Smart-heart-rate-dector\Smart-heart-rate-dector\objs\common.o	#SHT_PROGBITS,SHF_ALLOC,8
.rodata.str1.1	0x430353e0	0x29	D:\Smart-heart-rate-dector\Smart-heart-rate-dector\objs\gizwits_product.o	#SHT_PROGBITS,SHF_ALLOC|SHF_MERGE|SHF_STRINGS,1
	0x430353e0		.L.str
.rodata.str1.1	0x43035409	0x1f	D:\Smart-heart-rate-dector\Smart-heart-rate-dector\objs\gizwits_product.o	#SHT_PROGBITS,SHF_ALLOC|SHF_MERGE|SHF_STRINGS,1
	0x43035409		.L.str.1
.rodata.str1.1	0x43035428	0x21	D:\Smart-heart-rate-dector\Smart-heart-rate-dector\objs\gizwits_product.o	#SHT_PROGBITS,SHF_ALLOC|SHF_MERGE|SHF_STRINGS,1
	0x43035428		.L.str.2
.rodata.str1.1	0x43035449	0x1d	D:\Smart-heart-rate-dector\Smart-heart-rate-dector\objs\gizwits_product.o	#SHT_PROGBITS,SHF_ALLOC|SHF_MERGE|SHF_STRINGS,1
	0x43035449		.L.str.3
.rodata.str1.1	0x43035466	0x20	D:\Smart-heart-rate-dector\Smart-heart-rate-dector\objs\gizwits_product.o	#SHT_PROGBITS,SHF_ALLOC|SHF_MERGE|SHF_STRINGS,1
	0x43035466		.L.str.4
.rodata.str1.1	0x43035486	0x1a	D:\Smart-heart-rate-dector\Smart-heart-rate-dector\objs\gizwits_product.o	#SHT_PROGBITS,SHF_ALLOC|SHF_MERGE|SHF_STRINGS,1
	0x43035486		.L.str.5
.rodata.str1.1	0x430354a0	0x1d	D:\Smart-heart-rate-dector\Smart-heart-rate-dector\objs\gizwits_product.o	#SHT_PROGBITS,SHF_ALLOC|SHF_MERGE|SHF_STRINGS,1
	0x430354a0		.L.str.6
.rodata.str1.1	0x430354bd	0x14	D:\Smart-heart-rate-dector\Smart-heart-rate-dector\objs\gizwits_product.o	#SHT_PROGBITS,SHF_ALLOC|SHF_MERGE|SHF_STRINGS,1
	0x430354bd		.L.str.7
.rodata.str1.1	0x430354d1	0x19	D:\Smart-heart-rate-dector\Smart-heart-rate-dector\objs\gizwits_product.o	#SHT_PROGBITS,SHF_ALLOC|SHF_MERGE|SHF_STRINGS,1
	0x430354d1		.L.str.8
.rodata.str1.1	0x430354ea	0x17	D:\Smart-heart-rate-dector\Smart-heart-rate-dector\objs\gizwits_product.o	#SHT_PROGBITS,SHF_ALLOC|SHF_MERGE|SHF_STRINGS,1
	0x430354ea		.L.str.9
.rodata.str1.1	0x43035501	0x2a	D:\Smart-heart-rate-dector\Smart-heart-rate-dector\objs\gizwits_protocol.o	#SHT_PROGBITS,SHF_ALLOC|SHF_MERGE|SHF_STRINGS,1
	0x43035501		.L.str
.rodata.str1.1	0x4303552b	0x2a	D:\Smart-heart-rate-dector\Smart-heart-rate-dector\objs\gizwits_protocol.o	#SHT_PROGBITS,SHF_ALLOC|SHF_MERGE|SHF_STRINGS,1
	0x4303552b		.L.str.1
.rodata.str1.1	0x43035555	0x26	D:\Smart-heart-rate-dector\Smart-heart-rate-dector\objs\gizwits_protocol.o	#SHT_PROGBITS,SHF_ALLOC|SHF_MERGE|SHF_STRINGS,1
	0x43035555		.L.str.2
.rodata.str1.1	0x4303557b	0x3f	D:\Smart-heart-rate-dector\Smart-heart-rate-dector\objs\gizwits_protocol.o	#SHT_PROGBITS,SHF_ALLOC|SHF_MERGE|SHF_STRINGS,1
	0x4303557b		.L.str.3
.rodata.str1.1	0x430355ba	0x27	D:\Smart-heart-rate-dector\Smart-heart-rate-dector\objs\gizwits_protocol.o	#SHT_PROGBITS,SHF_ALLOC|SHF_MERGE|SHF_STRINGS,1
	0x430355ba		.L.str.4
.rodata.str1.1	0x430355e1	0x21	D:\Smart-heart-rate-dector\Smart-heart-rate-dector\objs\gizwits_protocol.o	#SHT_PROGBITS,SHF_ALLOC|SHF_MERGE|SHF_STRINGS,1
	0x430355e1		.L.str.5
.rodata.str1.1	0x43035602	0x21	D:\Smart-heart-rate-dector\Smart-heart-rate-dector\objs\gizwits_protocol.o	#SHT_PROGBITS,SHF_ALLOC|SHF_MERGE|SHF_STRINGS,1
	0x43035602		.L.str.6
.rodata.str1.1	0x43035623	0x25	D:\Smart-heart-rate-dector\Smart-heart-rate-dector\objs\gizwits_protocol.o	#SHT_PROGBITS,SHF_ALLOC|SHF_MERGE|SHF_STRINGS,1
	0x43035623		.L.str.7
.rodata.str1.1	0x43035648	0x26	D:\Smart-heart-rate-dector\Smart-heart-rate-dector\objs\gizwits_protocol.o	#SHT_PROGBITS,SHF_ALLOC|SHF_MERGE|SHF_STRINGS,1
	0x43035648		.L.str.8
.rodata.str1.1	0x4303566e	0x26	D:\Smart-heart-rate-dector\Smart-heart-rate-dector\objs\gizwits_protocol.o	#SHT_PROGBITS,SHF_ALLOC|SHF_MERGE|SHF_STRINGS,1
	0x4303566e		.L.str.9
.rodata.str1.1	0x43035694	0x29	D:\Smart-heart-rate-dector\Smart-heart-rate-dector\objs\gizwits_protocol.o	#SHT_PROGBITS,SHF_ALLOC|SHF_MERGE|SHF_STRINGS,1
	0x43035694		.L.str.10
.rodata.str1.1	0x430356bd	0x23	D:\Smart-heart-rate-dector\Smart-heart-rate-dector\objs\gizwits_protocol.o	#SHT_PROGBITS,SHF_ALLOC|SHF_MERGE|SHF_STRINGS,1
	0x430356bd		.L.str.11
.rodata.str1.1	0x430356e0	0x26	D:\Smart-heart-rate-dector\Smart-heart-rate-dector\objs\gizwits_protocol.o	#SHT_PROGBITS,SHF_ALLOC|SHF_MERGE|SHF_STRINGS,1
	0x430356e0		.L.str.12
.rodata.str1.1	0x43035706	0x21	D:\Smart-heart-rate-dector\Smart-heart-rate-dector\objs\gizwits_protocol.o	#SHT_PROGBITS,SHF_ALLOC|SHF_MERGE|SHF_STRINGS,1
	0x43035706		.L.str.13
.rodata.str1.1	0x43035727	0x24	D:\Smart-heart-rate-dector\Smart-heart-rate-dector\objs\gizwits_protocol.o	#SHT_PROGBITS,SHF_ALLOC|SHF_MERGE|SHF_STRINGS,1
	0x43035727		.L.str.14
.rodata.str1.1	0x4303574b	0x22	D:\Smart-heart-rate-dector\Smart-heart-rate-dector\objs\gizwits_protocol.o	#SHT_PROGBITS,SHF_ALLOC|SHF_MERGE|SHF_STRINGS,1
	0x4303574b		.L.str.15
.rodata.str1.1	0x4303576d	0x23	D:\Smart-heart-rate-dector\Smart-heart-rate-dector\objs\gizwits_protocol.o	#SHT_PROGBITS,SHF_ALLOC|SHF_MERGE|SHF_STRINGS,1
	0x4303576d		.L.str.16
.rodata.str1.1	0x43035790	0x23	D:\Smart-heart-rate-dector\Smart-heart-rate-dector\objs\gizwits_protocol.o	#SHT_PROGBITS,SHF_ALLOC|SHF_MERGE|SHF_STRINGS,1
	0x43035790		.L.str.17
.rodata.str1.1	0x430357b3	0x2a	D:\Smart-heart-rate-dector\Smart-heart-rate-dector\objs\gizwits_protocol.o	#SHT_PROGBITS,SHF_ALLOC|SHF_MERGE|SHF_STRINGS,1
	0x430357b3		.L.str.18
.rodata.str1.1	0x430357dd	0x23	D:\Smart-heart-rate-dector\Smart-heart-rate-dector\objs\gizwits_protocol.o	#SHT_PROGBITS,SHF_ALLOC|SHF_MERGE|SHF_STRINGS,1
	0x430357dd		.L.str.19
.rodata.str1.1	0x43035800	0xb	D:\Smart-heart-rate-dector\Smart-heart-rate-dector\objs\gizwits_protocol.o	#SHT_PROGBITS,SHF_ALLOC|SHF_MERGE|SHF_STRINGS,1
	0x43035800		.L.str.20
.rodata.str1.1	0x4303580b	0xf	D:\Smart-heart-rate-dector\Smart-heart-rate-dector\objs\gizwits_protocol.o	#SHT_PROGBITS,SHF_ALLOC|SHF_MERGE|SHF_STRINGS,1
	0x4303580b		.L.str.21
.rodata.str1.1	0x4303581a	0x10	D:\Smart-heart-rate-dector\Smart-heart-rate-dector\objs\gizwits_protocol.o	#SHT_PROGBITS,SHF_ALLOC|SHF_MERGE|SHF_STRINGS,1
	0x4303581a		.L.str.22
.rodata.str1.1	0x4303582a	0x1c	D:\Smart-heart-rate-dector\Smart-heart-rate-dector\objs\gizwits_protocol.o	#SHT_PROGBITS,SHF_ALLOC|SHF_MERGE|SHF_STRINGS,1
	0x4303582a		.L.str.23
.rodata.str1.1	0x43035846	0x2c	D:\Smart-heart-rate-dector\Smart-heart-rate-dector\objs\gizwits_protocol.o	#SHT_PROGBITS,SHF_ALLOC|SHF_MERGE|SHF_STRINGS,1
	0x43035846		.L.str.24
.rodata.str1.1	0x43035872	0x29	D:\Smart-heart-rate-dector\Smart-heart-rate-dector\objs\gizwits_protocol.o	#SHT_PROGBITS,SHF_ALLOC|SHF_MERGE|SHF_STRINGS,1
	0x43035872		.L.str.25
.rodata.str1.1	0x4303589b	0x1e	D:\Smart-heart-rate-dector\Smart-heart-rate-dector\objs\gizwits_protocol.o	#SHT_PROGBITS,SHF_ALLOC|SHF_MERGE|SHF_STRINGS,1
	0x4303589b		.L.str.26
.rodata.str1.1	0x430358b9	0x1f	D:\Smart-heart-rate-dector\Smart-heart-rate-dector\objs\gizwits_protocol.o	#SHT_PROGBITS,SHF_ALLOC|SHF_MERGE|SHF_STRINGS,1
	0x430358b9		.L.str.27
.rodata.str1.1	0x430358d8	0x23	D:\Smart-heart-rate-dector\Smart-heart-rate-dector\objs\gizwits_protocol.o	#SHT_PROGBITS,SHF_ALLOC|SHF_MERGE|SHF_STRINGS,1
	0x430358d8		.L.str.29
.rodata.str1.1	0x430358fb	0x16	D:\Smart-heart-rate-dector\Smart-heart-rate-dector\objs\gizwits_protocol.o	#SHT_PROGBITS,SHF_ALLOC|SHF_MERGE|SHF_STRINGS,1
	0x430358fb		.L.str.30
.rodata.str1.1	0x43035911	0x32	D:\Smart-heart-rate-dector\Smart-heart-rate-dector\objs\gizwits_protocol.o	#SHT_PROGBITS,SHF_ALLOC|SHF_MERGE|SHF_STRINGS,1
	0x43035911		.L.str.31
.rodata.str1.1	0x43035943	0x8	D:\Smart-heart-rate-dector\Smart-heart-rate-dector\objs\gizwits_protocol.o	#SHT_PROGBITS,SHF_ALLOC|SHF_MERGE|SHF_STRINGS,1
	0x43035943		.L.str.32
.rodata.str1.1	0x4303594b	0x22	D:\Smart-heart-rate-dector\Smart-heart-rate-dector\objs\gizwits_protocol.o	#SHT_PROGBITS,SHF_ALLOC|SHF_MERGE|SHF_STRINGS,1
	0x4303594b		.L.str.33
.rodata.str1.1	0x4303596d	0x2b	D:\Smart-heart-rate-dector\Smart-heart-rate-dector\objs\gizwits_protocol.o	#SHT_PROGBITS,SHF_ALLOC|SHF_MERGE|SHF_STRINGS,1
	0x4303596d		.L.str.34
.rodata.str1.1	0x43035998	0x21	D:\Smart-heart-rate-dector\Smart-heart-rate-dector\objs\gizwits_protocol.o	#SHT_PROGBITS,SHF_ALLOC|SHF_MERGE|SHF_STRINGS,1
	0x43035998		.L.str.35
.rodata.str1.1	0x430359b9	0x50	D:\Smart-heart-rate-dector\Smart-heart-rate-dector\objs\gizwits_protocol.o	#SHT_PROGBITS,SHF_ALLOC|SHF_MERGE|SHF_STRINGS,1
	0x430359b9		.L.str.36
.rodata.str1.1	0x43035a09	0x16	D:\Smart-heart-rate-dector\Smart-heart-rate-dector\objs\gizwits_protocol.o	#SHT_PROGBITS,SHF_ALLOC|SHF_MERGE|SHF_STRINGS,1
	0x43035a09		.L.str.37
.rodata.str1.1	0x43035a1f	0x49	D:\Smart-heart-rate-dector\Smart-heart-rate-dector\objs\gizwits_protocol.o	#SHT_PROGBITS,SHF_ALLOC|SHF_MERGE|SHF_STRINGS,1
	0x43035a1f		.L.str.38
.rodata.str1.1	0x43035a68	0x48	D:\Smart-heart-rate-dector\Smart-heart-rate-dector\objs\gizwits_protocol.o	#SHT_PROGBITS,SHF_ALLOC|SHF_MERGE|SHF_STRINGS,1
	0x43035a68		.L.str.39
.rodata.str1.1	0x43035ab0	0x39	D:\Smart-heart-rate-dector\Smart-heart-rate-dector\objs\gizwits_protocol.o	#SHT_PROGBITS,SHF_ALLOC|SHF_MERGE|SHF_STRINGS,1
	0x43035ab0		.L.str.40
.rodata.str1.1	0x43035ae9	0xc	D:\Smart-heart-rate-dector\Smart-heart-rate-dector\objs\gizwits_protocol.o	#SHT_PROGBITS,SHF_ALLOC|SHF_MERGE|SHF_STRINGS,1
	0x43035ae9		.L.str.41
.rodata.str1.1	0x43035af5	0x35	D:\Smart-heart-rate-dector\Smart-heart-rate-dector\objs\gizwits_protocol.o	#SHT_PROGBITS,SHF_ALLOC|SHF_MERGE|SHF_STRINGS,1
	0x43035af5		.L.str.42
.rodata.str1.1	0x43035b2a	0x36	D:\Smart-heart-rate-dector\Smart-heart-rate-dector\objs\gizwits_protocol.o	#SHT_PROGBITS,SHF_ALLOC|SHF_MERGE|SHF_STRINGS,1
	0x43035b2a		.L.str.43
.rodata.str1.1	0x43035b60	0x35	D:\Smart-heart-rate-dector\Smart-heart-rate-dector\objs\gizwits_protocol.o	#SHT_PROGBITS,SHF_ALLOC|SHF_MERGE|SHF_STRINGS,1
	0x43035b60		.L.str.44
.rodata.str1.1	0x43035b95	0xe	D:\Smart-heart-rate-dector\Smart-heart-rate-dector\objs\gizwits_protocol.o	#SHT_PROGBITS,SHF_ALLOC|SHF_MERGE|SHF_STRINGS,1
	0x43035b95		.L.str.45
.rodata.str1.1	0x43035ba3	0x3d	D:\Smart-heart-rate-dector\Smart-heart-rate-dector\objs\gizwits_protocol.o	#SHT_PROGBITS,SHF_ALLOC|SHF_MERGE|SHF_STRINGS,1
	0x43035ba3		.L.str.46
.rodata.str1.1	0x43035be0	0x3c	D:\Smart-heart-rate-dector\Smart-heart-rate-dector\objs\gizwits_protocol.o	#SHT_PROGBITS,SHF_ALLOC|SHF_MERGE|SHF_STRINGS,1
	0x43035be0		.L.str.47
.rodata.str1.1	0x43035c1c	0x2a	D:\Smart-heart-rate-dector\Smart-heart-rate-dector\objs\gizwits_protocol.o	#SHT_PROGBITS,SHF_ALLOC|SHF_MERGE|SHF_STRINGS,1
	0x43035c1c		.L.str.48
.rodata.str1.1	0x43035c46	0x10	D:\Smart-heart-rate-dector\Smart-heart-rate-dector\objs\gizwits_protocol.o	#SHT_PROGBITS,SHF_ALLOC|SHF_MERGE|SHF_STRINGS,1
	0x43035c46		.L.str.56
.rodata.str1.1	0x43035c56	0x10	D:\Smart-heart-rate-dector\Smart-heart-rate-dector\objs\gizwits_protocol.o	#SHT_PROGBITS,SHF_ALLOC|SHF_MERGE|SHF_STRINGS,1
	0x43035c56		.L.str.57
.rodata.str1.1	0x43035c66	0x3	D:\Smart-heart-rate-dector\Smart-heart-rate-dector\objs\gizwits_protocol.o	#SHT_PROGBITS,SHF_ALLOC|SHF_MERGE|SHF_STRINGS,1
	0x43035c66		.L.str.58
.rodata.str1.1	0x43035c69	0xc	D:\Smart-heart-rate-dector\Smart-heart-rate-dector\objs\gizwits_protocol.o	#SHT_PROGBITS,SHF_ALLOC|SHF_MERGE|SHF_STRINGS,1
	0x43035c69		.L.str.59
.rodata.str1.1	0x43035c75	0xa	D:\Smart-heart-rate-dector\Smart-heart-rate-dector\objs\gizwits_protocol.o	#SHT_PROGBITS,SHF_ALLOC|SHF_MERGE|SHF_STRINGS,1
	0x43035c75		.L.str.60
.rodata.str1.1	0x43035c7f	0x4	D:\Smart-heart-rate-dector\Smart-heart-rate-dector\objs\gizwits_protocol.o	#SHT_PROGBITS,SHF_ALLOC|SHF_MERGE|SHF_STRINGS,1
	0x43035c7f		.L.str.61
.rodata.str1.1	0x43035c83	0x3	D:\Smart-heart-rate-dector\Smart-heart-rate-dector\objs\gizwits_protocol.o	#SHT_PROGBITS,SHF_ALLOC|SHF_MERGE|SHF_STRINGS,1
	0x43035c83		.L.str.62
.rodata.str1.1	0x43035c86	0x4	D:\Smart-heart-rate-dector\Smart-heart-rate-dector\objs\gizwits_protocol.o	#SHT_PROGBITS,SHF_ALLOC|SHF_MERGE|SHF_STRINGS,1
	0x43035c86		.L.str.63
.rodata.str1.1	0x43035c8a	0x6	D:\Smart-heart-rate-dector\Smart-heart-rate-dector\objs\gizwits_protocol.o	#SHT_PROGBITS,SHF_ALLOC|SHF_MERGE|SHF_STRINGS,1
	0x43035c8a		.L.str.64
.rodata.str1.1	0x43035c90	0x2	D:\Smart-heart-rate-dector\Smart-heart-rate-dector\objs\gizwits_protocol.o	#SHT_PROGBITS,SHF_ALLOC|SHF_MERGE|SHF_STRINGS,1
	0x43035c90		.L.str.65
.rodata.str1.1	0x43035c92	0x18	D:\Smart-heart-rate-dector\Smart-heart-rate-dector\objs\gizwits_protocol.o	#SHT_PROGBITS,SHF_ALLOC|SHF_MERGE|SHF_STRINGS,1
	0x43035c92		.L.str.66
.rodata.str1.1	0x43035caa	0x20	D:\Smart-heart-rate-dector\Smart-heart-rate-dector\objs\gizwits_protocol.o	#SHT_PROGBITS,SHF_ALLOC|SHF_MERGE|SHF_STRINGS,1
	0x43035caa		.L.str.67
.rodata.str1.1	0x43035cca	0x1f	D:\Smart-heart-rate-dector\Smart-heart-rate-dector\objs\gizwits_protocol.o	#SHT_PROGBITS,SHF_ALLOC|SHF_MERGE|SHF_STRINGS,1
	0x43035cca		.L.str.68
.rodata.str1.1	0x43035ce9	0x39	D:\Smart-heart-rate-dector\Smart-heart-rate-dector\objs\gizwits_protocol.o	#SHT_PROGBITS,SHF_ALLOC|SHF_MERGE|SHF_STRINGS,1
	0x43035ce9		.L.str.70
.rodata.str1.1	0x43035d22	0x1d	D:\Smart-heart-rate-dector\Smart-heart-rate-dector\objs\gizwits_protocol.o	#SHT_PROGBITS,SHF_ALLOC|SHF_MERGE|SHF_STRINGS,1
	0x43035d22		.L.str.72
.rodata.str1.1	0x43035d3f	0x1a	D:\Smart-heart-rate-dector\Smart-heart-rate-dector\objs\gizwits_protocol.o	#SHT_PROGBITS,SHF_ALLOC|SHF_MERGE|SHF_STRINGS,1
	0x43035d3f		.L.str.73
.rodata.str1.1	0x43035d59	0x23	D:\Smart-heart-rate-dector\Smart-heart-rate-dector\objs\gizwits_protocol.o	#SHT_PROGBITS,SHF_ALLOC|SHF_MERGE|SHF_STRINGS,1
	0x43035d59		.L.str.74
.rodata.str1.1	0x43035d7c	0x21	D:\Smart-heart-rate-dector\Smart-heart-rate-dector\objs\gizwits_protocol.o	#SHT_PROGBITS,SHF_ALLOC|SHF_MERGE|SHF_STRINGS,1
	0x43035d7c		.L.str.75
.rodata.str1.1	0x43035d9d	0x21	D:\Smart-heart-rate-dector\Smart-heart-rate-dector\objs\gizwits_protocol.o	#SHT_PROGBITS,SHF_ALLOC|SHF_MERGE|SHF_STRINGS,1
	0x43035d9d		.L.str.76
.rodata.str1.1	0x43035dbe	0x21	D:\Smart-heart-rate-dector\Smart-heart-rate-dector\objs\gizwits_protocol.o	#SHT_PROGBITS,SHF_ALLOC|SHF_MERGE|SHF_STRINGS,1
	0x43035dbe		.L.str.77
.rodata.str1.1	0x43035ddf	0x23	D:\Smart-heart-rate-dector\Smart-heart-rate-dector\objs\gizwits_protocol.o	#SHT_PROGBITS,SHF_ALLOC|SHF_MERGE|SHF_STRINGS,1
	0x43035ddf		.L.str.78
PADDING_ALIGNMENT	0x43035e02	0x6	0x0
.rodata.str1.8	0x43035e08	0x49	D:\Smart-heart-rate-dector\Smart-heart-rate-dector\objs\gizwits_protocol.o	#SHT_PROGBITS,SHF_ALLOC|SHF_MERGE|SHF_STRINGS,8
	0x43035e08		.L.str.52
	0x43035e30		.L.str.53
.rodata.str1.1	0x43035e51	0x7	D:\Smart-heart-rate-dector\Smart-heart-rate-dector\objs\gpio.o	#SHT_PROGBITS,SHF_ALLOC|SHF_MERGE|SHF_STRINGS,1
	0x43035e51		.L.str
.rodata.str1.1	0x43035e58	0x7	D:\Smart-heart-rate-dector\Smart-heart-rate-dector\objs\gpio.o	#SHT_PROGBITS,SHF_ALLOC|SHF_MERGE|SHF_STRINGS,1
	0x43035e58		.L.str.1
.rodata.str1.1	0x43035e5f	0x7	D:\Smart-heart-rate-dector\Smart-heart-rate-dector\objs\gpio.o	#SHT_PROGBITS,SHF_ALLOC|SHF_MERGE|SHF_STRINGS,1
	0x43035e5f		.L.str.2
.rodata.str1.1	0x43035e66	0x7	D:\Smart-heart-rate-dector\Smart-heart-rate-dector\objs\gpio.o	#SHT_PROGBITS,SHF_ALLOC|SHF_MERGE|SHF_STRINGS,1
	0x43035e66		.L.str.3
.rodata.str1.1	0x43035e6d	0x7	D:\Smart-heart-rate-dector\Smart-heart-rate-dector\objs\gpio.o	#SHT_PROGBITS,SHF_ALLOC|SHF_MERGE|SHF_STRINGS,1
	0x43035e6d		.L.str.4
.rodata.str1.1	0x43035e74	0x7	D:\Smart-heart-rate-dector\Smart-heart-rate-dector\objs\gpio.o	#SHT_PROGBITS,SHF_ALLOC|SHF_MERGE|SHF_STRINGS,1
	0x43035e74		.L.str.5
.rodata.str1.1	0x43035e7b	0x7	D:\Smart-heart-rate-dector\Smart-heart-rate-dector\objs\gpio.o	#SHT_PROGBITS,SHF_ALLOC|SHF_MERGE|SHF_STRINGS,1
	0x43035e7b		.L.str.6
.rodata.str1.1	0x43035e82	0x7	D:\Smart-heart-rate-dector\Smart-heart-rate-dector\objs\gpio.o	#SHT_PROGBITS,SHF_ALLOC|SHF_MERGE|SHF_STRINGS,1
	0x43035e82		.L.str.7
.rodata.str1.1	0x43035e89	0x7	D:\Smart-heart-rate-dector\Smart-heart-rate-dector\objs\gpio.o	#SHT_PROGBITS,SHF_ALLOC|SHF_MERGE|SHF_STRINGS,1
	0x43035e89		.L.str.8
.rodata.str1.1	0x43035e90	0x7	D:\Smart-heart-rate-dector\Smart-heart-rate-dector\objs\gpio.o	#SHT_PROGBITS,SHF_ALLOC|SHF_MERGE|SHF_STRINGS,1
	0x43035e90		.L.str.9
.rodata.str1.1	0x43035e97	0x7	D:\Smart-heart-rate-dector\Smart-heart-rate-dector\objs\gpio.o	#SHT_PROGBITS,SHF_ALLOC|SHF_MERGE|SHF_STRINGS,1
	0x43035e97		.L.str.10
.rodata.str1.1	0x43035e9e	0x7	D:\Smart-heart-rate-dector\Smart-heart-rate-dector\objs\gpio.o	#SHT_PROGBITS,SHF_ALLOC|SHF_MERGE|SHF_STRINGS,1
	0x43035e9e		.L.str.11
.rodata.str1.1	0x43035ea5	0x7	D:\Smart-heart-rate-dector\Smart-heart-rate-dector\objs\gpio.o	#SHT_PROGBITS,SHF_ALLOC|SHF_MERGE|SHF_STRINGS,1
	0x43035ea5		.L.str.12
.rodata.str1.1	0x43035eac	0x7	D:\Smart-heart-rate-dector\Smart-heart-rate-dector\objs\gpio.o	#SHT_PROGBITS,SHF_ALLOC|SHF_MERGE|SHF_STRINGS,1
	0x43035eac		.L.str.13
.rodata.str1.1	0x43035eb3	0x1d	D:\Smart-heart-rate-dector\Smart-heart-rate-dector\objs\gpio.o	#SHT_PROGBITS,SHF_ALLOC|SHF_MERGE|SHF_STRINGS,1
	0x43035eb3		.L.str.14
.rodata.str1.1	0x43035ed0	0x20	D:\Smart-heart-rate-dector\Smart-heart-rate-dector\objs\gpio.o	#SHT_PROGBITS,SHF_ALLOC|SHF_MERGE|SHF_STRINGS,1
	0x43035ed0		.L.str.15
.rodata.str1.1	0x43035ef0	0x1e	D:\Smart-heart-rate-dector\Smart-heart-rate-dector\objs\gpio.o	#SHT_PROGBITS,SHF_ALLOC|SHF_MERGE|SHF_STRINGS,1
	0x43035ef0		.L.str.16
.rodata.str1.1	0x43035f0e	0x1a	D:\Smart-heart-rate-dector\Smart-heart-rate-dector\objs\gpio.o	#SHT_PROGBITS,SHF_ALLOC|SHF_MERGE|SHF_STRINGS,1
	0x43035f0e		.L.str.17
.rodata.str1.1	0x43035f28	0x30	D:\Smart-heart-rate-dector\Smart-heart-rate-dector\objs\gpio.o	#SHT_PROGBITS,SHF_ALLOC|SHF_MERGE|SHF_STRINGS,1
	0x43035f28		.L.str.18
.rodata.str1.1	0x43035f58	0x31	D:\Smart-heart-rate-dector\Smart-heart-rate-dector\objs\gpio.o	#SHT_PROGBITS,SHF_ALLOC|SHF_MERGE|SHF_STRINGS,1
	0x43035f58		.L.str.19
.rodata.str1.1	0x43035f89	0x18	D:\Smart-heart-rate-dector\Smart-heart-rate-dector\objs\gpio.o	#SHT_PROGBITS,SHF_ALLOC|SHF_MERGE|SHF_STRINGS,1
	0x43035f89		.L.str.20
.rodata.str1.1	0x43035fa1	0x1b	D:\Smart-heart-rate-dector\Smart-heart-rate-dector\objs\gpio.o	#SHT_PROGBITS,SHF_ALLOC|SHF_MERGE|SHF_STRINGS,1
	0x43035fa1		.L.str.21
.rodata.str1.1	0x43035fbc	0x32	D:\Smart-heart-rate-dector\Smart-heart-rate-dector\objs\gpio.o	#SHT_PROGBITS,SHF_ALLOC|SHF_MERGE|SHF_STRINGS,1
	0x43035fbc		.L.str.22
.rodata.str1.1	0x43035fee	0x34	D:\Smart-heart-rate-dector\Smart-heart-rate-dector\objs\gpio.o	#SHT_PROGBITS,SHF_ALLOC|SHF_MERGE|SHF_STRINGS,1
	0x43035fee		.L.str.23
.rodata.str1.1	0x43036022	0x1f	D:\Smart-heart-rate-dector\Smart-heart-rate-dector\objs\gpio.o	#SHT_PROGBITS,SHF_ALLOC|SHF_MERGE|SHF_STRINGS,1
	0x43036022		.L.str.24
.rodata.str1.1	0x43036041	0x16	D:\Smart-heart-rate-dector\Smart-heart-rate-dector\objs\main.o	#SHT_PROGBITS,SHF_ALLOC|SHF_MERGE|SHF_STRINGS,1
	0x43036041		.L.str
.rodata.str1.1	0x43036057	0x19	D:\Smart-heart-rate-dector\Smart-heart-rate-dector\objs\main.o	#SHT_PROGBITS,SHF_ALLOC|SHF_MERGE|SHF_STRINGS,1
	0x43036057		.L.str.1
.rodata.str1.1	0x43036070	0x26	D:\Smart-heart-rate-dector\Smart-heart-rate-dector\objs\main.o	#SHT_PROGBITS,SHF_ALLOC|SHF_MERGE|SHF_STRINGS,1
	0x43036070		.L.str.2
.rodata.str1.1	0x43036096	0x22	D:\Smart-heart-rate-dector\Smart-heart-rate-dector\objs\main.o	#SHT_PROGBITS,SHF_ALLOC|SHF_MERGE|SHF_STRINGS,1
	0x43036096		.L.str.3
.rodata.str1.1	0x430360b8	0x21	D:\Smart-heart-rate-dector\Smart-heart-rate-dector\objs\main.o	#SHT_PROGBITS,SHF_ALLOC|SHF_MERGE|SHF_STRINGS,1
	0x430360b8		.L.str.4
.rodata.str1.1	0x430360d9	0x1b	D:\Smart-heart-rate-dector\Smart-heart-rate-dector\objs\main.o	#SHT_PROGBITS,SHF_ALLOC|SHF_MERGE|SHF_STRINGS,1
	0x430360d9		.L.str.5
.rodata.str1.1	0x430360f4	0x1d	D:\Smart-heart-rate-dector\Smart-heart-rate-dector\objs\main.o	#SHT_PROGBITS,SHF_ALLOC|SHF_MERGE|SHF_STRINGS,1
	0x430360f4		.L.str.6
.rodata.str1.1	0x43036111	0x13	D:\Smart-heart-rate-dector\Smart-heart-rate-dector\objs\main.o	#SHT_PROGBITS,SHF_ALLOC|SHF_MERGE|SHF_STRINGS,1
	0x43036111		.L.str.7
.rodata.str1.1	0x43036124	0x21	D:\Smart-heart-rate-dector\Smart-heart-rate-dector\objs\main.o	#SHT_PROGBITS,SHF_ALLOC|SHF_MERGE|SHF_STRINGS,1
	0x43036124		.L.str.8
.rodata.str1.1	0x43036145	0xa	D:\Smart-heart-rate-dector\Smart-heart-rate-dector\objs\main.o	#SHT_PROGBITS,SHF_ALLOC|SHF_MERGE|SHF_STRINGS,1
	0x43036145		.L.str.9
.rodata.str1.1	0x4303614f	0x26	D:\Smart-heart-rate-dector\Smart-heart-rate-dector\objs\main.o	#SHT_PROGBITS,SHF_ALLOC|SHF_MERGE|SHF_STRINGS,1
	0x4303614f		.L.str.10
.rodata.str1.1	0x43036175	0x20	D:\Smart-heart-rate-dector\Smart-heart-rate-dector\objs\plusensor.o	#SHT_PROGBITS,SHF_ALLOC|SHF_MERGE|SHF_STRINGS,1
	0x43036175		.L.str.1
.rodata.str1.1	0x43036195	0x31	D:\Smart-heart-rate-dector\Smart-heart-rate-dector\objs\plusensor.o	#SHT_PROGBITS,SHF_ALLOC|SHF_MERGE|SHF_STRINGS,1
	0x43036195		.L.str.2
.rodata.str1.1	0x430361c6	0x1f	D:\Smart-heart-rate-dector\Smart-heart-rate-dector\objs\plusensor.o	#SHT_PROGBITS,SHF_ALLOC|SHF_MERGE|SHF_STRINGS,1
	0x430361c6		.L.str.3
.rodata.str1.1	0x430361e5	0x4f	D:\Smart-heart-rate-dector\Smart-heart-rate-dector\objs\plusensor.o	#SHT_PROGBITS,SHF_ALLOC|SHF_MERGE|SHF_STRINGS,1
	0x430361e5		.L.str.4
.rodata.str1.1	0x43036234	0x16	D:\Smart-heart-rate-dector\Smart-heart-rate-dector\objs\plusensor.o	#SHT_PROGBITS,SHF_ALLOC|SHF_MERGE|SHF_STRINGS,1
	0x43036234		.L.str.5
.rodata.str1.1	0x4303624a	0x1b	D:\Smart-heart-rate-dector\Smart-heart-rate-dector\objs\plusensor.o	#SHT_PROGBITS,SHF_ALLOC|SHF_MERGE|SHF_STRINGS,1
	0x4303624a		.L.str.6
.rodata.str1.1	0x43036265	0x19	D:\Smart-heart-rate-dector\Smart-heart-rate-dector\objs\plusensor.o	#SHT_PROGBITS,SHF_ALLOC|SHF_MERGE|SHF_STRINGS,1
	0x43036265		.L.str.7
.rodata.str1.1	0x4303627e	0x2d	D:\Smart-heart-rate-dector\Smart-heart-rate-dector\objs\plusensor.o	#SHT_PROGBITS,SHF_ALLOC|SHF_MERGE|SHF_STRINGS,1
	0x4303627e		.L.str.8
PADDING_ALIGNMENT	0x430362ab	0x1	0x0
.rodata	0x430362ac	0x10	D:\Smart-heart-rate-dector\Smart-heart-rate-dector\objs\quectel_utils.o	#SHT_PROGBITS,SHF_ALLOC,4
	0x430362ac		quectel_format_log_msg.xx_msg_const
.rodata.str1.1	0x430362bc	0x2d	D:\Smart-heart-rate-dector\Smart-heart-rate-dector\objs\quectel_utils.o	#SHT_PROGBITS,SHF_ALLOC|SHF_MERGE|SHF_STRINGS,1
	0x430362bc		.L.str
.rodata.str1.1	0x430362e9	0x4f	D:\Smart-heart-rate-dector\Smart-heart-rate-dector\objs\quectel_utils.o	#SHT_PROGBITS,SHF_ALLOC|SHF_MERGE|SHF_STRINGS,1
	0x430362e9		.L.str.1
.rodata.str1.1	0x43036338	0xa	D:\Smart-heart-rate-dector\Smart-heart-rate-dector\gagent\libgagent.a(gagentThread.o)	#SHT_PROGBITS,SHF_ALLOC|SHF_MERGE|SHF_STRINGS,1
	0x43036338		.L.str
.rodata.str1.1	0x43036342	0x7	D:\Smart-heart-rate-dector\Smart-heart-rate-dector\gagent\libgagent.a(gagentThread.o)	#SHT_PROGBITS,SHF_ALLOC|SHF_MERGE|SHF_STRINGS,1
	0x43036342		.L.str.1
.rodata.str1.1	0x43036349	0x12	D:\Smart-heart-rate-dector\Smart-heart-rate-dector\gagent\libgagent.a(gagentThread.o)	#SHT_PROGBITS,SHF_ALLOC|SHF_MERGE|SHF_STRINGS,1
	0x43036349		.L.str.2
.rodata.str1.1	0x4303635b	0xf	D:\Smart-heart-rate-dector\Smart-heart-rate-dector\gagent\libgagent.a(gagentThread.o)	#SHT_PROGBITS,SHF_ALLOC|SHF_MERGE|SHF_STRINGS,1
	0x4303635b		.L__FUNCTION__.groudEntryInit
.rodata.str1.1	0x4303636a	0x27	D:\Smart-heart-rate-dector\Smart-heart-rate-dector\gagent\libgagent.a(gagentThread.o)	#SHT_PROGBITS,SHF_ALLOC|SHF_MERGE|SHF_STRINGS,1
	0x4303636a		.L.str.3
.rodata.str1.1	0x43036391	0xc	D:\Smart-heart-rate-dector\Smart-heart-rate-dector\gagent\libgagent.a(gagentThread.o)	#SHT_PROGBITS,SHF_ALLOC|SHF_MERGE|SHF_STRINGS,1
	0x43036391		.L.str.4
.rodata.str1.1	0x4303639d	0x9	D:\Smart-heart-rate-dector\Smart-heart-rate-dector\gagent\libgagent.a(gagentThread.o)	#SHT_PROGBITS,SHF_ALLOC|SHF_MERGE|SHF_STRINGS,1
	0x4303639d		.L.str.5
.rodata.str1.1	0x430363a6	0xb	D:\Smart-heart-rate-dector\Smart-heart-rate-dector\gagent\libgagent.a(gagentThread.o)	#SHT_PROGBITS,SHF_ALLOC|SHF_MERGE|SHF_STRINGS,1
	0x430363a6		.L.str.6
.rodata.str1.1	0x430363b1	0x17	D:\Smart-heart-rate-dector\Smart-heart-rate-dector\gagent\libgagent.a(gagentThread.o)	#SHT_PROGBITS,SHF_ALLOC|SHF_MERGE|SHF_STRINGS,1
	0x430363b1		.L.str.7
.rodata.str1.1	0x430363c8	0xb	D:\Smart-heart-rate-dector\Smart-heart-rate-dector\gagent\libgagent.a(gagentThread.o)	#SHT_PROGBITS,SHF_ALLOC|SHF_MERGE|SHF_STRINGS,1
	0x430363c8		.L__FUNCTION__.groudEvent
.rodata.str1.1	0x430363d3	0x31	D:\Smart-heart-rate-dector\Smart-heart-rate-dector\gagent\libgagent.a(gagentThread.o)	#SHT_PROGBITS,SHF_ALLOC|SHF_MERGE|SHF_STRINGS,1
	0x430363d3		.L.str.8
.rodata.str1.1	0x43036404	0x2e	D:\Smart-heart-rate-dector\Smart-heart-rate-dector\gagent\libgagent.a(gagentThread.o)	#SHT_PROGBITS,SHF_ALLOC|SHF_MERGE|SHF_STRINGS,1
	0x43036404		.L.str.9
.rodata.str1.1	0x43036432	0x9	D:\Smart-heart-rate-dector\Smart-heart-rate-dector\gagent\libgagent.a(gagentThread.o)	#SHT_PROGBITS,SHF_ALLOC|SHF_MERGE|SHF_STRINGS,1
	0x43036432		.L.str.10
.rodata.str1.1	0x4303643b	0x2e	D:\Smart-heart-rate-dector\Smart-heart-rate-dector\gagent\libgagent.a(gagentThread.o)	#SHT_PROGBITS,SHF_ALLOC|SHF_MERGE|SHF_STRINGS,1
	0x4303643b		.L.str.11
.rodata.str1.1	0x43036469	0x9	D:\Smart-heart-rate-dector\Smart-heart-rate-dector\gagent\libgagent.a(gagentThread.o)	#SHT_PROGBITS,SHF_ALLOC|SHF_MERGE|SHF_STRINGS,1
	0x43036469		.L.str.12
.rodata.str1.1	0x43036472	0x15	D:\Smart-heart-rate-dector\Smart-heart-rate-dector\gagent\libgagent.a(gagentThread.o)	#SHT_PROGBITS,SHF_ALLOC|SHF_MERGE|SHF_STRINGS,1
	0x43036472		.L__FUNCTION__.gagent_dam_app_start
.rodata.str1.1	0x43036487	0x35	D:\Smart-heart-rate-dector\Smart-heart-rate-dector\gagent\libgagent.a(gagentThread.o)	#SHT_PROGBITS,SHF_ALLOC|SHF_MERGE|SHF_STRINGS,1
	0x43036487		.L.str.13
.rodata.str1.1	0x430364bc	0x11	D:\Smart-heart-rate-dector\Smart-heart-rate-dector\gagent\libgagent.a(gagentThread.o)	#SHT_PROGBITS,SHF_ALLOC|SHF_MERGE|SHF_STRINGS,1
	0x430364bc		.L.str.14
.rodata.str1.1	0x430364cd	0x2e	D:\Smart-heart-rate-dector\Smart-heart-rate-dector\gagent\libgagent.a(gagentThread.o)	#SHT_PROGBITS,SHF_ALLOC|SHF_MERGE|SHF_STRINGS,1
	0x430364cd		.L.str.15
.rodata.str1.1	0x430364fb	0x2b	D:\Smart-heart-rate-dector\Smart-heart-rate-dector\gagent\libgagent.a(gagentThread.o)	#SHT_PROGBITS,SHF_ALLOC|SHF_MERGE|SHF_STRINGS,1
	0x430364fb		.L.str.16
.rodata.str1.1	0x43036526	0x12	D:\Smart-heart-rate-dector\Smart-heart-rate-dector\gagent\libgagent.a(gagentThread.o)	#SHT_PROGBITS,SHF_ALLOC|SHF_MERGE|SHF_STRINGS,1
	0x43036526		.L.str.17
.rodata.str1.1	0x43036538	0x2b	D:\Smart-heart-rate-dector\Smart-heart-rate-dector\gagent\libgagent.a(gagentThread.o)	#SHT_PROGBITS,SHF_ALLOC|SHF_MERGE|SHF_STRINGS,1
	0x43036538		.L.str.18
.rodata.str1.1	0x43036563	0xe	D:\Smart-heart-rate-dector\Smart-heart-rate-dector\gagent\libgagent.a(gagentThread.o)	#SHT_PROGBITS,SHF_ALLOC|SHF_MERGE|SHF_STRINGS,1
	0x43036563		.L__FUNCTION__.gatMainThread
.rodata.str1.1	0x43036571	0x27	D:\Smart-heart-rate-dector\Smart-heart-rate-dector\gagent\libgagent.a(gagentThread.o)	#SHT_PROGBITS,SHF_ALLOC|SHF_MERGE|SHF_STRINGS,1
	0x43036571		.L.str.19
.rodata.str1.1	0x43036598	0x15	D:\Smart-heart-rate-dector\Smart-heart-rate-dector\gagent\libgagent.a(gagentThread.o)	#SHT_PROGBITS,SHF_ALLOC|SHF_MERGE|SHF_STRINGS,1
	0x43036598		.L__FUNCTION__.gatStartgagentThread
.rodata.str1.1	0x430365ad	0x35	D:\Smart-heart-rate-dector\Smart-heart-rate-dector\gagent\libgagent.a(gagentThread.o)	#SHT_PROGBITS,SHF_ALLOC|SHF_MERGE|SHF_STRINGS,1
	0x430365ad		.L.str.20
.rodata.str1.1	0x430365e2	0x16	D:\Smart-heart-rate-dector\Smart-heart-rate-dector\gagent\libgagent.a(iofdev.o)	#SHT_PROGBITS,SHF_ALLOC|SHF_MERGE|SHF_STRINGS,1
	0x430365e2		.L.str.2
.rodata.str1.1	0x430365f8	0xb	D:\Smart-heart-rate-dector\Smart-heart-rate-dector\gagent\libgagent.a(iofdev.o)	#SHT_PROGBITS,SHF_ALLOC|SHF_MERGE|SHF_STRINGS,1
	0x430365f8		.L__FUNCTION__.devRestart
.rodata.str1.1	0x43036603	0x10	D:\Smart-heart-rate-dector\Smart-heart-rate-dector\gagent\libgagent.a(iofdev.o)	#SHT_PROGBITS,SHF_ALLOC|SHF_MERGE|SHF_STRINGS,1
	0x43036603		.L.str.3
.rodata.str1.1	0x43036613	0x12	D:\Smart-heart-rate-dector\Smart-heart-rate-dector\gagent\libgagent.a(iofdev.o)	#SHT_PROGBITS,SHF_ALLOC|SHF_MERGE|SHF_STRINGS,1
	0x43036613		.L__FUNCTION__.iofGatAuthKeyRead
.rodata.str1.1	0x43036625	0x35	D:\Smart-heart-rate-dector\Smart-heart-rate-dector\gagent\libgagent.a(iofdev.o)	#SHT_PROGBITS,SHF_ALLOC|SHF_MERGE|SHF_STRINGS,1
	0x43036625		.L.str.4
.rodata.str1.1	0x4303665a	0x3	D:\Smart-heart-rate-dector\Smart-heart-rate-dector\gagent\libgagent.a(iofdev.o)	#SHT_PROGBITS,SHF_ALLOC|SHF_MERGE|SHF_STRINGS,1
	0x4303665a		.L.str.5
.rodata.str1.1	0x4303665d	0x6	D:\Smart-heart-rate-dector\Smart-heart-rate-dector\gagent\libgagent.a(iofdev.o)	#SHT_PROGBITS,SHF_ALLOC|SHF_MERGE|SHF_STRINGS,1
	0x4303665d		.L.str.6
.rodata.str1.1	0x43036663	0x5	D:\Smart-heart-rate-dector\Smart-heart-rate-dector\gagent\libgagent.a(iofdev.o)	#SHT_PROGBITS,SHF_ALLOC|SHF_MERGE|SHF_STRINGS,1
	0x43036663		.L.str.7
.rodata.str1.1	0x43036668	0x16	D:\Smart-heart-rate-dector\Smart-heart-rate-dector\gagent\libgagent.a(iofdev.o)	#SHT_PROGBITS,SHF_ALLOC|SHF_MERGE|SHF_STRINGS,1
	0x43036668		.L.str.8
.rodata.str1.1	0x4303667e	0x2a	D:\Smart-heart-rate-dector\Smart-heart-rate-dector\gagent\libgagent.a(iofdev.o)	#SHT_PROGBITS,SHF_ALLOC|SHF_MERGE|SHF_STRINGS,1
	0x4303667e		.L.str.9
.rodata.str1.1	0x430366a8	0xe	D:\Smart-heart-rate-dector\Smart-heart-rate-dector\gagent\libgagent.a(iofdev.o)	#SHT_PROGBITS,SHF_ALLOC|SHF_MERGE|SHF_STRINGS,1
	0x430366a8		.L__FUNCTION__.devOtaUpgrade
.rodata.str1.1	0x430366b6	0xc	D:\Smart-heart-rate-dector\Smart-heart-rate-dector\gagent\libgagent.a(iofdev.o)	#SHT_PROGBITS,SHF_ALLOC|SHF_MERGE|SHF_STRINGS,1
	0x430366b6		.L.str.10
.rodata.str1.1	0x430366c2	0x2a	D:\Smart-heart-rate-dector\Smart-heart-rate-dector\gagent\libgagent.a(iofdev.o)	#SHT_PROGBITS,SHF_ALLOC|SHF_MERGE|SHF_STRINGS,1
	0x430366c2		.L.str.11
.rodata.str1.1	0x430366ec	0x13	D:\Smart-heart-rate-dector\Smart-heart-rate-dector\gagent\libgagent.a(iofdev.o)	#SHT_PROGBITS,SHF_ALLOC|SHF_MERGE|SHF_STRINGS,1
	0x430366ec		.L.str.12
.rodata.str1.1	0x430366ff	0xc	D:\Smart-heart-rate-dector\Smart-heart-rate-dector\gagent\libgagent.a(iofipc.o)	#SHT_PROGBITS,SHF_ALLOC|SHF_MERGE|SHF_STRINGS,1
	0x430366ff		.L__FUNCTION__.iofMsgCreat
.rodata.str1.1	0x4303670b	0x1f	D:\Smart-heart-rate-dector\Smart-heart-rate-dector\gagent\libgagent.a(iofipc.o)	#SHT_PROGBITS,SHF_ALLOC|SHF_MERGE|SHF_STRINGS,1
	0x4303670b		.L.str.2
.rodata.str1.1	0x4303672a	0x9	D:\Smart-heart-rate-dector\Smart-heart-rate-dector\gagent\libgagent.a(iofipc.o)	#SHT_PROGBITS,SHF_ALLOC|SHF_MERGE|SHF_STRINGS,1
	0x4303672a		.L.str.3
.rodata.str1.1	0x43036733	0x39	D:\Smart-heart-rate-dector\Smart-heart-rate-dector\gagent\libgagent.a(iofipc.o)	#SHT_PROGBITS,SHF_ALLOC|SHF_MERGE|SHF_STRINGS,1
	0x43036733		.L.str.4
.rodata.str1.1	0x4303676c	0x16	D:\Smart-heart-rate-dector\Smart-heart-rate-dector\gagent\libgagent.a(iofipc.o)	#SHT_PROGBITS,SHF_ALLOC|SHF_MERGE|SHF_STRINGS,1
	0x4303676c		.L.str.5
.rodata.str1.1	0x43036782	0xb	D:\Smart-heart-rate-dector\Smart-heart-rate-dector\gagent\libgagent.a(iofipc.o)	#SHT_PROGBITS,SHF_ALLOC|SHF_MERGE|SHF_STRINGS,1
	0x43036782		.L__FUNCTION__.iofSendSig
.rodata.str1.1	0x4303678d	0x32	D:\Smart-heart-rate-dector\Smart-heart-rate-dector\gagent\libgagent.a(iofipc.o)	#SHT_PROGBITS,SHF_ALLOC|SHF_MERGE|SHF_STRINGS,1
	0x4303678d		.L.str.6
.rodata.str1.1	0x430367bf	0x25	D:\Smart-heart-rate-dector\Smart-heart-rate-dector\gagent\libgagent.a(iofipc.o)	#SHT_PROGBITS,SHF_ALLOC|SHF_MERGE|SHF_STRINGS,1
	0x430367bf		.L.str.7
.rodata.str1.1	0x430367e4	0x34	D:\Smart-heart-rate-dector\Smart-heart-rate-dector\gagent\libgagent.a(iofipc.o)	#SHT_PROGBITS,SHF_ALLOC|SHF_MERGE|SHF_STRINGS,1
	0x430367e4		.L.str.8
.rodata.str1.1	0x43036818	0xe	D:\Smart-heart-rate-dector\Smart-heart-rate-dector\gagent\libgagent.a(iofipc.o)	#SHT_PROGBITS,SHF_ALLOC|SHF_MERGE|SHF_STRINGS,1
	0x43036818		.L.str.9
.rodata.str1.1	0x43036826	0xc	D:\Smart-heart-rate-dector\Smart-heart-rate-dector\gagent\libgagent.a(iofipc.o)	#SHT_PROGBITS,SHF_ALLOC|SHF_MERGE|SHF_STRINGS,1
	0x43036826		.L__FUNCTION__.iofLockInit
.rodata.str1.1	0x43036832	0x13	D:\Smart-heart-rate-dector\Smart-heart-rate-dector\gagent\libgagent.a(iofpthread.o)	#SHT_PROGBITS,SHF_ALLOC|SHF_MERGE|SHF_STRINGS,1
	0x43036832		.L.str
.rodata.str1.1	0x43036845	0x15	D:\Smart-heart-rate-dector\Smart-heart-rate-dector\gagent\libgagent.a(iofpthread.o)	#SHT_PROGBITS,SHF_ALLOC|SHF_MERGE|SHF_STRINGS,1
	0x43036845		.L.str.1
.rodata.str1.1	0x4303685a	0x14	D:\Smart-heart-rate-dector\Smart-heart-rate-dector\gagent\libgagent.a(iofpthread.o)	#SHT_PROGBITS,SHF_ALLOC|SHF_MERGE|SHF_STRINGS,1
	0x4303685a		.L.str.2
.rodata.str1.1	0x4303686e	0x11	D:\Smart-heart-rate-dector\Smart-heart-rate-dector\gagent\libgagent.a(iofpthread.o)	#SHT_PROGBITS,SHF_ALLOC|SHF_MERGE|SHF_STRINGS,1
	0x4303686e		.L.str.3
.rodata.str1.1	0x4303687f	0x10	D:\Smart-heart-rate-dector\Smart-heart-rate-dector\gagent\libgagent.a(iofpthread.o)	#SHT_PROGBITS,SHF_ALLOC|SHF_MERGE|SHF_STRINGS,1
	0x4303687f		.L.str.4
.rodata.str1.1	0x4303688f	0x14	D:\Smart-heart-rate-dector\Smart-heart-rate-dector\gagent\libgagent.a(iofpthread.o)	#SHT_PROGBITS,SHF_ALLOC|SHF_MERGE|SHF_STRINGS,1
	0x4303688f		.L.str.5
.rodata.str1.1	0x430368a3	0x13	D:\Smart-heart-rate-dector\Smart-heart-rate-dector\gagent\libgagent.a(iofpthread.o)	#SHT_PROGBITS,SHF_ALLOC|SHF_MERGE|SHF_STRINGS,1
	0x430368a3		.L.str.6
.rodata.str1.1	0x430368b6	0xd	D:\Smart-heart-rate-dector\Smart-heart-rate-dector\gagent\libgagent.a(iofpthread.o)	#SHT_PROGBITS,SHF_ALLOC|SHF_MERGE|SHF_STRINGS,1
	0x430368b6		.L.str.7
.rodata.str1.1	0x430368c3	0xd	D:\Smart-heart-rate-dector\Smart-heart-rate-dector\gagent\libgagent.a(iofpthread.o)	#SHT_PROGBITS,SHF_ALLOC|SHF_MERGE|SHF_STRINGS,1
	0x430368c3		.L.str.8
.rodata.str1.1	0x430368d0	0x15	D:\Smart-heart-rate-dector\Smart-heart-rate-dector\gagent\libgagent.a(iofpthread.o)	#SHT_PROGBITS,SHF_ALLOC|SHF_MERGE|SHF_STRINGS,1
	0x430368d0		.L.str.9
.rodata.str1.1	0x430368e5	0x11	D:\Smart-heart-rate-dector\Smart-heart-rate-dector\gagent\libgagent.a(iofpthread.o)	#SHT_PROGBITS,SHF_ALLOC|SHF_MERGE|SHF_STRINGS,1
	0x430368e5		.L__FUNCTION__.iofPthreadCreate
.rodata.str1.1	0x430368f6	0x22	D:\Smart-heart-rate-dector\Smart-heart-rate-dector\gagent\libgagent.a(iofpthread.o)	#SHT_PROGBITS,SHF_ALLOC|SHF_MERGE|SHF_STRINGS,1
	0x430368f6		.L.str.12
.rodata.str1.1	0x43036918	0x2f	D:\Smart-heart-rate-dector\Smart-heart-rate-dector\gagent\libgagent.a(iofpthread.o)	#SHT_PROGBITS,SHF_ALLOC|SHF_MERGE|SHF_STRINGS,1
	0x43036918		.L.str.13
.rodata.str1.1	0x43036947	0x2c	D:\Smart-heart-rate-dector\Smart-heart-rate-dector\gagent\libgagent.a(iofpthread.o)	#SHT_PROGBITS,SHF_ALLOC|SHF_MERGE|SHF_STRINGS,1
	0x43036947		.L.str.14
.rodata.str1.1	0x43036973	0x30	D:\Smart-heart-rate-dector\Smart-heart-rate-dector\gagent\libgagent.a(iofpthread.o)	#SHT_PROGBITS,SHF_ALLOC|SHF_MERGE|SHF_STRINGS,1
	0x43036973		.L.str.15
.rodata.str1.1	0x430369a3	0x35	D:\Smart-heart-rate-dector\Smart-heart-rate-dector\gagent\libgagent.a(iofpthread.o)	#SHT_PROGBITS,SHF_ALLOC|SHF_MERGE|SHF_STRINGS,1
	0x430369a3		.L.str.16
.rodata.str1.1	0x430369d8	0x1f	D:\Smart-heart-rate-dector\Smart-heart-rate-dector\gagent\libgagent.a(iofpthread.o)	#SHT_PROGBITS,SHF_ALLOC|SHF_MERGE|SHF_STRINGS,1
	0x430369d8		.L.str.17
.rodata.str1.1	0x430369f7	0x12	D:\Smart-heart-rate-dector\Smart-heart-rate-dector\gagent\libgagent.a(iofpthread.o)	#SHT_PROGBITS,SHF_ALLOC|SHF_MERGE|SHF_STRINGS,1
	0x430369f7		.L__FUNCTION__.iofPthreadNameSet
.rodata.str1.1	0x43036a09	0x2a	D:\Smart-heart-rate-dector\Smart-heart-rate-dector\gagent\libgagent.a(iofpthread.o)	#SHT_PROGBITS,SHF_ALLOC|SHF_MERGE|SHF_STRINGS,1
	0x43036a09		.L.str.18
.rodata.str1.1	0x43036a33	0x5	D:\Smart-heart-rate-dector\Smart-heart-rate-dector\gagent\libgagent.a(iofpthread.o)	#SHT_PROGBITS,SHF_ALLOC|SHF_MERGE|SHF_STRINGS,1
	0x43036a33		.L.str.19
.rodata.str1.1	0x43036a38	0x5	D:\Smart-heart-rate-dector\Smart-heart-rate-dector\gagent\libgagent.a(iofpthread.o)	#SHT_PROGBITS,SHF_ALLOC|SHF_MERGE|SHF_STRINGS,1
	0x43036a38		.L.str.20
.rodata.str1.1	0x43036a3d	0x8	D:\Smart-heart-rate-dector\Smart-heart-rate-dector\gagent\libgagent.a(iofpthread.o)	#SHT_PROGBITS,SHF_ALLOC|SHF_MERGE|SHF_STRINGS,1
	0x43036a3d		.L.str.21
.rodata.str1.1	0x43036a45	0x2d	D:\Smart-heart-rate-dector\Smart-heart-rate-dector\gagent\libgagent.a(iofpthread.o)	#SHT_PROGBITS,SHF_ALLOC|SHF_MERGE|SHF_STRINGS,1
	0x43036a45		.L.str.22
.rodata.str1.1	0x43036a72	0x15	D:\Smart-heart-rate-dector\Smart-heart-rate-dector\gagent\libgagent.a(iofpthread.o)	#SHT_PROGBITS,SHF_ALLOC|SHF_MERGE|SHF_STRINGS,1
	0x43036a72		.L.str.23
.rodata.str1.1	0x43036a87	0x13	D:\Smart-heart-rate-dector\Smart-heart-rate-dector\gagent\libgagent.a(iofpthread.o)	#SHT_PROGBITS,SHF_ALLOC|SHF_MERGE|SHF_STRINGS,1
	0x43036a87		.L.str.24
.rodata.str1.1	0x43036a9a	0x10	D:\Smart-heart-rate-dector\Smart-heart-rate-dector\gagent\libgagent.a(iofpthread.o)	#SHT_PROGBITS,SHF_ALLOC|SHF_MERGE|SHF_STRINGS,1
	0x43036a9a		.L.str.25
.rodata.str1.1	0x43036aaa	0x13	D:\Smart-heart-rate-dector\Smart-heart-rate-dector\gagent\libgagent.a(iofpthread.o)	#SHT_PROGBITS,SHF_ALLOC|SHF_MERGE|SHF_STRINGS,1
	0x43036aaa		.L.str.26
.rodata.str1.1	0x43036abd	0x27	D:\Smart-heart-rate-dector\Smart-heart-rate-dector\gagent\libgagent.a(iofstring.o)	#SHT_PROGBITS,SHF_ALLOC|SHF_MERGE|SHF_STRINGS,1
	0x43036abd		.L.str.2
.rodata.str1.1	0x43036ae4	0x30	D:\Smart-heart-rate-dector\Smart-heart-rate-dector\gagent\libgagent.a(iofstring.o)	#SHT_PROGBITS,SHF_ALLOC|SHF_MERGE|SHF_STRINGS,1
	0x43036ae4		.L.str.3
.rodata.str1.1	0x43036b14	0x2f	D:\Smart-heart-rate-dector\Smart-heart-rate-dector\gagent\libgagent.a(iofstring.o)	#SHT_PROGBITS,SHF_ALLOC|SHF_MERGE|SHF_STRINGS,1
	0x43036b14		.L.str.4
.rodata.str1.1	0x43036b43	0x2b	D:\Smart-heart-rate-dector\Smart-heart-rate-dector\gagent\libgagent.a(iofstring.o)	#SHT_PROGBITS,SHF_ALLOC|SHF_MERGE|SHF_STRINGS,1
	0x43036b43		.L.str.5
.rodata.str1.1	0x43036b6e	0x25	D:\Smart-heart-rate-dector\Smart-heart-rate-dector\gagent\libgagent.a(iofstring.o)	#SHT_PROGBITS,SHF_ALLOC|SHF_MERGE|SHF_STRINGS,1
	0x43036b6e		.L.str.6
.rodata.str1.1	0x43036b93	0x20	D:\Smart-heart-rate-dector\Smart-heart-rate-dector\gagent\libgagent.a(iofstring.o)	#SHT_PROGBITS,SHF_ALLOC|SHF_MERGE|SHF_STRINGS,1
	0x43036b93		.L.str.7
.rodata.str1.1	0x43036bb3	0x17	D:\Smart-heart-rate-dector\Smart-heart-rate-dector\gagent\libgagent.a(iofstring.o)	#SHT_PROGBITS,SHF_ALLOC|SHF_MERGE|SHF_STRINGS,1
	0x43036bb3		.L.str.8
.rodata.str1.1	0x43036bca	0x18	D:\Smart-heart-rate-dector\Smart-heart-rate-dector\gagent\libgagent.a(iofstring.o)	#SHT_PROGBITS,SHF_ALLOC|SHF_MERGE|SHF_STRINGS,1
	0x43036bca		.L.str.9
.rodata.str1.1	0x43036be2	0x1f	D:\Smart-heart-rate-dector\Smart-heart-rate-dector\gagent\libgagent.a(local.o)	#SHT_PROGBITS,SHF_ALLOC|SHF_MERGE|SHF_STRINGS,1
	0x43036be2		.L.str.2
.rodata.str1.1	0x43036c01	0x3a	D:\Smart-heart-rate-dector\Smart-heart-rate-dector\gagent\libgagent.a(local.o)	#SHT_PROGBITS,SHF_ALLOC|SHF_MERGE|SHF_STRINGS,1
	0x43036c01		.L.str.4
.rodata.str1.1	0x43036c3b	0x29	D:\Smart-heart-rate-dector\Smart-heart-rate-dector\gagent\libgagent.a(local.o)	#SHT_PROGBITS,SHF_ALLOC|SHF_MERGE|SHF_STRINGS,1
	0x43036c3b		.L.str.5
.rodata.str1.1	0x43036c64	0x22	D:\Smart-heart-rate-dector\Smart-heart-rate-dector\gagent\libgagent.a(local.o)	#SHT_PROGBITS,SHF_ALLOC|SHF_MERGE|SHF_STRINGS,1
	0x43036c64		.L.str.6
.rodata.str1.1	0x43036c86	0x1b	D:\Smart-heart-rate-dector\Smart-heart-rate-dector\gagent\libgagent.a(local.o)	#SHT_PROGBITS,SHF_ALLOC|SHF_MERGE|SHF_STRINGS,1
	0x43036c86		.L.str.7
.rodata.str1.1	0x43036ca1	0x2e	D:\Smart-heart-rate-dector\Smart-heart-rate-dector\gagent\libgagent.a(local.o)	#SHT_PROGBITS,SHF_ALLOC|SHF_MERGE|SHF_STRINGS,1
	0x43036ca1		.L.str.9
.rodata.str1.1	0x43036ccf	0x27	D:\Smart-heart-rate-dector\Smart-heart-rate-dector\gagent\libgagent.a(local.o)	#SHT_PROGBITS,SHF_ALLOC|SHF_MERGE|SHF_STRINGS,1
	0x43036ccf		.L.str.10
.rodata.str1.1	0x43036cf6	0x27	D:\Smart-heart-rate-dector\Smart-heart-rate-dector\gagent\libgagent.a(local.o)	#SHT_PROGBITS,SHF_ALLOC|SHF_MERGE|SHF_STRINGS,1
	0x43036cf6		.L.str.11
.rodata.str1.1	0x43036d1d	0x27	D:\Smart-heart-rate-dector\Smart-heart-rate-dector\gagent\libgagent.a(local.o)	#SHT_PROGBITS,SHF_ALLOC|SHF_MERGE|SHF_STRINGS,1
	0x43036d1d		.L.str.12
.rodata.str1.1	0x43036d44	0x27	D:\Smart-heart-rate-dector\Smart-heart-rate-dector\gagent\libgagent.a(local.o)	#SHT_PROGBITS,SHF_ALLOC|SHF_MERGE|SHF_STRINGS,1
	0x43036d44		.L.str.13
.rodata.str1.1	0x43036d6b	0x27	D:\Smart-heart-rate-dector\Smart-heart-rate-dector\gagent\libgagent.a(local.o)	#SHT_PROGBITS,SHF_ALLOC|SHF_MERGE|SHF_STRINGS,1
	0x43036d6b		.L.str.14
.rodata.str1.1	0x43036d92	0x27	D:\Smart-heart-rate-dector\Smart-heart-rate-dector\gagent\libgagent.a(local.o)	#SHT_PROGBITS,SHF_ALLOC|SHF_MERGE|SHF_STRINGS,1
	0x43036d92		.L.str.15
.rodata.str1.1	0x43036db9	0x27	D:\Smart-heart-rate-dector\Smart-heart-rate-dector\gagent\libgagent.a(local.o)	#SHT_PROGBITS,SHF_ALLOC|SHF_MERGE|SHF_STRINGS,1
	0x43036db9		.L.str.16
.rodata.str1.1	0x43036de0	0x28	D:\Smart-heart-rate-dector\Smart-heart-rate-dector\gagent\libgagent.a(local.o)	#SHT_PROGBITS,SHF_ALLOC|SHF_MERGE|SHF_STRINGS,1
	0x43036de0		.L.str.17
.rodata.str1.1	0x43036e08	0x8	D:\Smart-heart-rate-dector\Smart-heart-rate-dector\gagent\libgagent.a(local.o)	#SHT_PROGBITS,SHF_ALLOC|SHF_MERGE|SHF_STRINGS,1
	0x43036e08		.L.str.22
.rodata.str1.1	0x43036e10	0x9	D:\Smart-heart-rate-dector\Smart-heart-rate-dector\gagent\libgagent.a(local.o)	#SHT_PROGBITS,SHF_ALLOC|SHF_MERGE|SHF_STRINGS,1
	0x43036e10		.L.str.23
.rodata.str1.1	0x43036e19	0x7	D:\Smart-heart-rate-dector\Smart-heart-rate-dector\gagent\libgagent.a(local.o)	#SHT_PROGBITS,SHF_ALLOC|SHF_MERGE|SHF_STRINGS,1
	0x43036e19		.L.str.24
.rodata.str1.1	0x43036e20	0x5	D:\Smart-heart-rate-dector\Smart-heart-rate-dector\gagent\libgagent.a(local.o)	#SHT_PROGBITS,SHF_ALLOC|SHF_MERGE|SHF_STRINGS,1
	0x43036e20		.L.str.25
.rodata.str1.1	0x43036e25	0x7	D:\Smart-heart-rate-dector\Smart-heart-rate-dector\gagent\libgagent.a(local.o)	#SHT_PROGBITS,SHF_ALLOC|SHF_MERGE|SHF_STRINGS,1
	0x43036e25		.L.str.26
.rodata.str1.1	0x43036e2c	0x8	D:\Smart-heart-rate-dector\Smart-heart-rate-dector\gagent\libgagent.a(local.o)	#SHT_PROGBITS,SHF_ALLOC|SHF_MERGE|SHF_STRINGS,1
	0x43036e2c		.L.str.27
.rodata.str1.1	0x43036e34	0x6	D:\Smart-heart-rate-dector\Smart-heart-rate-dector\gagent\libgagent.a(local.o)	#SHT_PROGBITS,SHF_ALLOC|SHF_MERGE|SHF_STRINGS,1
	0x43036e34		.L.str.28
.rodata.str1.1	0x43036e3a	0xa	D:\Smart-heart-rate-dector\Smart-heart-rate-dector\gagent\libgagent.a(local.o)	#SHT_PROGBITS,SHF_ALLOC|SHF_MERGE|SHF_STRINGS,1
	0x43036e3a		.L.str.29
.rodata.str1.1	0x43036e44	0x6	D:\Smart-heart-rate-dector\Smart-heart-rate-dector\gagent\libgagent.a(local.o)	#SHT_PROGBITS,SHF_ALLOC|SHF_MERGE|SHF_STRINGS,1
	0x43036e44		.L.str.30
.rodata.str1.1	0x43036e4a	0x3	D:\Smart-heart-rate-dector\Smart-heart-rate-dector\gagent\libgagent.a(local.o)	#SHT_PROGBITS,SHF_ALLOC|SHF_MERGE|SHF_STRINGS,1
	0x43036e4a		.L.str.31
.rodata.str1.1	0x43036e4d	0x8	D:\Smart-heart-rate-dector\Smart-heart-rate-dector\gagent\libgagent.a(local.o)	#SHT_PROGBITS,SHF_ALLOC|SHF_MERGE|SHF_STRINGS,1
	0x43036e4d		.L.str.32
.rodata.str1.1	0x43036e55	0xa	D:\Smart-heart-rate-dector\Smart-heart-rate-dector\gagent\libgagent.a(local.o)	#SHT_PROGBITS,SHF_ALLOC|SHF_MERGE|SHF_STRINGS,1
	0x43036e55		.L.str.33
.rodata.str1.1	0x43036e5f	0x8	D:\Smart-heart-rate-dector\Smart-heart-rate-dector\gagent\libgagent.a(local.o)	#SHT_PROGBITS,SHF_ALLOC|SHF_MERGE|SHF_STRINGS,1
	0x43036e5f		.L.str.34
.rodata.str1.1	0x43036e67	0x10	D:\Smart-heart-rate-dector\Smart-heart-rate-dector\gagent\libgagent.a(local.o)	#SHT_PROGBITS,SHF_ALLOC|SHF_MERGE|SHF_STRINGS,1
	0x43036e67		.L.str.35
.rodata.str1.1	0x43036e77	0x2b	D:\Smart-heart-rate-dector\Smart-heart-rate-dector\gagent\libgagent.a(local.o)	#SHT_PROGBITS,SHF_ALLOC|SHF_MERGE|SHF_STRINGS,1
	0x43036e77		.L.str.36
.rodata.str1.1	0x43036ea2	0x11	D:\Smart-heart-rate-dector\Smart-heart-rate-dector\gagent\libgagent.a(local.o)	#SHT_PROGBITS,SHF_ALLOC|SHF_MERGE|SHF_STRINGS,1
	0x43036ea2		.L__FUNCTION__.gatAppData2Local
.rodata.str1.1	0x43036eb3	0x3c	D:\Smart-heart-rate-dector\Smart-heart-rate-dector\gagent\libgagent.a(local.o)	#SHT_PROGBITS,SHF_ALLOC|SHF_MERGE|SHF_STRINGS,1
	0x43036eb3		.L.str.37
.rodata.str1.1	0x43036eef	0x2d	D:\Smart-heart-rate-dector\Smart-heart-rate-dector\gagent\libgagent.a(local.o)	#SHT_PROGBITS,SHF_ALLOC|SHF_MERGE|SHF_STRINGS,1
	0x43036eef		.L.str.38
.rodata.str1.1	0x43036f1c	0xe	D:\Smart-heart-rate-dector\Smart-heart-rate-dector\gagent\libgagent.a(local.o)	#SHT_PROGBITS,SHF_ALLOC|SHF_MERGE|SHF_STRINGS,1
	0x43036f1c		.L.str.39
.rodata.str1.1	0x43036f2a	0x11	D:\Smart-heart-rate-dector\Smart-heart-rate-dector\gagent\libgagent.a(local.o)	#SHT_PROGBITS,SHF_ALLOC|SHF_MERGE|SHF_STRINGS,1
	0x43036f2a		.L.str.40
.rodata.str1.1	0x43036f3b	0x13	D:\Smart-heart-rate-dector\Smart-heart-rate-dector\gagent\libgagent.a(local.o)	#SHT_PROGBITS,SHF_ALLOC|SHF_MERGE|SHF_STRINGS,1
	0x43036f3b		.L.str.41
.rodata.str1.1	0x43036f4e	0x1e	D:\Smart-heart-rate-dector\Smart-heart-rate-dector\gagent\libgagent.a(local.o)	#SHT_PROGBITS,SHF_ALLOC|SHF_MERGE|SHF_STRINGS,1
	0x43036f4e		.L.str.42
.rodata.str1.1	0x43036f6c	0xe	D:\Smart-heart-rate-dector\Smart-heart-rate-dector\gagent\libgagent.a(local.o)	#SHT_PROGBITS,SHF_ALLOC|SHF_MERGE|SHF_STRINGS,1
	0x43036f6c		.L__FUNCTION__.GAgentInfoGet
.rodata.str1.1	0x43036f7a	0x1c	D:\Smart-heart-rate-dector\Smart-heart-rate-dector\gagent\libgagent.a(local.o)	#SHT_PROGBITS,SHF_ALLOC|SHF_MERGE|SHF_STRINGS,1
	0x43036f7a		.L.str.43
.rodata.str1.1	0x43036f96	0x13	D:\Smart-heart-rate-dector\Smart-heart-rate-dector\gagent\libgagent.a(local.o)	#SHT_PROGBITS,SHF_ALLOC|SHF_MERGE|SHF_STRINGS,1
	0x43036f96		.L__FUNCTION__.gatLocalSendStatus
.rodata.str1.1	0x43036fa9	0x34	D:\Smart-heart-rate-dector\Smart-heart-rate-dector\gagent\libgagent.a(local.o)	#SHT_PROGBITS,SHF_ALLOC|SHF_MERGE|SHF_STRINGS,1
	0x43036fa9		.L.str.44
.rodata.str1.1	0x43036fdd	0x20	D:\Smart-heart-rate-dector\Smart-heart-rate-dector\gagent\libgagent.a(local.o)	#SHT_PROGBITS,SHF_ALLOC|SHF_MERGE|SHF_STRINGS,1
	0x43036fdd		.L.str.45
.rodata.str1.1	0x43036ffd	0x19	D:\Smart-heart-rate-dector\Smart-heart-rate-dector\gagent\libgagent.a(local.o)	#SHT_PROGBITS,SHF_ALLOC|SHF_MERGE|SHF_STRINGS,1
	0x43036ffd		.L.str.46
.rodata.str1.1	0x43037016	0x10	D:\Smart-heart-rate-dector\Smart-heart-rate-dector\gagent\libgagent.a(local.o)	#SHT_PROGBITS,SHF_ALLOC|SHF_MERGE|SHF_STRINGS,1
	0x43037016		.L.str.47
.rodata.str1.1	0x43037026	0x13	D:\Smart-heart-rate-dector\Smart-heart-rate-dector\gagent\libgagent.a(local.o)	#SHT_PROGBITS,SHF_ALLOC|SHF_MERGE|SHF_STRINGS,1
	0x43037026		.L__FUNCTION__.gatLocalStatusSync
.rodata.str1.1	0x43037039	0x18	D:\Smart-heart-rate-dector\Smart-heart-rate-dector\gagent\libgagent.a(localcomm.o)	#SHT_PROGBITS,SHF_ALLOC|SHF_MERGE|SHF_STRINGS,1
	0x43037039		.L.str.2
.rodata.str1.1	0x43037051	0x13	D:\Smart-heart-rate-dector\Smart-heart-rate-dector\gagent\libgagent.a(localcomm.o)	#SHT_PROGBITS,SHF_ALLOC|SHF_MERGE|SHF_STRINGS,1
	0x43037051		.L__FUNCTION__.gatEnableBindStart
.rodata.str1.1	0x43037064	0x12	D:\Smart-heart-rate-dector\Smart-heart-rate-dector\gagent\libgagent.a(localcomm.o)	#SHT_PROGBITS,SHF_ALLOC|SHF_MERGE|SHF_STRINGS,1
	0x43037064		.L.str.3
.rodata.str1.1	0x43037076	0x2c	D:\Smart-heart-rate-dector\Smart-heart-rate-dector\gagent\libgagent.a(localcomm.o)	#SHT_PROGBITS,SHF_ALLOC|SHF_MERGE|SHF_STRINGS,1
	0x43037076		.L.str.4
.rodata.str1.1	0x430370a2	0xf	D:\Smart-heart-rate-dector\Smart-heart-rate-dector\gagent\libgagent.a(localcomm.o)	#SHT_PROGBITS,SHF_ALLOC|SHF_MERGE|SHF_STRINGS,1
	0x430370a2		.L.str.5
.rodata.str1.1	0x430370b1	0xf	D:\Smart-heart-rate-dector\Smart-heart-rate-dector\gagent\libgagent.a(localcomm.o)	#SHT_PROGBITS,SHF_ALLOC|SHF_MERGE|SHF_STRINGS,1
	0x430370b1		.L__FUNCTION__.gatFactoryMode
.rodata.str1.1	0x430370c0	0x26	D:\Smart-heart-rate-dector\Smart-heart-rate-dector\gagent\libgagent.a(localcomm.o)	#SHT_PROGBITS,SHF_ALLOC|SHF_MERGE|SHF_STRINGS,1
	0x430370c0		.L.str.6
.rodata.str1.1	0x430370e6	0xc	D:\Smart-heart-rate-dector\Smart-heart-rate-dector\gagent\libgagent.a(localcomm.o)	#SHT_PROGBITS,SHF_ALLOC|SHF_MERGE|SHF_STRINGS,1
	0x430370e6		.L.str.7
.rodata.str1.1	0x430370f2	0x5	D:\Smart-heart-rate-dector\Smart-heart-rate-dector\gagent\libgagent.a(localcomm.o)	#SHT_PROGBITS,SHF_ALLOC|SHF_MERGE|SHF_STRINGS,1
	0x430370f2		.L.str.12
.rodata.str1.1	0x430370f7	0x1a	D:\Smart-heart-rate-dector\Smart-heart-rate-dector\gagent\libgagent.a(localcomm.o)	#SHT_PROGBITS,SHF_ALLOC|SHF_MERGE|SHF_STRINGS,1
	0x430370f7		.L.str.13
.rodata.str1.1	0x43037111	0xc	D:\Smart-heart-rate-dector\Smart-heart-rate-dector\gagent\libgagent.a(localcomm.o)	#SHT_PROGBITS,SHF_ALLOC|SHF_MERGE|SHF_STRINGS,1
	0x43037111		.L.str.14
.rodata.str1.1	0x4303711d	0x35	D:\Smart-heart-rate-dector\Smart-heart-rate-dector\gagent\libgagent.a(localcomm.o)	#SHT_PROGBITS,SHF_ALLOC|SHF_MERGE|SHF_STRINGS,1
	0x4303711d		.L.str.15
.rodata.str1.1	0x43037152	0x9	D:\Smart-heart-rate-dector\Smart-heart-rate-dector\gagent\libgagent.a(localcomm.o)	#SHT_PROGBITS,SHF_ALLOC|SHF_MERGE|SHF_STRINGS,1
	0x43037152		.L.str.18
.rodata.str1.1	0x4303715b	0x11	D:\Smart-heart-rate-dector\Smart-heart-rate-dector\gagent\libgagent.a(localcomm.o)	#SHT_PROGBITS,SHF_ALLOC|SHF_MERGE|SHF_STRINGS,1
	0x4303715b		.L.str.19
.rodata.str1.1	0x4303716c	0xd	D:\Smart-heart-rate-dector\Smart-heart-rate-dector\gagent\libgagent.a(localcomm.o)	#SHT_PROGBITS,SHF_ALLOC|SHF_MERGE|SHF_STRINGS,1
	0x4303716c		.L__FUNCTION__.gatEnterTest
.rodata.str1.1	0x43037179	0x16	D:\Smart-heart-rate-dector\Smart-heart-rate-dector\gagent\libgagent.a(localcomm.o)	#SHT_PROGBITS,SHF_ALLOC|SHF_MERGE|SHF_STRINGS,1
	0x43037179		.L__FUNCTION__.gatLocalGAgentRestart
.rodata.str1.1	0x4303718f	0x10	D:\Smart-heart-rate-dector\Smart-heart-rate-dector\gagent\libgagent.a(localcomm.o)	#SHT_PROGBITS,SHF_ALLOC|SHF_MERGE|SHF_STRINGS,1
	0x4303718f		.L.str.20
.rodata.str1.1	0x4303719f	0x1c	D:\Smart-heart-rate-dector\Smart-heart-rate-dector\gagent\libgagent.a(localcomm.o)	#SHT_PROGBITS,SHF_ALLOC|SHF_MERGE|SHF_STRINGS,1
	0x4303719f		.L__FUNCTION__.gatLocalErrHandleAckTimeOut
.rodata.str1.1	0x430371bb	0x3b	D:\Smart-heart-rate-dector\Smart-heart-rate-dector\gagent\libgagent.a(localcomm.o)	#SHT_PROGBITS,SHF_ALLOC|SHF_MERGE|SHF_STRINGS,1
	0x430371bb		.L.str.21
.rodata.str1.1	0x430371f6	0x23	D:\Smart-heart-rate-dector\Smart-heart-rate-dector\gagent\libgagent.a(localcomm.o)	#SHT_PROGBITS,SHF_ALLOC|SHF_MERGE|SHF_STRINGS,1
	0x430371f6		.L.str.22
.rodata.str1.1	0x43037219	0x17	D:\Smart-heart-rate-dector\Smart-heart-rate-dector\gagent\libgagent.a(localcomm.o)	#SHT_PROGBITS,SHF_ALLOC|SHF_MERGE|SHF_STRINGS,1
	0x43037219		.L.str.23
.rodata.str1.1	0x43037230	0xf	D:\Smart-heart-rate-dector\Smart-heart-rate-dector\gagent\libgagent.a(localcomm.o)	#SHT_PROGBITS,SHF_ALLOC|SHF_MERGE|SHF_STRINGS,1
	0x43037230		.L__FUNCTION__.gatLocalHandle
.rodata.str1.1	0x4303723f	0x12	D:\Smart-heart-rate-dector\Smart-heart-rate-dector\gagent\libgagent.a(localcomm.o)	#SHT_PROGBITS,SHF_ALLOC|SHF_MERGE|SHF_STRINGS,1
	0x4303723f		.L.str.26
.rodata.str1.1	0x43037251	0x18	D:\Smart-heart-rate-dector\Smart-heart-rate-dector\gagent\libgagent.a(localcomm.o)	#SHT_PROGBITS,SHF_ALLOC|SHF_MERGE|SHF_STRINGS,1
	0x43037251		.L__FUNCTION__.gatLocalSignalCheckTick
.rodata.str1.1	0x43037269	0x1b	D:\Smart-heart-rate-dector\Smart-heart-rate-dector\gagent\libgagent.a(localcomm.o)	#SHT_PROGBITS,SHF_ALLOC|SHF_MERGE|SHF_STRINGS,1
	0x43037269		.L.str.28
.rodata.str1.1	0x43037284	0x13	D:\Smart-heart-rate-dector\Smart-heart-rate-dector\gagent\libgagent.a(localcomm.o)	#SHT_PROGBITS,SHF_ALLOC|SHF_MERGE|SHF_STRINGS,1
	0x43037284		.L.str.29
.rodata.str1.1	0x43037297	0x1b	D:\Smart-heart-rate-dector\Smart-heart-rate-dector\gagent\libgagent.a(localcomm.o)	#SHT_PROGBITS,SHF_ALLOC|SHF_MERGE|SHF_STRINGS,1
	0x43037297		.L.str.30
.rodata.str1.1	0x430372b2	0x15	D:\Smart-heart-rate-dector\Smart-heart-rate-dector\gagent\libgagent.a(localcomm.o)	#SHT_PROGBITS,SHF_ALLOC|SHF_MERGE|SHF_STRINGS,1
	0x430372b2		.L__FUNCTION__.gatEnableBindTimeOut
.rodata.str1.1	0x430372c7	0x14	D:\Smart-heart-rate-dector\Smart-heart-rate-dector\gagent\libgagent.a(localio.o)	#SHT_PROGBITS,SHF_ALLOC|SHF_MERGE|SHF_STRINGS,1
	0x430372c7		.L__FUNCTION__.localChannelNodeGet
.rodata.str1.1	0x430372db	0x19	D:\Smart-heart-rate-dector\Smart-heart-rate-dector\gagent\libgagent.a(localio.o)	#SHT_PROGBITS,SHF_ALLOC|SHF_MERGE|SHF_STRINGS,1
	0x430372db		.L.str
.rodata.str1.1	0x430372f4	0x1a	D:\Smart-heart-rate-dector\Smart-heart-rate-dector\gagent\libgagent.a(localio.o)	#SHT_PROGBITS,SHF_ALLOC|SHF_MERGE|SHF_STRINGS,1
	0x430372f4		.L.str.3
.rodata.str1.1	0x4303730e	0xf	D:\Smart-heart-rate-dector\Smart-heart-rate-dector\gagent\libgagent.a(localio.o)	#SHT_PROGBITS,SHF_ALLOC|SHF_MERGE|SHF_STRINGS,1
	0x4303730e		.L__FUNCTION__.gatLocalioInit
.rodata.str1.1	0x4303731d	0x10	D:\Smart-heart-rate-dector\Smart-heart-rate-dector\gagent\libgagent.a(localio.o)	#SHT_PROGBITS,SHF_ALLOC|SHF_MERGE|SHF_STRINGS,1
	0x4303731d		.L.str.4
.rodata.str1.1	0x4303732d	0x15	D:\Smart-heart-rate-dector\Smart-heart-rate-dector\gagent\libgagent.a(localio.o)	#SHT_PROGBITS,SHF_ALLOC|SHF_MERGE|SHF_STRINGS,1
	0x4303732d		.L.str.5
.rodata.str1.1	0x43037342	0x15	D:\Smart-heart-rate-dector\Smart-heart-rate-dector\gagent\libgagent.a(localio.o)	#SHT_PROGBITS,SHF_ALLOC|SHF_MERGE|SHF_STRINGS,1
	0x43037342		.L.str.6
.rodata.str1.1	0x43037357	0xd	D:\Smart-heart-rate-dector\Smart-heart-rate-dector\gagent\libgagent.a(localio.o)	#SHT_PROGBITS,SHF_ALLOC|SHF_MERGE|SHF_STRINGS,1
	0x43037357		.L.str.7
.rodata.str1.1	0x43037364	0x2	D:\Smart-heart-rate-dector\Smart-heart-rate-dector\gagent\libgagent.a(localio.o)	#SHT_PROGBITS,SHF_ALLOC|SHF_MERGE|SHF_STRINGS,1
	0x43037364		.L.str.8
.rodata.str1.1	0x43037366	0x18	D:\Smart-heart-rate-dector\Smart-heart-rate-dector\gagent\libgagent.a(localio.o)	#SHT_PROGBITS,SHF_ALLOC|SHF_MERGE|SHF_STRINGS,1
	0x43037366		.L.str.9
.rodata.str1.1	0x4303737e	0x1a	D:\Smart-heart-rate-dector\Smart-heart-rate-dector\gagent\libgagent.a(localio.o)	#SHT_PROGBITS,SHF_ALLOC|SHF_MERGE|SHF_STRINGS,1
	0x4303737e		.L.str.10
.rodata.str1.1	0x43037398	0x14	D:\Smart-heart-rate-dector\Smart-heart-rate-dector\gagent\libgagent.a(localio.o)	#SHT_PROGBITS,SHF_ALLOC|SHF_MERGE|SHF_STRINGS,1
	0x43037398		.L.str.11
.rodata.str1.1	0x430373ac	0xf	D:\Smart-heart-rate-dector\Smart-heart-rate-dector\gagent\libgagent.a(localio.o)	#SHT_PROGBITS,SHF_ALLOC|SHF_MERGE|SHF_STRINGS,1
	0x430373ac		.L__FUNCTION__.localRecDataCb
.rodata.str1.1	0x430373bb	0x48	D:\Smart-heart-rate-dector\Smart-heart-rate-dector\gagent\libgagent.a(localio.o)	#SHT_PROGBITS,SHF_ALLOC|SHF_MERGE|SHF_STRINGS,1
	0x430373bb		.L.str.17
.rodata.str1.1	0x43037403	0x21	D:\Smart-heart-rate-dector\Smart-heart-rate-dector\gagent\libgagent.a(localio.o)	#SHT_PROGBITS,SHF_ALLOC|SHF_MERGE|SHF_STRINGS,1
	0x43037403		.L.str.18
.rodata.str1.1	0x43037424	0x49	D:\Smart-heart-rate-dector\Smart-heart-rate-dector\gagent\libgagent.a(localio.o)	#SHT_PROGBITS,SHF_ALLOC|SHF_MERGE|SHF_STRINGS,1
	0x43037424		.L.str.21
.rodata.str1.1	0x4303746d	0x22	D:\Smart-heart-rate-dector\Smart-heart-rate-dector\gagent\libgagent.a(localio.o)	#SHT_PROGBITS,SHF_ALLOC|SHF_MERGE|SHF_STRINGS,1
	0x4303746d		.L.str.22
.rodata.str1.1	0x4303748f	0x2a	D:\Smart-heart-rate-dector\Smart-heart-rate-dector\gagent\libgagent.a(localio.o)	#SHT_PROGBITS,SHF_ALLOC|SHF_MERGE|SHF_STRINGS,1
	0x4303748f		.L.str.23
.rodata.str1.1	0x430374b9	0x24	D:\Smart-heart-rate-dector\Smart-heart-rate-dector\gagent\libgagent.a(localio.o)	#SHT_PROGBITS,SHF_ALLOC|SHF_MERGE|SHF_STRINGS,1
	0x430374b9		.L.str.24
.rodata.str1.1	0x430374dd	0x3e	D:\Smart-heart-rate-dector\Smart-heart-rate-dector\gagent\libgagent.a(localio.o)	#SHT_PROGBITS,SHF_ALLOC|SHF_MERGE|SHF_STRINGS,1
	0x430374dd		.L.str.25
.rodata.str1.1	0x4303751b	0xd	D:\Smart-heart-rate-dector\Smart-heart-rate-dector\gagent\libgagent.a(localio.o)	#SHT_PROGBITS,SHF_ALLOC|SHF_MERGE|SHF_STRINGS,1
	0x4303751b		.L__FUNCTION__.gatLocalSend
.rodata.str1.1	0x43037528	0x1d	D:\Smart-heart-rate-dector\Smart-heart-rate-dector\gagent\libgagent.a(localio.o)	#SHT_PROGBITS,SHF_ALLOC|SHF_MERGE|SHF_STRINGS,1
	0x43037528		.L.str.26
.rodata.str1.1	0x43037545	0x21	D:\Smart-heart-rate-dector\Smart-heart-rate-dector\gagent\libgagent.a(localio.o)	#SHT_PROGBITS,SHF_ALLOC|SHF_MERGE|SHF_STRINGS,1
	0x43037545		.L.str.27
.rodata.str1.1	0x43037566	0x25	D:\Smart-heart-rate-dector\Smart-heart-rate-dector\gagent\libgagent.a(localio.o)	#SHT_PROGBITS,SHF_ALLOC|SHF_MERGE|SHF_STRINGS,1
	0x43037566		.L.str.28
.rodata.str1.1	0x4303758b	0x24	D:\Smart-heart-rate-dector\Smart-heart-rate-dector\gagent\libgagent.a(localio.o)	#SHT_PROGBITS,SHF_ALLOC|SHF_MERGE|SHF_STRINGS,1
	0x4303758b		.L.str.29
.rodata.str1.1	0x430375af	0x22	D:\Smart-heart-rate-dector\Smart-heart-rate-dector\gagent\libgagent.a(localio.o)	#SHT_PROGBITS,SHF_ALLOC|SHF_MERGE|SHF_STRINGS,1
	0x430375af		.L.str.30
.rodata.str1.1	0x430375d1	0x1c	D:\Smart-heart-rate-dector\Smart-heart-rate-dector\gagent\libgagent.a(localio.o)	#SHT_PROGBITS,SHF_ALLOC|SHF_MERGE|SHF_STRINGS,1
	0x430375d1		.L.str.31
.rodata.str1.1	0x430375ed	0x14	D:\Smart-heart-rate-dector\Smart-heart-rate-dector\gagent\libgagent.a(localio.o)	#SHT_PROGBITS,SHF_ALLOC|SHF_MERGE|SHF_STRINGS,1
	0x430375ed		.L__FUNCTION__.gatSerialSendHandle
.rodata.str1.1	0x43037601	0x3b	D:\Smart-heart-rate-dector\Smart-heart-rate-dector\gagent\libgagent.a(localio.o)	#SHT_PROGBITS,SHF_ALLOC|SHF_MERGE|SHF_STRINGS,1
	0x43037601		.L.str.32
.rodata.str1.1	0x4303763c	0x5	D:\Smart-heart-rate-dector\Smart-heart-rate-dector\gagent\libgagent.a(localio.o)	#SHT_PROGBITS,SHF_ALLOC|SHF_MERGE|SHF_STRINGS,1
	0x4303763c		.L.str.33
.rodata.str1.1	0x43037641	0x6	D:\Smart-heart-rate-dector\Smart-heart-rate-dector\gagent\libgagent.a(localio.o)	#SHT_PROGBITS,SHF_ALLOC|SHF_MERGE|SHF_STRINGS,1
	0x43037641		.L.str.34
.rodata.str1.1	0x43037647	0x1f	D:\Smart-heart-rate-dector\Smart-heart-rate-dector\gagent\libgagent.a(localio.o)	#SHT_PROGBITS,SHF_ALLOC|SHF_MERGE|SHF_STRINGS,1
	0x43037647		.L.str.35
.rodata.str1.1	0x43037666	0x23	D:\Smart-heart-rate-dector\Smart-heart-rate-dector\gagent\libgagent.a(localio.o)	#SHT_PROGBITS,SHF_ALLOC|SHF_MERGE|SHF_STRINGS,1
	0x43037666		.L.str.36
.rodata.str1.1	0x43037689	0x39	D:\Smart-heart-rate-dector\Smart-heart-rate-dector\gagent\libgagent.a(localio.o)	#SHT_PROGBITS,SHF_ALLOC|SHF_MERGE|SHF_STRINGS,1
	0x43037689		.L.str.37
.rodata.str1.1	0x430376c2	0x13	D:\Smart-heart-rate-dector\Smart-heart-rate-dector\gagent\libgagent.a(localio.o)	#SHT_PROGBITS,SHF_ALLOC|SHF_MERGE|SHF_STRINGS,1
	0x430376c2		.L.str.38
.rodata.str1.1	0x430376d5	0x19	D:\Smart-heart-rate-dector\Smart-heart-rate-dector\gagent\libgagent.a(localio.o)	#SHT_PROGBITS,SHF_ALLOC|SHF_MERGE|SHF_STRINGS,1
	0x430376d5		.L.str.39
.rodata.str1.1	0x430376ee	0x13	D:\Smart-heart-rate-dector\Smart-heart-rate-dector\gagent\libgagent.a(localio.o)	#SHT_PROGBITS,SHF_ALLOC|SHF_MERGE|SHF_STRINGS,1
	0x430376ee		.L__FUNCTION__.gatSerialRecHandle
.rodata.str1.1	0x43037701	0x49	D:\Smart-heart-rate-dector\Smart-heart-rate-dector\gagent\libgagent.a(localio.o)	#SHT_PROGBITS,SHF_ALLOC|SHF_MERGE|SHF_STRINGS,1
	0x43037701		.L.str.40
.rodata.str1.1	0x4303774a	0x19	D:\Smart-heart-rate-dector\Smart-heart-rate-dector\gagent\libgagent.a(localio.o)	#SHT_PROGBITS,SHF_ALLOC|SHF_MERGE|SHF_STRINGS,1
	0x4303774a		.L.str.41
.rodata.str1.1	0x43037763	0x1a	D:\Smart-heart-rate-dector\Smart-heart-rate-dector\gagent\libgagent.a(localio.o)	#SHT_PROGBITS,SHF_ALLOC|SHF_MERGE|SHF_STRINGS,1
	0x43037763		.L__FUNCTION__.gatLocalRecTimerOutHandle
.rodata.str1.1	0x4303777d	0x19	D:\Smart-heart-rate-dector\Smart-heart-rate-dector\gagent\libgagent.a(localprotocol.o)	#SHT_PROGBITS,SHF_ALLOC|SHF_MERGE|SHF_STRINGS,1
	0x4303777d		.L.str.2
.rodata.str1.1	0x43037796	0xb	D:\Smart-heart-rate-dector\Smart-heart-rate-dector\gagent\libgagent.a(localprotocol.o)	#SHT_PROGBITS,SHF_ALLOC|SHF_MERGE|SHF_STRINGS,1
	0x43037796		.L__FUNCTION__.localWrite
.rodata.str1.1	0x430377a1	0x1c	D:\Smart-heart-rate-dector\Smart-heart-rate-dector\gagent\libgagent.a(localprotocol.o)	#SHT_PROGBITS,SHF_ALLOC|SHF_MERGE|SHF_STRINGS,1
	0x430377a1		.L.str.3
.rodata.str1.1	0x430377bd	0xa	D:\Smart-heart-rate-dector\Smart-heart-rate-dector\gagent\libgagent.a(localprotocol.o)	#SHT_PROGBITS,SHF_ALLOC|SHF_MERGE|SHF_STRINGS,1
	0x430377bd		.L.str.4
.rodata.str1.1	0x430377c7	0x3d	D:\Smart-heart-rate-dector\Smart-heart-rate-dector\gagent\libgagent.a(localprotocol.o)	#SHT_PROGBITS,SHF_ALLOC|SHF_MERGE|SHF_STRINGS,1
	0x430377c7		.L.str.5
.rodata.str1.1	0x43037804	0x13	D:\Smart-heart-rate-dector\Smart-heart-rate-dector\gagent\libgagent.a(localprotocol.o)	#SHT_PROGBITS,SHF_ALLOC|SHF_MERGE|SHF_STRINGS,1
	0x43037804		.L__FUNCTION__.localExtractPacket
.rodata.str1.1	0x43037817	0x14	D:\Smart-heart-rate-dector\Smart-heart-rate-dector\gagent\libgagent.a(nwk_manage.o)	#SHT_PROGBITS,SHF_ALLOC|SHF_MERGE|SHF_STRINGS,1
	0x43037817		.L.str.2
.rodata.str1.1	0x4303782b	0xb	D:\Smart-heart-rate-dector\Smart-heart-rate-dector\gagent\libgagent.a(nwk_manage.o)	#SHT_PROGBITS,SHF_ALLOC|SHF_MERGE|SHF_STRINGS,1
	0x4303782b		.L__FUNCTION__.gatNwkInit
.rodata.str1.1	0x43037836	0x26	D:\Smart-heart-rate-dector\Smart-heart-rate-dector\gagent\libgagent.a(nwk_manage.o)	#SHT_PROGBITS,SHF_ALLOC|SHF_MERGE|SHF_STRINGS,1
	0x43037836		.L.str.3
.rodata.str1.1	0x4303785c	0x14	D:\Smart-heart-rate-dector\Smart-heart-rate-dector\gagent\libgagent.a(nwk_manage.o)	#SHT_PROGBITS,SHF_ALLOC|SHF_MERGE|SHF_STRINGS,1
	0x4303785c		.L__FUNCTION__.gatNwkevtCbRegister
.rodata.str1.1	0x43037870	0x38	D:\Smart-heart-rate-dector\Smart-heart-rate-dector\gagent\libgagent.a(nwk_manage.o)	#SHT_PROGBITS,SHF_ALLOC|SHF_MERGE|SHF_STRINGS,1
	0x43037870		.L.str.4
.rodata.str1.1	0x430378a8	0x25	D:\Smart-heart-rate-dector\Smart-heart-rate-dector\gagent\libgagent.a(nwk_manage.o)	#SHT_PROGBITS,SHF_ALLOC|SHF_MERGE|SHF_STRINGS,1
	0x430378a8		.L.str.5
.rodata.str1.1	0x430378cd	0x17	D:\Smart-heart-rate-dector\Smart-heart-rate-dector\gagent\libgagent.a(nwk_manage.o)	#SHT_PROGBITS,SHF_ALLOC|SHF_MERGE|SHF_STRINGS,1
	0x430378cd		.L.str.6
.rodata.str1.1	0x430378e4	0x27	D:\Smart-heart-rate-dector\Smart-heart-rate-dector\gagent\libgagent.a(nwk_manage.o)	#SHT_PROGBITS,SHF_ALLOC|SHF_MERGE|SHF_STRINGS,1
	0x430378e4		.L.str.7
.rodata.str1.1	0x4303790b	0x19	D:\Smart-heart-rate-dector\Smart-heart-rate-dector\gagent\libgagent.a(nwk_manage.o)	#SHT_PROGBITS,SHF_ALLOC|SHF_MERGE|SHF_STRINGS,1
	0x4303790b		.L.str.8
.rodata.str1.1	0x43037924	0x26	D:\Smart-heart-rate-dector\Smart-heart-rate-dector\gagent\libgagent.a(nwk_manage.o)	#SHT_PROGBITS,SHF_ALLOC|SHF_MERGE|SHF_STRINGS,1
	0x43037924		.L.str.9
.rodata.str1.1	0x4303794a	0x18	D:\Smart-heart-rate-dector\Smart-heart-rate-dector\gagent\libgagent.a(nwk_manage.o)	#SHT_PROGBITS,SHF_ALLOC|SHF_MERGE|SHF_STRINGS,1
	0x4303794a		.L.str.10
.rodata.str1.1	0x43037962	0x28	D:\Smart-heart-rate-dector\Smart-heart-rate-dector\gagent\libgagent.a(nwk_manage.o)	#SHT_PROGBITS,SHF_ALLOC|SHF_MERGE|SHF_STRINGS,1
	0x43037962		.L.str.11
.rodata.str1.1	0x4303798a	0x1a	D:\Smart-heart-rate-dector\Smart-heart-rate-dector\gagent\libgagent.a(nwk_manage.o)	#SHT_PROGBITS,SHF_ALLOC|SHF_MERGE|SHF_STRINGS,1
	0x4303798a		.L.str.12
.rodata.str1.1	0x430379a4	0x2d	D:\Smart-heart-rate-dector\Smart-heart-rate-dector\gagent\libgagent.a(nwk_manage.o)	#SHT_PROGBITS,SHF_ALLOC|SHF_MERGE|SHF_STRINGS,1
	0x430379a4		.L.str.13
.rodata.str1.1	0x430379d1	0x1f	D:\Smart-heart-rate-dector\Smart-heart-rate-dector\gagent\libgagent.a(nwk_manage.o)	#SHT_PROGBITS,SHF_ALLOC|SHF_MERGE|SHF_STRINGS,1
	0x430379d1		.L.str.14
.rodata.str1.1	0x430379f0	0x30	D:\Smart-heart-rate-dector\Smart-heart-rate-dector\gagent\libgagent.a(nwk_manage.o)	#SHT_PROGBITS,SHF_ALLOC|SHF_MERGE|SHF_STRINGS,1
	0x430379f0		.L.str.15
.rodata.str1.1	0x43037a20	0x22	D:\Smart-heart-rate-dector\Smart-heart-rate-dector\gagent\libgagent.a(nwk_manage.o)	#SHT_PROGBITS,SHF_ALLOC|SHF_MERGE|SHF_STRINGS,1
	0x43037a20		.L.str.16
.rodata.str1.1	0x43037a42	0x2c	D:\Smart-heart-rate-dector\Smart-heart-rate-dector\gagent\libgagent.a(nwk_manage.o)	#SHT_PROGBITS,SHF_ALLOC|SHF_MERGE|SHF_STRINGS,1
	0x43037a42		.L.str.17
.rodata.str1.1	0x43037a6e	0x1f	D:\Smart-heart-rate-dector\Smart-heart-rate-dector\gagent\libgagent.a(nwk_manage.o)	#SHT_PROGBITS,SHF_ALLOC|SHF_MERGE|SHF_STRINGS,1
	0x43037a6e		.L.str.18
.rodata.str1.1	0x43037a8d	0x2f	D:\Smart-heart-rate-dector\Smart-heart-rate-dector\gagent\libgagent.a(nwk_manage.o)	#SHT_PROGBITS,SHF_ALLOC|SHF_MERGE|SHF_STRINGS,1
	0x43037a8d		.L.str.19
.rodata.str1.1	0x43037abc	0x21	D:\Smart-heart-rate-dector\Smart-heart-rate-dector\gagent\libgagent.a(nwk_manage.o)	#SHT_PROGBITS,SHF_ALLOC|SHF_MERGE|SHF_STRINGS,1
	0x43037abc		.L.str.20
.rodata.str1.1	0x43037add	0x2a	D:\Smart-heart-rate-dector\Smart-heart-rate-dector\gagent\libgagent.a(nwk_manage.o)	#SHT_PROGBITS,SHF_ALLOC|SHF_MERGE|SHF_STRINGS,1
	0x43037add		.L.str.21
.rodata.str1.1	0x43037b07	0x1c	D:\Smart-heart-rate-dector\Smart-heart-rate-dector\gagent\libgagent.a(nwk_manage.o)	#SHT_PROGBITS,SHF_ALLOC|SHF_MERGE|SHF_STRINGS,1
	0x43037b07		.L.str.22
.rodata.str1.1	0x43037b23	0x2d	D:\Smart-heart-rate-dector\Smart-heart-rate-dector\gagent\libgagent.a(nwk_manage.o)	#SHT_PROGBITS,SHF_ALLOC|SHF_MERGE|SHF_STRINGS,1
	0x43037b23		.L.str.23
.rodata.str1.1	0x43037b50	0x1f	D:\Smart-heart-rate-dector\Smart-heart-rate-dector\gagent\libgagent.a(nwk_manage.o)	#SHT_PROGBITS,SHF_ALLOC|SHF_MERGE|SHF_STRINGS,1
	0x43037b50		.L.str.24
.rodata.str1.1	0x43037b6f	0x16	D:\Smart-heart-rate-dector\Smart-heart-rate-dector\gagent\libgagent.a(nwk_manage.o)	#SHT_PROGBITS,SHF_ALLOC|SHF_MERGE|SHF_STRINGS,1
	0x43037b6f		.L.str.25
.rodata.str1.1	0x43037b85	0x24	D:\Smart-heart-rate-dector\Smart-heart-rate-dector\gagent\libgagent.a(nwk_manage.o)	#SHT_PROGBITS,SHF_ALLOC|SHF_MERGE|SHF_STRINGS,1
	0x43037b85		.L.str.26
.rodata.str1.1	0x43037ba9	0x18	D:\Smart-heart-rate-dector\Smart-heart-rate-dector\gagent\libgagent.a(nwk_manage.o)	#SHT_PROGBITS,SHF_ALLOC|SHF_MERGE|SHF_STRINGS,1
	0x43037ba9		.L.str.27
.rodata.str1.1	0x43037bc1	0x26	D:\Smart-heart-rate-dector\Smart-heart-rate-dector\gagent\libgagent.a(nwk_manage.o)	#SHT_PROGBITS,SHF_ALLOC|SHF_MERGE|SHF_STRINGS,1
	0x43037bc1		.L.str.28
.rodata.str1.1	0x43037be7	0x1b	D:\Smart-heart-rate-dector\Smart-heart-rate-dector\gagent\libgagent.a(nwk_manage.o)	#SHT_PROGBITS,SHF_ALLOC|SHF_MERGE|SHF_STRINGS,1
	0x43037be7		.L.str.29
.rodata.str1.1	0x43037c02	0x2e	D:\Smart-heart-rate-dector\Smart-heart-rate-dector\gagent\libgagent.a(nwk_manage.o)	#SHT_PROGBITS,SHF_ALLOC|SHF_MERGE|SHF_STRINGS,1
	0x43037c02		.L.str.30
.rodata.str1.1	0x43037c30	0x1d	D:\Smart-heart-rate-dector\Smart-heart-rate-dector\gagent\libgagent.a(nwk_manage.o)	#SHT_PROGBITS,SHF_ALLOC|SHF_MERGE|SHF_STRINGS,1
	0x43037c30		.L.str.31
.rodata.str1.1	0x43037c4d	0x2b	D:\Smart-heart-rate-dector\Smart-heart-rate-dector\gagent\libgagent.a(nwk_manage.o)	#SHT_PROGBITS,SHF_ALLOC|SHF_MERGE|SHF_STRINGS,1
	0x43037c4d		.L.str.32
.rodata.str1.1	0x43037c78	0x17	D:\Smart-heart-rate-dector\Smart-heart-rate-dector\gagent\libgagent.a(nwk_manage.o)	#SHT_PROGBITS,SHF_ALLOC|SHF_MERGE|SHF_STRINGS,1
	0x43037c78		.L.str.33
.rodata.str1.1	0x43037c8f	0x1d	D:\Smart-heart-rate-dector\Smart-heart-rate-dector\gagent\libgagent.a(nwk_manage.o)	#SHT_PROGBITS,SHF_ALLOC|SHF_MERGE|SHF_STRINGS,1
	0x43037c8f		.L.str.34
.rodata.str1.1	0x43037cac	0x15	D:\Smart-heart-rate-dector\Smart-heart-rate-dector\gagent\libgagent.a(nwk_manage.o)	#SHT_PROGBITS,SHF_ALLOC|SHF_MERGE|SHF_STRINGS,1
	0x43037cac		.L.str.35
.rodata.str1.1	0x43037cc1	0x22	D:\Smart-heart-rate-dector\Smart-heart-rate-dector\gagent\libgagent.a(nwk_manage.o)	#SHT_PROGBITS,SHF_ALLOC|SHF_MERGE|SHF_STRINGS,1
	0x43037cc1		.L.str.36
.rodata.str1.1	0x43037ce3	0x17	D:\Smart-heart-rate-dector\Smart-heart-rate-dector\gagent\libgagent.a(nwk_manage.o)	#SHT_PROGBITS,SHF_ALLOC|SHF_MERGE|SHF_STRINGS,1
	0x43037ce3		.L.str.37
.rodata.str1.1	0x43037cfa	0x24	D:\Smart-heart-rate-dector\Smart-heart-rate-dector\gagent\libgagent.a(nwk_manage.o)	#SHT_PROGBITS,SHF_ALLOC|SHF_MERGE|SHF_STRINGS,1
	0x43037cfa		.L.str.38
.rodata.str1.1	0x43037d1e	0x1e	D:\Smart-heart-rate-dector\Smart-heart-rate-dector\gagent\libgagent.a(nwk_manage.o)	#SHT_PROGBITS,SHF_ALLOC|SHF_MERGE|SHF_STRINGS,1
	0x43037d1e		.L.str.39
.rodata.str1.1	0x43037d3c	0xf	D:\Smart-heart-rate-dector\Smart-heart-rate-dector\gagent\libgagent.a(nwk_manage.o)	#SHT_PROGBITS,SHF_ALLOC|SHF_MERGE|SHF_STRINGS,1
	0x43037d3c		.L__FUNCTION__.gatSetNwkEvent
.rodata.str1.1	0x43037d4b	0x24	D:\Smart-heart-rate-dector\Smart-heart-rate-dector\gagent\libgagent.a(nwk_manage.o)	#SHT_PROGBITS,SHF_ALLOC|SHF_MERGE|SHF_STRINGS,1
	0x43037d4b		.L.str.40
.rodata.str1.1	0x43037d6f	0x1e	D:\Smart-heart-rate-dector\Smart-heart-rate-dector\gagent\libgagent.a(nwk_manage.o)	#SHT_PROGBITS,SHF_ALLOC|SHF_MERGE|SHF_STRINGS,1
	0x43037d6f		.L.str.41
.rodata.str1.1	0x43037d8d	0x12	D:\Smart-heart-rate-dector\Smart-heart-rate-dector\gagent\libgagent.a(nwk_manage.o)	#SHT_PROGBITS,SHF_ALLOC|SHF_MERGE|SHF_STRINGS,1
	0x43037d8d		.L__FUNCTION__.gatNwkEventHandle
.rodata.str1.1	0x43037d9f	0x32	D:\Smart-heart-rate-dector\Smart-heart-rate-dector\gagent\libgagent.a(nwk_manage.o)	#SHT_PROGBITS,SHF_ALLOC|SHF_MERGE|SHF_STRINGS,1
	0x43037d9f		.L.str.42
.rodata.str1.1	0x43037dd1	0x37	D:\Smart-heart-rate-dector\Smart-heart-rate-dector\gagent\libgagent.a(productinfo.o)	#SHT_PROGBITS,SHF_ALLOC|SHF_MERGE|SHF_STRINGS,1
	0x43037dd1		.L.str.2
.rodata.str1.1	0x43037e08	0x1c	D:\Smart-heart-rate-dector\Smart-heart-rate-dector\gagent\libgagent.a(productinfo.o)	#SHT_PROGBITS,SHF_ALLOC|SHF_MERGE|SHF_STRINGS,1
	0x43037e08		.L__FUNCTION__.gatProductInfoUpdateFromEnv
.rodata.str1.1	0x43037e24	0x19	D:\Smart-heart-rate-dector\Smart-heart-rate-dector\gagent\libgagent.a(productinfo.o)	#SHT_PROGBITS,SHF_ALLOC|SHF_MERGE|SHF_STRINGS,1
	0x43037e24		.L.str.3
.rodata.str1.1	0x43037e3d	0x1f	D:\Smart-heart-rate-dector\Smart-heart-rate-dector\gagent\libgagent.a(productinfo.o)	#SHT_PROGBITS,SHF_ALLOC|SHF_MERGE|SHF_STRINGS,1
	0x43037e3d		.L.str.4
.rodata.str1.1	0x43037e5c	0x22	D:\Smart-heart-rate-dector\Smart-heart-rate-dector\gagent\libgagent.a(productinfo.o)	#SHT_PROGBITS,SHF_ALLOC|SHF_MERGE|SHF_STRINGS,1
	0x43037e5c		.L.str.5
.rodata.str1.1	0x43037e7e	0x46	D:\Smart-heart-rate-dector\Smart-heart-rate-dector\gagent\libgagent.a(productinfo.o)	#SHT_PROGBITS,SHF_ALLOC|SHF_MERGE|SHF_STRINGS,1
	0x43037e7e		.L.str.6
.rodata.str1.1	0x43037ec4	0x15	D:\Smart-heart-rate-dector\Smart-heart-rate-dector\gagent\libgagent.a(productinfo.o)	#SHT_PROGBITS,SHF_ALLOC|SHF_MERGE|SHF_STRINGS,1
	0x43037ec4		.L.str.7
.rodata.str1.1	0x43037ed9	0x25	D:\Smart-heart-rate-dector\Smart-heart-rate-dector\gagent\libgagent.a(productinfo.o)	#SHT_PROGBITS,SHF_ALLOC|SHF_MERGE|SHF_STRINGS,1
	0x43037ed9		.L.str.10
.rodata.str1.1	0x43037efe	0x31	D:\Smart-heart-rate-dector\Smart-heart-rate-dector\gagent\libgagent.a(productinfo.o)	#SHT_PROGBITS,SHF_ALLOC|SHF_MERGE|SHF_STRINGS,1
	0x43037efe		.L.str.11
.rodata.str1.1	0x43037f2f	0x2f	D:\Smart-heart-rate-dector\Smart-heart-rate-dector\gagent\libgagent.a(productinfo.o)	#SHT_PROGBITS,SHF_ALLOC|SHF_MERGE|SHF_STRINGS,1
	0x43037f2f		.L.str.12
.rodata.str1.1	0x43037f5e	0x3	D:\Smart-heart-rate-dector\Smart-heart-rate-dector\gagent\libgagent.a(productinfo.o)	#SHT_PROGBITS,SHF_ALLOC|SHF_MERGE|SHF_STRINGS,1
	0x43037f5e		.L.str.13
.rodata.str1.1	0x43037f61	0x2f	D:\Smart-heart-rate-dector\Smart-heart-rate-dector\gagent\libgagent.a(productinfo.o)	#SHT_PROGBITS,SHF_ALLOC|SHF_MERGE|SHF_STRINGS,1
	0x43037f61		.L.str.14
.rodata.str1.1	0x43037f90	0x22	D:\Smart-heart-rate-dector\Smart-heart-rate-dector\gagent\libgagent.a(productinfo.o)	#SHT_PROGBITS,SHF_ALLOC|SHF_MERGE|SHF_STRINGS,1
	0x43037f90		.L.str.15
.rodata.str1.1	0x43037fb2	0x40	D:\Smart-heart-rate-dector\Smart-heart-rate-dector\gagent\libgagent.a(productinfo.o)	#SHT_PROGBITS,SHF_ALLOC|SHF_MERGE|SHF_STRINGS,1
	0x43037fb2		.L.str.16
.rodata.str1.1	0x43037ff2	0x40	D:\Smart-heart-rate-dector\Smart-heart-rate-dector\gagent\libgagent.a(productinfo.o)	#SHT_PROGBITS,SHF_ALLOC|SHF_MERGE|SHF_STRINGS,1
	0x43037ff2		.L.str.17
.rodata.str1.1	0x43038032	0xf	D:\Smart-heart-rate-dector\Smart-heart-rate-dector\gagent\libgagent.a(productinfo.o)	#SHT_PROGBITS,SHF_ALLOC|SHF_MERGE|SHF_STRINGS,1
	0x43038032		.L__FUNCTION__.gatDumpEnvInfo
.rodata.str1.1	0x43038041	0x1d	D:\Smart-heart-rate-dector\Smart-heart-rate-dector\gagent\libgagent.a(productinfo.o)	#SHT_PROGBITS,SHF_ALLOC|SHF_MERGE|SHF_STRINGS,1
	0x43038041		.L.str.18
.rodata.str1.1	0x4303805e	0x17	D:\Smart-heart-rate-dector\Smart-heart-rate-dector\gagent\libgagent.a(productinfo.o)	#SHT_PROGBITS,SHF_ALLOC|SHF_MERGE|SHF_STRINGS,1
	0x4303805e		.L.str.19
.rodata.str1.1	0x43038075	0xd	D:\Smart-heart-rate-dector\Smart-heart-rate-dector\gagent\libgagent.a(productinfo.o)	#SHT_PROGBITS,SHF_ALLOC|SHF_MERGE|SHF_STRINGS,1
	0x43038075		.L.str.20
.rodata.str1.1	0x43038082	0x1e	D:\Smart-heart-rate-dector\Smart-heart-rate-dector\gagent\libgagent.a(productinfo.o)	#SHT_PROGBITS,SHF_ALLOC|SHF_MERGE|SHF_STRINGS,1
	0x43038082		.L.str.21
.rodata.str1.1	0x430380a0	0x9	D:\Smart-heart-rate-dector\Smart-heart-rate-dector\gagent\libgagent.a(productinfo.o)	#SHT_PROGBITS,SHF_ALLOC|SHF_MERGE|SHF_STRINGS,1
	0x430380a0		.L.str.25
.rodata.str1.1	0x430380a9	0x1f	D:\Smart-heart-rate-dector\Smart-heart-rate-dector\gagent\libgagent.a(productinfo.o)	#SHT_PROGBITS,SHF_ALLOC|SHF_MERGE|SHF_STRINGS,1
	0x430380a9		.L.str.26
.rodata.str1.1	0x430380c8	0x2c	D:\Smart-heart-rate-dector\Smart-heart-rate-dector\gagent\libgagent.a(productinfo.o)	#SHT_PROGBITS,SHF_ALLOC|SHF_MERGE|SHF_STRINGS,1
	0x430380c8		.L.str.27
.rodata.str1.1	0x430380f4	0x2c	D:\Smart-heart-rate-dector\Smart-heart-rate-dector\gagent\libgagent.a(productinfo.o)	#SHT_PROGBITS,SHF_ALLOC|SHF_MERGE|SHF_STRINGS,1
	0x430380f4		.L.str.29
.rodata.str1.1	0x43038120	0x2c	D:\Smart-heart-rate-dector\Smart-heart-rate-dector\gagent\libgagent.a(productinfo.o)	#SHT_PROGBITS,SHF_ALLOC|SHF_MERGE|SHF_STRINGS,1
	0x43038120		.L.str.30
.rodata.str1.1	0x4303814c	0x2c	D:\Smart-heart-rate-dector\Smart-heart-rate-dector\gagent\libgagent.a(productinfo.o)	#SHT_PROGBITS,SHF_ALLOC|SHF_MERGE|SHF_STRINGS,1
	0x4303814c		.L.str.31
.rodata.str1.1	0x43038178	0x2c	D:\Smart-heart-rate-dector\Smart-heart-rate-dector\gagent\libgagent.a(productinfo.o)	#SHT_PROGBITS,SHF_ALLOC|SHF_MERGE|SHF_STRINGS,1
	0x43038178		.L.str.32
.rodata.str1.1	0x430381a4	0x2c	D:\Smart-heart-rate-dector\Smart-heart-rate-dector\gagent\libgagent.a(productinfo.o)	#SHT_PROGBITS,SHF_ALLOC|SHF_MERGE|SHF_STRINGS,1
	0x430381a4		.L.str.33
.rodata.str1.1	0x430381d0	0x2c	D:\Smart-heart-rate-dector\Smart-heart-rate-dector\gagent\libgagent.a(productinfo.o)	#SHT_PROGBITS,SHF_ALLOC|SHF_MERGE|SHF_STRINGS,1
	0x430381d0		.L.str.34
.rodata.str1.1	0x430381fc	0x2c	D:\Smart-heart-rate-dector\Smart-heart-rate-dector\gagent\libgagent.a(productinfo.o)	#SHT_PROGBITS,SHF_ALLOC|SHF_MERGE|SHF_STRINGS,1
	0x430381fc		.L.str.35
.rodata.str1.1	0x43038228	0x2f	D:\Smart-heart-rate-dector\Smart-heart-rate-dector\gagent\libgagent.a(productinfo.o)	#SHT_PROGBITS,SHF_ALLOC|SHF_MERGE|SHF_STRINGS,1
	0x43038228		.L.str.36
.rodata.str1.1	0x43038257	0x1f	D:\Smart-heart-rate-dector\Smart-heart-rate-dector\gagent\libgagent.a(productinfo.o)	#SHT_PROGBITS,SHF_ALLOC|SHF_MERGE|SHF_STRINGS,1
	0x43038257		.L.str.37
.rodata.str1.1	0x43038276	0x2c	D:\Smart-heart-rate-dector\Smart-heart-rate-dector\gagent\libgagent.a(productinfo.o)	#SHT_PROGBITS,SHF_ALLOC|SHF_MERGE|SHF_STRINGS,1
	0x43038276		.L.str.38
.rodata.str1.1	0x430382a2	0x2c	D:\Smart-heart-rate-dector\Smart-heart-rate-dector\gagent\libgagent.a(productinfo.o)	#SHT_PROGBITS,SHF_ALLOC|SHF_MERGE|SHF_STRINGS,1
	0x430382a2		.L.str.39
.rodata.str1.1	0x430382ce	0x2c	D:\Smart-heart-rate-dector\Smart-heart-rate-dector\gagent\libgagent.a(productinfo.o)	#SHT_PROGBITS,SHF_ALLOC|SHF_MERGE|SHF_STRINGS,1
	0x430382ce		.L.str.40
.rodata.str1.1	0x430382fa	0x2c	D:\Smart-heart-rate-dector\Smart-heart-rate-dector\gagent\libgagent.a(productinfo.o)	#SHT_PROGBITS,SHF_ALLOC|SHF_MERGE|SHF_STRINGS,1
	0x430382fa		.L.str.41
.rodata.str1.1	0x43038326	0x2c	D:\Smart-heart-rate-dector\Smart-heart-rate-dector\gagent\libgagent.a(productinfo.o)	#SHT_PROGBITS,SHF_ALLOC|SHF_MERGE|SHF_STRINGS,1
	0x43038326		.L.str.42
.rodata.str1.1	0x43038352	0x2c	D:\Smart-heart-rate-dector\Smart-heart-rate-dector\gagent\libgagent.a(productinfo.o)	#SHT_PROGBITS,SHF_ALLOC|SHF_MERGE|SHF_STRINGS,1
	0x43038352		.L.str.43
.rodata.str1.1	0x4303837e	0x2c	D:\Smart-heart-rate-dector\Smart-heart-rate-dector\gagent\libgagent.a(productinfo.o)	#SHT_PROGBITS,SHF_ALLOC|SHF_MERGE|SHF_STRINGS,1
	0x4303837e		.L.str.44
.rodata.str1.1	0x430383aa	0x2c	D:\Smart-heart-rate-dector\Smart-heart-rate-dector\gagent\libgagent.a(productinfo.o)	#SHT_PROGBITS,SHF_ALLOC|SHF_MERGE|SHF_STRINGS,1
	0x430383aa		.L.str.45
.rodata.str1.1	0x430383d6	0x2c	D:\Smart-heart-rate-dector\Smart-heart-rate-dector\gagent\libgagent.a(productinfo.o)	#SHT_PROGBITS,SHF_ALLOC|SHF_MERGE|SHF_STRINGS,1
	0x430383d6		.L.str.46
.rodata.str1.1	0x43038402	0x2c	D:\Smart-heart-rate-dector\Smart-heart-rate-dector\gagent\libgagent.a(productinfo.o)	#SHT_PROGBITS,SHF_ALLOC|SHF_MERGE|SHF_STRINGS,1
	0x43038402		.L.str.47
.rodata.str1.1	0x4303842e	0x2c	D:\Smart-heart-rate-dector\Smart-heart-rate-dector\gagent\libgagent.a(productinfo.o)	#SHT_PROGBITS,SHF_ALLOC|SHF_MERGE|SHF_STRINGS,1
	0x4303842e		.L.str.48
.rodata.str1.1	0x4303845a	0x12	D:\Smart-heart-rate-dector\Smart-heart-rate-dector\gagent\libgagent.a(productinfo.o)	#SHT_PROGBITS,SHF_ALLOC|SHF_MERGE|SHF_STRINGS,1
	0x4303845a		.L__FUNCTION__.gatProductInfoGet
.rodata.str1.1	0x4303846c	0x18	D:\Smart-heart-rate-dector\Smart-heart-rate-dector\gagent\libgagent.a(productinfo.o)	#SHT_PROGBITS,SHF_ALLOC|SHF_MERGE|SHF_STRINGS,1
	0x4303846c		.L__FUNCTION__.gatProductConfiInfoSave
.rodata.str1.1	0x43038484	0x14	D:\Smart-heart-rate-dector\Smart-heart-rate-dector\gagent\libgagent.a(productinfo.o)	#SHT_PROGBITS,SHF_ALLOC|SHF_MERGE|SHF_STRINGS,1
	0x43038484		.L.str.49
.rodata.str1.1	0x43038498	0x1c	D:\Smart-heart-rate-dector\Smart-heart-rate-dector\gagent\libgagent.a(productinfo.o)	#SHT_PROGBITS,SHF_ALLOC|SHF_MERGE|SHF_STRINGS,1
	0x43038498		.L.str.50
.rodata.str1.1	0x430384b4	0x14	D:\Smart-heart-rate-dector\Smart-heart-rate-dector\gagent\libgagent.a(productinfo.o)	#SHT_PROGBITS,SHF_ALLOC|SHF_MERGE|SHF_STRINGS,1
	0x430384b4		.L__FUNCTION__.gatCreatNewPassCode
.rodata.str1.1	0x430384c8	0x15	D:\Smart-heart-rate-dector\Smart-heart-rate-dector\gagent\libgagent.a(productinfo.o)	#SHT_PROGBITS,SHF_ALLOC|SHF_MERGE|SHF_STRINGS,1
	0x430384c8		.L.str.51
.rodata.str1.1	0x430384dd	0x13	D:\Smart-heart-rate-dector\Smart-heart-rate-dector\gagent\libgagent.a(productinfo.o)	#SHT_PROGBITS,SHF_ALLOC|SHF_MERGE|SHF_STRINGS,1
	0x430384dd		.L__FUNCTION__.gatProductInfoInit
.rodata.str1.1	0x430384f0	0x2d	D:\Smart-heart-rate-dector\Smart-heart-rate-dector\gagent\libgagent.a(productinfo.o)	#SHT_PROGBITS,SHF_ALLOC|SHF_MERGE|SHF_STRINGS,1
	0x430384f0		.L.str.52
.rodata.str1.1	0x4303851d	0x11	D:\Smart-heart-rate-dector\Smart-heart-rate-dector\gagent\libgagent.a(productinfo.o)	#SHT_PROGBITS,SHF_ALLOC|SHF_MERGE|SHF_STRINGS,1
	0x4303851d		.L.str.53
.rodata.str1.1	0x4303852e	0x1b	D:\Smart-heart-rate-dector\Smart-heart-rate-dector\gagent\libgagent.a(productinfo.o)	#SHT_PROGBITS,SHF_ALLOC|SHF_MERGE|SHF_STRINGS,1
	0x4303852e		.L__FUNCTION__.gatProductInfoSetGServerIp
.rodata.str1.1	0x43038549	0x11	D:\Smart-heart-rate-dector\Smart-heart-rate-dector\gagent\libgagent.a(productinfo.o)	#SHT_PROGBITS,SHF_ALLOC|SHF_MERGE|SHF_STRINGS,1
	0x43038549		.L.str.54
.rodata.str1.1	0x4303855a	0x12	D:\Smart-heart-rate-dector\Smart-heart-rate-dector\gagent\libgagent.a(productinfo.o)	#SHT_PROGBITS,SHF_ALLOC|SHF_MERGE|SHF_STRINGS,1
	0x4303855a		.L__FUNCTION__.gatTimeZoneSecSet
.rodata.str1.1	0x4303856c	0xe	D:\Smart-heart-rate-dector\Smart-heart-rate-dector\gagent\libgagent.a(productinfo.o)	#SHT_PROGBITS,SHF_ALLOC|SHF_MERGE|SHF_STRINGS,1
	0x4303856c		.L__FUNCTION__.gatGprsApnSet
.rodata.str1.1	0x4303857a	0x5	D:\Smart-heart-rate-dector\Smart-heart-rate-dector\gagent\libgagent.a(productinfo.o)	#SHT_PROGBITS,SHF_ALLOC|SHF_MERGE|SHF_STRINGS,1
	0x4303857a		.L.str.56
.rodata.str1.1	0x4303857f	0x11	D:\Smart-heart-rate-dector\Smart-heart-rate-dector\gagent\libgagent.a(productinfo.o)	#SHT_PROGBITS,SHF_ALLOC|SHF_MERGE|SHF_STRINGS,1
	0x4303857f		.L__FUNCTION__.gatConfigFlagSet
.rodata.str1.1	0x43038590	0x11	D:\Smart-heart-rate-dector\Smart-heart-rate-dector\gagent\libgagent.a(productinfo.o)	#SHT_PROGBITS,SHF_ALLOC|SHF_MERGE|SHF_STRINGS,1
	0x43038590		.L.str.57
.rodata.str1.1	0x430385a1	0x14	D:\Smart-heart-rate-dector\Smart-heart-rate-dector\gagent\libgagent.a(productinfo.o)	#SHT_PROGBITS,SHF_ALLOC|SHF_MERGE|SHF_STRINGS,1
	0x430385a1		.L__FUNCTION__.gatSaveRebootReason
.rodata.str1.1	0x430385b5	0x2c	D:\Smart-heart-rate-dector\Smart-heart-rate-dector\gagent\libgagent.a(productinfo.o)	#SHT_PROGBITS,SHF_ALLOC|SHF_MERGE|SHF_STRINGS,1
	0x430385b5		.L.str.63
.rodata.str1.1	0x430385e1	0x14	D:\Smart-heart-rate-dector\Smart-heart-rate-dector\gagent\libgagent.a(productinfo.o)	#SHT_PROGBITS,SHF_ALLOC|SHF_MERGE|SHF_STRINGS,1
	0x430385e1		.L.str.76
.rodata.str1.1	0x430385f5	0x19	D:\Smart-heart-rate-dector\Smart-heart-rate-dector\gagent\libgagent.a(productinfo.o)	#SHT_PROGBITS,SHF_ALLOC|SHF_MERGE|SHF_STRINGS,1
	0x430385f5		.L__FUNCTION__.gatProductDefaultInfoSet
.rodata.str1.1	0x4303860e	0x24	D:\Smart-heart-rate-dector\Smart-heart-rate-dector\gagent\libgagent.a(productinfo.o)	#SHT_PROGBITS,SHF_ALLOC|SHF_MERGE|SHF_STRINGS,1
	0x4303860e		.L.str.78
.rodata.str1.1	0x43038632	0x20	D:\Smart-heart-rate-dector\Smart-heart-rate-dector\gagent\libgagent.a(productinfo.o)	#SHT_PROGBITS,SHF_ALLOC|SHF_MERGE|SHF_STRINGS,1
	0x43038632		.L.str.79
.rodata.str1.1	0x43038652	0x27	D:\Smart-heart-rate-dector\Smart-heart-rate-dector\gagent\libgagent.a(productinfo.o)	#SHT_PROGBITS,SHF_ALLOC|SHF_MERGE|SHF_STRINGS,1
	0x43038652		.L.str.80
.rodata.str1.1	0x43038679	0x23	D:\Smart-heart-rate-dector\Smart-heart-rate-dector\gagent\libgagent.a(productinfo.o)	#SHT_PROGBITS,SHF_ALLOC|SHF_MERGE|SHF_STRINGS,1
	0x43038679		.L.str.81
.rodata.str1.1	0x4303869c	0x1c	D:\Smart-heart-rate-dector\Smart-heart-rate-dector\gagent\libgagent.a(productinfo.o)	#SHT_PROGBITS,SHF_ALLOC|SHF_MERGE|SHF_STRINGS,1
	0x4303869c		.L.str.82
.rodata.str1.1	0x430386b8	0x21	D:\Smart-heart-rate-dector\Smart-heart-rate-dector\gagent\libgagent.a(productinfo.o)	#SHT_PROGBITS,SHF_ALLOC|SHF_MERGE|SHF_STRINGS,1
	0x430386b8		.L.str.83
.rodata.str1.1	0x430386d9	0x18	D:\Smart-heart-rate-dector\Smart-heart-rate-dector\gagent\libgagent.a(productinfo.o)	#SHT_PROGBITS,SHF_ALLOC|SHF_MERGE|SHF_STRINGS,1
	0x430386d9		.L.str.84
.rodata.str1.1	0x430386f1	0x17	D:\Smart-heart-rate-dector\Smart-heart-rate-dector\gagent\libgagent.a(productinfo.o)	#SHT_PROGBITS,SHF_ALLOC|SHF_MERGE|SHF_STRINGS,1
	0x430386f1		.L__FUNCTION__.gatConfigInfoSaveToEnv
.rodata.str1.1	0x43038708	0x1b	D:\Smart-heart-rate-dector\Smart-heart-rate-dector\gagent\libgagent.a(productinfo.o)	#SHT_PROGBITS,SHF_ALLOC|SHF_MERGE|SHF_STRINGS,1
	0x43038708		.L.str.85
.rodata.str1.1	0x43038723	0x7	D:\Smart-heart-rate-dector\Smart-heart-rate-dector\gagent\libgagent.a(productinfo.o)	#SHT_PROGBITS,SHF_ALLOC|SHF_MERGE|SHF_STRINGS,1
	0x43038723		.L.str.86
.rodata.str1.1	0x4303872a	0x1e	D:\Smart-heart-rate-dector\Smart-heart-rate-dector\gagent\libgagent.a(productinfo.o)	#SHT_PROGBITS,SHF_ALLOC|SHF_MERGE|SHF_STRINGS,1
	0x4303872a		.L.str.87
.rodata.str1.8	0x43038748	0x40	D:\Smart-heart-rate-dector\Smart-heart-rate-dector\gagent\libgagent.a(productinfo.o)	#SHT_PROGBITS,SHF_ALLOC|SHF_MERGE|SHF_STRINGS,8
	0x43038748		.L.str.58
	0x43038758		.L.str.59
	0x43038768		.L.str.60
	0x43038778		.L.str.61
.rodata.str1.1	0x43038788	0x25	D:\Smart-heart-rate-dector\Smart-heart-rate-dector\gagent\libgagent.a(qlog.o)	#SHT_PROGBITS,SHF_ALLOC|SHF_MERGE|SHF_STRINGS,1
	0x43038788		.L.str
.rodata.str1.1	0x430387ad	0x3	D:\Smart-heart-rate-dector\Smart-heart-rate-dector\gagent\libgagent.a(qlog.o)	#SHT_PROGBITS,SHF_ALLOC|SHF_MERGE|SHF_STRINGS,1
	0x430387ad		.L.str.1
.rodata.str1.1	0x430387b0	0x46	D:\Smart-heart-rate-dector\Smart-heart-rate-dector\gagent\libgagent.a(qlog.o)	#SHT_PROGBITS,SHF_ALLOC|SHF_MERGE|SHF_STRINGS,1
	0x430387b0		.L.str.2
.rodata.str1.1	0x430387f6	0x22	D:\Smart-heart-rate-dector\Smart-heart-rate-dector\gagent\libgagent.a(qlog.o)	#SHT_PROGBITS,SHF_ALLOC|SHF_MERGE|SHF_STRINGS,1
	0x430387f6		.L.str.3
.rodata.str1.1	0x43038818	0x26	D:\Smart-heart-rate-dector\Smart-heart-rate-dector\gagent\libgagent.a(qlog.o)	#SHT_PROGBITS,SHF_ALLOC|SHF_MERGE|SHF_STRINGS,1
	0x43038818		.L.str.4
.rodata.str1.1	0x4303883e	0x26	D:\Smart-heart-rate-dector\Smart-heart-rate-dector\gagent\libgagent.a(qlog.o)	#SHT_PROGBITS,SHF_ALLOC|SHF_MERGE|SHF_STRINGS,1
	0x4303883e		.L.str.6
.rodata.str1.1	0x43038864	0x38	D:\Smart-heart-rate-dector\Smart-heart-rate-dector\gagent\libgagent.a(qlog.o)	#SHT_PROGBITS,SHF_ALLOC|SHF_MERGE|SHF_STRINGS,1
	0x43038864		.L.str.8
.rodata.str1.1	0x4303889c	0x1d	D:\Smart-heart-rate-dector\Smart-heart-rate-dector\gagent\libgagent.a(qlog.o)	#SHT_PROGBITS,SHF_ALLOC|SHF_MERGE|SHF_STRINGS,1
	0x4303889c		.L.str.9
.rodata.str1.1	0x430388b9	0x1a	D:\Smart-heart-rate-dector\Smart-heart-rate-dector\gagent\libgagent.a(qlog.o)	#SHT_PROGBITS,SHF_ALLOC|SHF_MERGE|SHF_STRINGS,1
	0x430388b9		.L.str.10
PADDING_ALIGNMENT	0x430388d3	0x1	0x0
.rodata	0x430388d4	0x70	D:\Smart-heart-rate-dector\Smart-heart-rate-dector\gagent\libgagent.a(qlog.o)	#SHT_PROGBITS,SHF_ALLOC,4
	0x430388d4		uart_recv.xx_msg_const
	0x430388e4		uart_init.xx_msg_const
	0x430388f4		uart_init.xx_msg_const.5
	0x43038904		uart_print.xx_msg_const
	0x43038914		format_log_msg.xx_msg_const
	0x43038924		uart_rx_cb.xx_msg_const
	0x43038934		uart_tx_cb.xx_msg_const
.rodata.str1.1	0x43038944	0xb	D:\Smart-heart-rate-dector\Smart-heart-rate-dector\gagent\libgagent.a(semaph.o)	#SHT_PROGBITS,SHF_ALLOC|SHF_MERGE|SHF_STRINGS,1
	0x43038944		.L__FUNCTION__.iofSemInit
.rodata.str1.1	0x4303894f	0x2b	D:\Smart-heart-rate-dector\Smart-heart-rate-dector\gagent\libgagent.a(semaph.o)	#SHT_PROGBITS,SHF_ALLOC|SHF_MERGE|SHF_STRINGS,1
	0x4303894f		.L.str.2
.rodata.str1.1	0x4303897a	0x4	D:\Smart-heart-rate-dector\Smart-heart-rate-dector\gagent\libgagent.a(semaph.o)	#SHT_PROGBITS,SHF_ALLOC|SHF_MERGE|SHF_STRINGS,1
	0x4303897a		.L.str.3
.rodata.str1.1	0x4303897e	0x28	D:\Smart-heart-rate-dector\Smart-heart-rate-dector\gagent\libgagent.a(semaph.o)	#SHT_PROGBITS,SHF_ALLOC|SHF_MERGE|SHF_STRINGS,1
	0x4303897e		.L.str.4
.rodata.str1.1	0x430389a6	0x20	D:\Smart-heart-rate-dector\Smart-heart-rate-dector\gagent\libgagent.a(semaph.o)	#SHT_PROGBITS,SHF_ALLOC|SHF_MERGE|SHF_STRINGS,1
	0x430389a6		.L.str.5
.rodata.str1.1	0x430389c6	0x1a	D:\Smart-heart-rate-dector\Smart-heart-rate-dector\gagent\libgagent.a(semaph.o)	#SHT_PROGBITS,SHF_ALLOC|SHF_MERGE|SHF_STRINGS,1
	0x430389c6		.L.str.6
.rodata.str1.1	0x430389e0	0x12	D:\Smart-heart-rate-dector\Smart-heart-rate-dector\gagent\libgagent.a(semaph.o)	#SHT_PROGBITS,SHF_ALLOC|SHF_MERGE|SHF_STRINGS,1
	0x430389e0		.L.str.7
.rodata.str1.1	0x430389f2	0x18	D:\Smart-heart-rate-dector\Smart-heart-rate-dector\gagent\libgagent.a(semaph.o)	#SHT_PROGBITS,SHF_ALLOC|SHF_MERGE|SHF_STRINGS,1
	0x430389f2		.L.str.9
.rodata.str1.1	0x43038a0a	0x18	D:\Smart-heart-rate-dector\Smart-heart-rate-dector\gagent\libgagent.a(semaph.o)	#SHT_PROGBITS,SHF_ALLOC|SHF_MERGE|SHF_STRINGS,1
	0x43038a0a		.L.str.10
.rodata.str1.1	0x43038a22	0x13	D:\Smart-heart-rate-dector\Smart-heart-rate-dector\gagent\libgagent.a(simulatorcomm.o)	#SHT_PROGBITS,SHF_ALLOC|SHF_MERGE|SHF_STRINGS,1
	0x43038a22		.L.str.2
.rodata.str1.1	0x43038a35	0x1d	D:\Smart-heart-rate-dector\Smart-heart-rate-dector\gagent\libgagent.a(simulatorcomm.o)	#SHT_PROGBITS,SHF_ALLOC|SHF_MERGE|SHF_STRINGS,1
	0x43038a35		.L__FUNCTION__.simulatorUploadDtatTimeOutCb
.rodata.str1.1	0x43038a52	0x28	D:\Smart-heart-rate-dector\Smart-heart-rate-dector\gagent\libgagent.a(simulatorcomm.o)	#SHT_PROGBITS,SHF_ALLOC|SHF_MERGE|SHF_STRINGS,1
	0x43038a52		.L.str.3
.rodata.str1.1	0x43038a7a	0x14	D:\Smart-heart-rate-dector\Smart-heart-rate-dector\gagent\libgagent.a(simulatorcomm.o)	#SHT_PROGBITS,SHF_ALLOC|SHF_MERGE|SHF_STRINGS,1
	0x43038a7a		.L.str.4
.rodata.str1.1	0x43038a8e	0x11	D:\Smart-heart-rate-dector\Smart-heart-rate-dector\gagent\libgagent.a(simulatorcomm.o)	#SHT_PROGBITS,SHF_ALLOC|SHF_MERGE|SHF_STRINGS,1
	0x43038a8e		.L__FUNCTION__.gagentUploadData
.rodata.str1.1	0x43038a9f	0x20	D:\Smart-heart-rate-dector\Smart-heart-rate-dector\gagent\libgagent.a(simulatorcomm.o)	#SHT_PROGBITS,SHF_ALLOC|SHF_MERGE|SHF_STRINGS,1
	0x43038a9f		.L.str.5
.rodata.str1.1	0x43038abf	0x1d	D:\Smart-heart-rate-dector\Smart-heart-rate-dector\gagent\libgagent.a(simulatorcomm.o)	#SHT_PROGBITS,SHF_ALLOC|SHF_MERGE|SHF_STRINGS,1
	0x43038abf		.L.str.10
.rodata.str1.1	0x43038adc	0x1e	D:\Smart-heart-rate-dector\Smart-heart-rate-dector\gagent\libgagent.a(simulatorcomm.o)	#SHT_PROGBITS,SHF_ALLOC|SHF_MERGE|SHF_STRINGS,1
	0x43038adc		.L.str.11
.rodata.str1.1	0x43038afa	0x1d	D:\Smart-heart-rate-dector\Smart-heart-rate-dector\gagent\libgagent.a(simulatorcomm.o)	#SHT_PROGBITS,SHF_ALLOC|SHF_MERGE|SHF_STRINGS,1
	0x43038afa		.L.str.12
.rodata.str1.1	0x43038b17	0x3b	D:\Smart-heart-rate-dector\Smart-heart-rate-dector\gagent\libgagent.a(simulatorcomm.o)	#SHT_PROGBITS,SHF_ALLOC|SHF_MERGE|SHF_STRINGS,1
	0x43038b17		.L.str.13
.rodata.str1.1	0x43038b52	0x2b	D:\Smart-heart-rate-dector\Smart-heart-rate-dector\gagent\libgagent.a(simulatorcomm.o)	#SHT_PROGBITS,SHF_ALLOC|SHF_MERGE|SHF_STRINGS,1
	0x43038b52		.L.str.14
.rodata.str1.1	0x43038b7d	0x23	D:\Smart-heart-rate-dector\Smart-heart-rate-dector\gagent\libgagent.a(simulatorcomm.o)	#SHT_PROGBITS,SHF_ALLOC|SHF_MERGE|SHF_STRINGS,1
	0x43038b7d		.L.str.15
.rodata.str1.1	0x43038ba0	0x3a	D:\Smart-heart-rate-dector\Smart-heart-rate-dector\gagent\libgagent.a(simulatorcomm.o)	#SHT_PROGBITS,SHF_ALLOC|SHF_MERGE|SHF_STRINGS,1
	0x43038ba0		.L.str.16
.rodata.str1.1	0x43038bda	0xb	D:\Smart-heart-rate-dector\Smart-heart-rate-dector\gagent\libgagent.a(simulatorcomm.o)	#SHT_PROGBITS,SHF_ALLOC|SHF_MERGE|SHF_STRINGS,1
	0x43038bda		.L.str.17
.rodata.str1.1	0x43038be5	0x28	D:\Smart-heart-rate-dector\Smart-heart-rate-dector\gagent\libgagent.a(simulatorcomm.o)	#SHT_PROGBITS,SHF_ALLOC|SHF_MERGE|SHF_STRINGS,1
	0x43038be5		.L.str.18
.rodata.str1.1	0x43038c0d	0x57	D:\Smart-heart-rate-dector\Smart-heart-rate-dector\gagent\libgagent.a(simulatorcomm.o)	#SHT_PROGBITS,SHF_ALLOC|SHF_MERGE|SHF_STRINGS,1
	0x43038c0d		.L.str.21
.rodata.str1.1	0x43038c64	0x3a	D:\Smart-heart-rate-dector\Smart-heart-rate-dector\gagent\libgagent.a(simulatorcomm.o)	#SHT_PROGBITS,SHF_ALLOC|SHF_MERGE|SHF_STRINGS,1
	0x43038c64		.L.str.22
.rodata.str1.1	0x43038c9e	0x15	D:\Smart-heart-rate-dector\Smart-heart-rate-dector\gagent\libgagent.a(simulatorcomm.o)	#SHT_PROGBITS,SHF_ALLOC|SHF_MERGE|SHF_STRINGS,1
	0x43038c9e		.L.str.23
.rodata.str1.1	0x43038cb3	0x19	D:\Smart-heart-rate-dector\Smart-heart-rate-dector\gagent\libgagent.a(simulatorcomm.o)	#SHT_PROGBITS,SHF_ALLOC|SHF_MERGE|SHF_STRINGS,1
	0x43038cb3		.L.str.24
.rodata.str1.1	0x43038ccc	0x18	D:\Smart-heart-rate-dector\Smart-heart-rate-dector\gagent\libgagent.a(simulatorcomm.o)	#SHT_PROGBITS,SHF_ALLOC|SHF_MERGE|SHF_STRINGS,1
	0x43038ccc		.L.str.25
.rodata.str1.1	0x43038ce4	0x34	D:\Smart-heart-rate-dector\Smart-heart-rate-dector\gagent\libgagent.a(simulatorcomm.o)	#SHT_PROGBITS,SHF_ALLOC|SHF_MERGE|SHF_STRINGS,1
	0x43038ce4		.L.str.26
.rodata.str1.1	0x43038d18	0x1e	D:\Smart-heart-rate-dector\Smart-heart-rate-dector\gagent\libgagent.a(simulatorcomm.o)	#SHT_PROGBITS,SHF_ALLOC|SHF_MERGE|SHF_STRINGS,1
	0x43038d18		.L.str.27
.rodata.str1.1	0x43038d36	0xe	D:\Smart-heart-rate-dector\Smart-heart-rate-dector\gagent\libgagent.a(simulatorcomm.o)	#SHT_PROGBITS,SHF_ALLOC|SHF_MERGE|SHF_STRINGS,1
	0x43038d36		.L__FUNCTION__.gizWiFiStatus
.rodata.str1.1	0x43038d44	0x16	D:\Smart-heart-rate-dector\Smart-heart-rate-dector\gagent\libgagent.a(simulatorcomm.o)	#SHT_PROGBITS,SHF_ALLOC|SHF_MERGE|SHF_STRINGS,1
	0x43038d44		.L__FUNCTION__.simulatorUploadDtatCb
.rodata.str1.1	0x43038d5a	0x31	D:\Smart-heart-rate-dector\Smart-heart-rate-dector\gagent\libgagent.a(simulatorcomm.o)	#SHT_PROGBITS,SHF_ALLOC|SHF_MERGE|SHF_STRINGS,1
	0x43038d5a		.L.str.28
.rodata.str1.1	0x43038d8b	0x1b	D:\Smart-heart-rate-dector\Smart-heart-rate-dector\gagent\libgagent.a(simulatorcomm.o)	#SHT_PROGBITS,SHF_ALLOC|SHF_MERGE|SHF_STRINGS,1
	0x43038d8b		.L.str.29
PADDING_ALIGNMENT	0x43038da6	0x2	0x0
.rodata.str1.8	0x43038da8	0x11	D:\Smart-heart-rate-dector\Smart-heart-rate-dector\gagent\libgagent.a(simulatorcomm.o)	#SHT_PROGBITS,SHF_ALLOC|SHF_MERGE|SHF_STRINGS,8
	0x43038da8		.L__FUNCTION__.gizIssuedProcess
.rodata.str1.1	0x43038db9	0x16	D:\Smart-heart-rate-dector\Smart-heart-rate-dector\gagent\libgagent.a(tcp.o)	#SHT_PROGBITS,SHF_ALLOC|SHF_MERGE|SHF_STRINGS,1
	0x43038db9		.L.str
.rodata.str1.1	0x43038dcf	0x16	D:\Smart-heart-rate-dector\Smart-heart-rate-dector\gagent\libgagent.a(tcp.o)	#SHT_PROGBITS,SHF_ALLOC|SHF_MERGE|SHF_STRINGS,1
	0x43038dcf		.L.str.1
.rodata.str1.1	0x43038de5	0x16	D:\Smart-heart-rate-dector\Smart-heart-rate-dector\gagent\libgagent.a(tcp.o)	#SHT_PROGBITS,SHF_ALLOC|SHF_MERGE|SHF_STRINGS,1
	0x43038de5		.L.str.2
.rodata.str1.1	0x43038dfb	0x16	D:\Smart-heart-rate-dector\Smart-heart-rate-dector\gagent\libgagent.a(tcp.o)	#SHT_PROGBITS,SHF_ALLOC|SHF_MERGE|SHF_STRINGS,1
	0x43038dfb		.L.str.3
.rodata.str1.1	0x43038e11	0x1d	D:\Smart-heart-rate-dector\Smart-heart-rate-dector\gagent\libgagent.a(tcp.o)	#SHT_PROGBITS,SHF_ALLOC|SHF_MERGE|SHF_STRINGS,1
	0x43038e11		.L.str.6
.rodata.str1.1	0x43038e2e	0x14	D:\Smart-heart-rate-dector\Smart-heart-rate-dector\gagent\libgagent.a(tcp.o)	#SHT_PROGBITS,SHF_ALLOC|SHF_MERGE|SHF_STRINGS,1
	0x43038e2e		.L__FUNCTION__.gatTcpReceiveHandle
.rodata.str1.1	0x43038e42	0x1f	D:\Smart-heart-rate-dector\Smart-heart-rate-dector\gagent\libgagent.a(tcp.o)	#SHT_PROGBITS,SHF_ALLOC|SHF_MERGE|SHF_STRINGS,1
	0x43038e42		.L.str.7
.rodata.str1.1	0x43038e61	0x15	D:\Smart-heart-rate-dector\Smart-heart-rate-dector\gagent\libgagent.a(tcp.o)	#SHT_PROGBITS,SHF_ALLOC|SHF_MERGE|SHF_STRINGS,1
	0x43038e61		.L.str.8
.rodata.str1.1	0x43038e76	0x25	D:\Smart-heart-rate-dector\Smart-heart-rate-dector\gagent\libgagent.a(tcp.o)	#SHT_PROGBITS,SHF_ALLOC|SHF_MERGE|SHF_STRINGS,1
	0x43038e76		.L.str.9
.rodata.str1.1	0x43038e9b	0x31	D:\Smart-heart-rate-dector\Smart-heart-rate-dector\gagent\libgagent.a(tcp.o)	#SHT_PROGBITS,SHF_ALLOC|SHF_MERGE|SHF_STRINGS,1
	0x43038e9b		.L.str.10
.rodata.str1.1	0x43038ecc	0x13	D:\Smart-heart-rate-dector\Smart-heart-rate-dector\gagent\libgagent.a(tcp.o)	#SHT_PROGBITS,SHF_ALLOC|SHF_MERGE|SHF_STRINGS,1
	0x43038ecc		.L.str.11
.rodata.str1.1	0x43038edf	0x10	D:\Smart-heart-rate-dector\Smart-heart-rate-dector\gagent\libgagent.a(tcp.o)	#SHT_PROGBITS,SHF_ALLOC|SHF_MERGE|SHF_STRINGS,1
	0x43038edf		.L__FUNCTION__.gatTcpDelChNode
.rodata.str1.1	0x43038eef	0x17	D:\Smart-heart-rate-dector\Smart-heart-rate-dector\gagent\libgagent.a(tcp.o)	#SHT_PROGBITS,SHF_ALLOC|SHF_MERGE|SHF_STRINGS,1
	0x43038eef		.L.str.12
.rodata.str1.1	0x43038f06	0x32	D:\Smart-heart-rate-dector\Smart-heart-rate-dector\gagent\libgagent.a(tcp.o)	#SHT_PROGBITS,SHF_ALLOC|SHF_MERGE|SHF_STRINGS,1
	0x43038f06		.L.str.15
.rodata.str1.1	0x43038f38	0x19	D:\Smart-heart-rate-dector\Smart-heart-rate-dector\gagent\libgagent.a(tcp.o)	#SHT_PROGBITS,SHF_ALLOC|SHF_MERGE|SHF_STRINGS,1
	0x43038f38		.L.str.16
.rodata.str1.1	0x43038f51	0x10	D:\Smart-heart-rate-dector\Smart-heart-rate-dector\gagent\libgagent.a(tcp.o)	#SHT_PROGBITS,SHF_ALLOC|SHF_MERGE|SHF_STRINGS,1
	0x43038f51		.L__FUNCTION__.gatTcpListenAdd
.rodata.str1.1	0x43038f61	0x26	D:\Smart-heart-rate-dector\Smart-heart-rate-dector\gagent\libgagent.a(tcp.o)	#SHT_PROGBITS,SHF_ALLOC|SHF_MERGE|SHF_STRINGS,1
	0x43038f61		.L.str.18
.rodata.str1.1	0x43038f87	0x2e	D:\Smart-heart-rate-dector\Smart-heart-rate-dector\gagent\libgagent.a(tcp.o)	#SHT_PROGBITS,SHF_ALLOC|SHF_MERGE|SHF_STRINGS,1
	0x43038f87		.L.str.19
.rodata.str1.1	0x43038fb5	0x2a	D:\Smart-heart-rate-dector\Smart-heart-rate-dector\gagent\libgagent.a(tcp.o)	#SHT_PROGBITS,SHF_ALLOC|SHF_MERGE|SHF_STRINGS,1
	0x43038fb5		.L.str.20
.rodata.str1.1	0x43038fdf	0x12	D:\Smart-heart-rate-dector\Smart-heart-rate-dector\gagent\libgagent.a(tcp.o)	#SHT_PROGBITS,SHF_ALLOC|SHF_MERGE|SHF_STRINGS,1
	0x43038fdf		.L__FUNCTION__.gatTcpReadRecData
.rodata.str1.1	0x43038ff1	0x47	D:\Smart-heart-rate-dector\Smart-heart-rate-dector\gagent\libgagent.a(tcp.o)	#SHT_PROGBITS,SHF_ALLOC|SHF_MERGE|SHF_STRINGS,1
	0x43038ff1		.L.str.21
.rodata.str1.1	0x43039038	0x20	D:\Smart-heart-rate-dector\Smart-heart-rate-dector\gagent\libgagent.a(tcp.o)	#SHT_PROGBITS,SHF_ALLOC|SHF_MERGE|SHF_STRINGS,1
	0x43039038		.L.str.22
.rodata.str1.1	0x43039058	0x1f	D:\Smart-heart-rate-dector\Smart-heart-rate-dector\gagent\libgagent.a(tcp.o)	#SHT_PROGBITS,SHF_ALLOC|SHF_MERGE|SHF_STRINGS,1
	0x43039058		.L.str.23
.rodata.str1.1	0x43039077	0xb	D:\Smart-heart-rate-dector\Smart-heart-rate-dector\gagent\libgagent.a(tcp.o)	#SHT_PROGBITS,SHF_ALLOC|SHF_MERGE|SHF_STRINGS,1
	0x43039077		.L__FUNCTION__.gatTcpRecv
.rodata.str1.1	0x43039082	0x51	D:\Smart-heart-rate-dector\Smart-heart-rate-dector\gagent\libgagent.a(tcp.o)	#SHT_PROGBITS,SHF_ALLOC|SHF_MERGE|SHF_STRINGS,1
	0x43039082		.L.str.24
.rodata.str1.1	0x430390d3	0x29	D:\Smart-heart-rate-dector\Smart-heart-rate-dector\gagent\libgagent.a(tcp.o)	#SHT_PROGBITS,SHF_ALLOC|SHF_MERGE|SHF_STRINGS,1
	0x430390d3		.L.str.25
.rodata.str1.1	0x430390fc	0x1a	D:\Smart-heart-rate-dector\Smart-heart-rate-dector\gagent\libgagent.a(tcp.o)	#SHT_PROGBITS,SHF_ALLOC|SHF_MERGE|SHF_STRINGS,1
	0x430390fc		.L.str.26
.rodata.str1.1	0x43039116	0x29	D:\Smart-heart-rate-dector\Smart-heart-rate-dector\gagent\libgagent.a(tcp.o)	#SHT_PROGBITS,SHF_ALLOC|SHF_MERGE|SHF_STRINGS,1
	0x43039116		.L.str.27
.rodata.str1.1	0x4303913f	0x2a	D:\Smart-heart-rate-dector\Smart-heart-rate-dector\gagent\libgagent.a(tcp.o)	#SHT_PROGBITS,SHF_ALLOC|SHF_MERGE|SHF_STRINGS,1
	0x4303913f		.L.str.28
.rodata.str1.1	0x43039169	0x14	D:\Smart-heart-rate-dector\Smart-heart-rate-dector\gagent\libgagent.a(tcp.o)	#SHT_PROGBITS,SHF_ALLOC|SHF_MERGE|SHF_STRINGS,1
	0x43039169		.L.str.29
.rodata.str1.1	0x4303917d	0x19	D:\Smart-heart-rate-dector\Smart-heart-rate-dector\gagent\libgagent.a(tcp.o)	#SHT_PROGBITS,SHF_ALLOC|SHF_MERGE|SHF_STRINGS,1
	0x4303917d		.L.str.30
.rodata.str1.1	0x43039196	0x26	D:\Smart-heart-rate-dector\Smart-heart-rate-dector\gagent\libgagent.a(tcp.o)	#SHT_PROGBITS,SHF_ALLOC|SHF_MERGE|SHF_STRINGS,1
	0x43039196		.L.str.31
.rodata.str1.1	0x430391bc	0x27	D:\Smart-heart-rate-dector\Smart-heart-rate-dector\gagent\libgagent.a(tcp.o)	#SHT_PROGBITS,SHF_ALLOC|SHF_MERGE|SHF_STRINGS,1
	0x430391bc		.L.str.32
.rodata.str1.1	0x430391e3	0x25	D:\Smart-heart-rate-dector\Smart-heart-rate-dector\gagent\libgagent.a(tcp.o)	#SHT_PROGBITS,SHF_ALLOC|SHF_MERGE|SHF_STRINGS,1
	0x430391e3		.L.str.33
.rodata.str1.1	0x43039208	0x13	D:\Smart-heart-rate-dector\Smart-heart-rate-dector\gagent\libgagent.a(tcp.o)	#SHT_PROGBITS,SHF_ALLOC|SHF_MERGE|SHF_STRINGS,1
	0x43039208		.L.str.38
.rodata.str1.1	0x4303921b	0xb	D:\Smart-heart-rate-dector\Smart-heart-rate-dector\gagent\libgagent.a(tcp.o)	#SHT_PROGBITS,SHF_ALLOC|SHF_MERGE|SHF_STRINGS,1
	0x4303921b		.L__FUNCTION__.gatTcpSend
.rodata.str1.1	0x43039226	0x20	D:\Smart-heart-rate-dector\Smart-heart-rate-dector\gagent\libgagent.a(tcp.o)	#SHT_PROGBITS,SHF_ALLOC|SHF_MERGE|SHF_STRINGS,1
	0x43039226		.L.str.39
.rodata.str1.1	0x43039246	0x28	D:\Smart-heart-rate-dector\Smart-heart-rate-dector\gagent\libgagent.a(tcp.o)	#SHT_PROGBITS,SHF_ALLOC|SHF_MERGE|SHF_STRINGS,1
	0x43039246		.L.str.40
.rodata.str1.1	0x4303926e	0x28	D:\Smart-heart-rate-dector\Smart-heart-rate-dector\gagent\libgagent.a(tcp.o)	#SHT_PROGBITS,SHF_ALLOC|SHF_MERGE|SHF_STRINGS,1
	0x4303926e		.L.str.41
.rodata.str1.1	0x43039296	0x21	D:\Smart-heart-rate-dector\Smart-heart-rate-dector\gagent\libgagent.a(tcp.o)	#SHT_PROGBITS,SHF_ALLOC|SHF_MERGE|SHF_STRINGS,1
	0x43039296		.L.str.42
.rodata.str1.1	0x430392b7	0xf	D:\Smart-heart-rate-dector\Smart-heart-rate-dector\gagent\libgagent.a(tcp.o)	#SHT_PROGBITS,SHF_ALLOC|SHF_MERGE|SHF_STRINGS,1
	0x430392b7		.L__FUNCTION__.gatTcpSendTask
.rodata.str1.1	0x430392c6	0x2c	D:\Smart-heart-rate-dector\Smart-heart-rate-dector\gagent\libgagent.a(tcp.o)	#SHT_PROGBITS,SHF_ALLOC|SHF_MERGE|SHF_STRINGS,1
	0x430392c6		.L.str.43
.rodata.str1.1	0x430392f2	0x16	D:\Smart-heart-rate-dector\Smart-heart-rate-dector\gagent\libgagent.a(tcp.o)	#SHT_PROGBITS,SHF_ALLOC|SHF_MERGE|SHF_STRINGS,1
	0x430392f2		.L.str.44
.rodata.str1.1	0x43039308	0x1a	D:\Smart-heart-rate-dector\Smart-heart-rate-dector\gagent\libgagent.a(tcp.o)	#SHT_PROGBITS,SHF_ALLOC|SHF_MERGE|SHF_STRINGS,1
	0x43039308		.L.str.45
.rodata.str1.1	0x43039322	0x29	D:\Smart-heart-rate-dector\Smart-heart-rate-dector\gagent\libgagent.a(tcp.o)	#SHT_PROGBITS,SHF_ALLOC|SHF_MERGE|SHF_STRINGS,1
	0x43039322		.L.str.46
.rodata.str1.1	0x4303934b	0x22	D:\Smart-heart-rate-dector\Smart-heart-rate-dector\gagent\libgagent.a(tcp.o)	#SHT_PROGBITS,SHF_ALLOC|SHF_MERGE|SHF_STRINGS,1
	0x4303934b		.L.str.47
.rodata.str1.1	0x4303936d	0x1b	D:\Smart-heart-rate-dector\Smart-heart-rate-dector\gagent\libgagent.a(tcp.o)	#SHT_PROGBITS,SHF_ALLOC|SHF_MERGE|SHF_STRINGS,1
	0x4303936d		.L.str.48
.rodata.str1.1	0x43039388	0x2d	D:\Smart-heart-rate-dector\Smart-heart-rate-dector\gagent\libgagent.a(tcp.o)	#SHT_PROGBITS,SHF_ALLOC|SHF_MERGE|SHF_STRINGS,1
	0x43039388		.L.str.49
.rodata.str1.1	0x430393b5	0x10	D:\Smart-heart-rate-dector\Smart-heart-rate-dector\gagent\libgagent.a(tcp.o)	#SHT_PROGBITS,SHF_ALLOC|SHF_MERGE|SHF_STRINGS,1
	0x430393b5		.L__FUNCTION__.tcpSendCBHandle
.rodata.str1.1	0x430393c5	0x31	D:\Smart-heart-rate-dector\Smart-heart-rate-dector\gagent\libgagent.a(tcp.o)	#SHT_PROGBITS,SHF_ALLOC|SHF_MERGE|SHF_STRINGS,1
	0x430393c5		.L.str.50
.rodata.str1.1	0x430393f6	0x2d	D:\Smart-heart-rate-dector\Smart-heart-rate-dector\gagent\libgagent.a(tcp.o)	#SHT_PROGBITS,SHF_ALLOC|SHF_MERGE|SHF_STRINGS,1
	0x430393f6		.L.str.51
.rodata.str1.1	0x43039423	0x1a	D:\Smart-heart-rate-dector\Smart-heart-rate-dector\gagent\libgagent.a(tcp.o)	#SHT_PROGBITS,SHF_ALLOC|SHF_MERGE|SHF_STRINGS,1
	0x43039423		.L.str.52
.rodata.str1.1	0x4303943d	0x10	D:\Smart-heart-rate-dector\Smart-heart-rate-dector\gagent\libgagent.a(tcp.o)	#SHT_PROGBITS,SHF_ALLOC|SHF_MERGE|SHF_STRINGS,1
	0x4303943d		.L__FUNCTION__.gatTcpRecResult
.rodata.str1.1	0x4303944d	0x12	D:\Smart-heart-rate-dector\Smart-heart-rate-dector\gagent\libgagent.a(tcp.o)	#SHT_PROGBITS,SHF_ALLOC|SHF_MERGE|SHF_STRINGS,1
	0x4303944d		.L__FUNCTION__.gatDelTcpDataNode
.rodata.str1.1	0x4303945f	0xf	D:\Smart-heart-rate-dector\Smart-heart-rate-dector\gagent\libgagent.a(tcp.o)	#SHT_PROGBITS,SHF_ALLOC|SHF_MERGE|SHF_STRINGS,1
	0x4303945f		.L__FUNCTION__.tcpSendListAdd
.rodata.str1.1	0x4303946e	0x12	D:\Smart-heart-rate-dector\Smart-heart-rate-dector\gagent\libgagent.a(tcp.o)	#SHT_PROGBITS,SHF_ALLOC|SHF_MERGE|SHF_STRINGS,1
	0x4303946e		.L__FUNCTION__.gatDelTcpSendNode
.rodata.str1.1	0x43039480	0x20	D:\Smart-heart-rate-dector\Smart-heart-rate-dector\gagent\libgagent.a(tcp.o)	#SHT_PROGBITS,SHF_ALLOC|SHF_MERGE|SHF_STRINGS,1
	0x43039480		.L.str.53
.rodata.str1.1	0x430394a0	0x10	D:\Smart-heart-rate-dector\Smart-heart-rate-dector\gagent\libgagent.a(timer_subsystem.o)	#SHT_PROGBITS,SHF_ALLOC|SHF_MERGE|SHF_STRINGS,1
	0x430394a0		.L.str
.rodata.str1.1	0x430394b0	0x16	D:\Smart-heart-rate-dector\Smart-heart-rate-dector\gagent\libgagent.a(timer_subsystem.o)	#SHT_PROGBITS,SHF_ALLOC|SHF_MERGE|SHF_STRINGS,1
	0x430394b0		.L.str.3
.rodata.str1.1	0x430394c6	0x11	D:\Smart-heart-rate-dector\Smart-heart-rate-dector\gagent\libgagent.a(timer_subsystem.o)	#SHT_PROGBITS,SHF_ALLOC|SHF_MERGE|SHF_STRINGS,1
	0x430394c6		.L__FUNCTION__.gatTimerCoreInit
.rodata.str1.1	0x430394d7	0xc	D:\Smart-heart-rate-dector\Smart-heart-rate-dector\gagent\libgagent.a(timer_subsystem.o)	#SHT_PROGBITS,SHF_ALLOC|SHF_MERGE|SHF_STRINGS,1
	0x430394d7		.L__FUNCTION__.gatTimerAdd
.rodata.str1.1	0x430394e3	0x23	D:\Smart-heart-rate-dector\Smart-heart-rate-dector\gagent\libgagent.a(timer_subsystem.o)	#SHT_PROGBITS,SHF_ALLOC|SHF_MERGE|SHF_STRINGS,1
	0x430394e3		.L.str.4
.rodata.str1.1	0x43039506	0x1d	D:\Smart-heart-rate-dector\Smart-heart-rate-dector\gagent\libgagent.a(timer_subsystem.o)	#SHT_PROGBITS,SHF_ALLOC|SHF_MERGE|SHF_STRINGS,1
	0x43039506		.L.str.5
.rodata.str1.1	0x43039523	0x2b	D:\Smart-heart-rate-dector\Smart-heart-rate-dector\gagent\libgagent.a(timer_subsystem.o)	#SHT_PROGBITS,SHF_ALLOC|SHF_MERGE|SHF_STRINGS,1
	0x43039523		.L.str.6
.rodata.str1.1	0x4303954e	0x1b	D:\Smart-heart-rate-dector\Smart-heart-rate-dector\gagent\libgagent.a(timer_subsystem.o)	#SHT_PROGBITS,SHF_ALLOC|SHF_MERGE|SHF_STRINGS,1
	0x4303954e		.L.str.7
.rodata.str1.1	0x43039569	0xc	D:\Smart-heart-rate-dector\Smart-heart-rate-dector\gagent\libgagent.a(timer_subsystem.o)	#SHT_PROGBITS,SHF_ALLOC|SHF_MERGE|SHF_STRINGS,1
	0x43039569		.L__FUNCTION__.gatTimerDel
.rodata.str1.1	0x43039575	0x1a	D:\Smart-heart-rate-dector\Smart-heart-rate-dector\gagent\libgagent.a(timer_subsystem.o)	#SHT_PROGBITS,SHF_ALLOC|SHF_MERGE|SHF_STRINGS,1
	0x43039575		.L.str.8
.rodata.str1.1	0x4303958f	0xd	D:\Smart-heart-rate-dector\Smart-heart-rate-dector\gagent\libgagent.a(timer_subsystem.o)	#SHT_PROGBITS,SHF_ALLOC|SHF_MERGE|SHF_STRINGS,1
	0x4303958f		.L__FUNCTION__.gatTimerTick
.rodata.str1.1	0x4303959c	0x1a	D:\Smart-heart-rate-dector\Smart-heart-rate-dector\gagent\libgagent.a(timer_subsystem.o)	#SHT_PROGBITS,SHF_ALLOC|SHF_MERGE|SHF_STRINGS,1
	0x4303959c		.L.str.11
.rodata.str1.1	0x430395b6	0x14	D:\Smart-heart-rate-dector\Smart-heart-rate-dector\gagent\libgagent.a(timer_subsystem.o)	#SHT_PROGBITS,SHF_ALLOC|SHF_MERGE|SHF_STRINGS,1
	0x430395b6		.L.str.12
.rodata.str1.1	0x430395ca	0xf	D:\Smart-heart-rate-dector\Smart-heart-rate-dector\gagent\libgagent.a(timer_subsystem.o)	#SHT_PROGBITS,SHF_ALLOC|SHF_MERGE|SHF_STRINGS,1
	0x430395ca		.L__FUNCTION__.gatTimerHandle
.rodata.str1.1	0x430395d9	0x1b	D:\Smart-heart-rate-dector\Smart-heart-rate-dector\gagent\libgagent.a(timer_subsystem.o)	#SHT_PROGBITS,SHF_ALLOC|SHF_MERGE|SHF_STRINGS,1
	0x430395d9		.L.str.13
.rodata.str1.1	0x430395f4	0x26	D:\Smart-heart-rate-dector\Smart-heart-rate-dector\gagent\libgagent.a(timer_subsystem.o)	#SHT_PROGBITS,SHF_ALLOC|SHF_MERGE|SHF_STRINGS,1
	0x430395f4		.L.str.14
.rodata.str1.1	0x4303961a	0x12	D:\Smart-heart-rate-dector\Smart-heart-rate-dector\gagent\libgagent.a(timer_subsystem.o)	#SHT_PROGBITS,SHF_ALLOC|SHF_MERGE|SHF_STRINGS,1
	0x4303961a		.L__FUNCTION__.gatTimerTraversal
.rodata.str1.1	0x4303962c	0x59	D:\Smart-heart-rate-dector\Smart-heart-rate-dector\gagent\libgagent.a(timer_subsystem.o)	#SHT_PROGBITS,SHF_ALLOC|SHF_MERGE|SHF_STRINGS,1
	0x4303962c		.L.str.15
.rodata.str1.1	0x43039685	0x6	D:\Smart-heart-rate-dector\Smart-heart-rate-dector\gagent\libgagent.a(timer_subsystem.o)	#SHT_PROGBITS,SHF_ALLOC|SHF_MERGE|SHF_STRINGS,1
	0x43039685		.L.str.16
.rodata.str1.1	0x4303968b	0x6c	D:\Smart-heart-rate-dector\Smart-heart-rate-dector\gagent\libgagent.a(timer_subsystem.o)	#SHT_PROGBITS,SHF_ALLOC|SHF_MERGE|SHF_STRINGS,1
	0x4303968b		.L.str.17
.rodata.str1.1	0x430396f7	0x2e	D:\Smart-heart-rate-dector\Smart-heart-rate-dector\gagent\libgagent.a(timer_subsystem.o)	#SHT_PROGBITS,SHF_ALLOC|SHF_MERGE|SHF_STRINGS,1
	0x430396f7		.L.str.18
.rodata.str1.1	0x43039725	0x59	D:\Smart-heart-rate-dector\Smart-heart-rate-dector\gagent\libgagent.a(timer_subsystem.o)	#SHT_PROGBITS,SHF_ALLOC|SHF_MERGE|SHF_STRINGS,1
	0x43039725		.L.str.19
.rodata.str1.1	0x4303977e	0x1b	D:\Smart-heart-rate-dector\Smart-heart-rate-dector\gagent\libgagent.a(timer_subsystem.o)	#SHT_PROGBITS,SHF_ALLOC|SHF_MERGE|SHF_STRINGS,1
	0x4303977e		.L.str.20
.rodata.str1.1	0x43039799	0x24	D:\Smart-heart-rate-dector\Smart-heart-rate-dector\gagent\libgagent.a(timer_subsystem.o)	#SHT_PROGBITS,SHF_ALLOC|SHF_MERGE|SHF_STRINGS,1
	0x43039799		.L.str.21
.rodata.str1.1	0x430397bd	0xc	D:\Smart-heart-rate-dector\Smart-heart-rate-dector\gagent\libgagent.a(aes.o)	#SHT_PROGBITS,SHF_ALLOC|SHF_MERGE|SHF_STRINGS,1
	0x430397bd		.L__FUNCTION__.invSboxInit
.rodata.str1.1	0x430397c9	0x8	D:\Smart-heart-rate-dector\Smart-heart-rate-dector\gagent\libgagent.a(aes.o)	#SHT_PROGBITS,SHF_ALLOC|SHF_MERGE|SHF_STRINGS,1
	0x430397c9		.L__FUNCTION__.aesInit
.rodata.str1.1	0x430397d1	0xb	D:\Smart-heart-rate-dector\Smart-heart-rate-dector\gagent\libgagent.a(aes.o)	#SHT_PROGBITS,SHF_ALLOC|SHF_MERGE|SHF_STRINGS,1
	0x430397d1		.L__FUNCTION__.aesDestroy
.rodata.str1.1	0x430397dc	0x11	D:\Smart-heart-rate-dector\Smart-heart-rate-dector\gagent\libgagent.a(aes.o)	#SHT_PROGBITS,SHF_ALLOC|SHF_MERGE|SHF_STRINGS,1
	0x430397dc		.L__FUNCTION__.aesECB128Encrypt
.rodata.str1.1	0x430397ed	0x11	D:\Smart-heart-rate-dector\Smart-heart-rate-dector\gagent\libgagent.a(aes.o)	#SHT_PROGBITS,SHF_ALLOC|SHF_MERGE|SHF_STRINGS,1
	0x430397ed		.L__FUNCTION__.aesECB128Decrypt
.rodata.str1.1	0x430397fe	0x14	D:\Smart-heart-rate-dector\Smart-heart-rate-dector\gagent\libgagent.a(aes.o)	#SHT_PROGBITS,SHF_ALLOC|SHF_MERGE|SHF_STRINGS,1
	0x430397fe		.L__FUNCTION__.aesECB128DecryptRaw
.rodata.str1.1	0x43039812	0x1d	D:\Smart-heart-rate-dector\Smart-heart-rate-dector\gagent\libgagent.a(authorization.o)	#SHT_PROGBITS,SHF_ALLOC|SHF_MERGE|SHF_STRINGS,1
	0x43039812		.L.str.2
.rodata.str1.1	0x4303982f	0x19	D:\Smart-heart-rate-dector\Smart-heart-rate-dector\gagent\libgagent.a(authorization.o)	#SHT_PROGBITS,SHF_ALLOC|SHF_MERGE|SHF_STRINGS,1
	0x4303982f		.L.str.3
.rodata.str1.1	0x43039848	0x25	D:\Smart-heart-rate-dector\Smart-heart-rate-dector\gagent\libgagent.a(authorization.o)	#SHT_PROGBITS,SHF_ALLOC|SHF_MERGE|SHF_STRINGS,1
	0x43039848		.L.str.4
.rodata.str1.1	0x4303986d	0x10	D:\Smart-heart-rate-dector\Smart-heart-rate-dector\gagent\libgagent.a(authorization.o)	#SHT_PROGBITS,SHF_ALLOC|SHF_MERGE|SHF_STRINGS,1
	0x4303986d		.L.str.5
.rodata.str1.1	0x4303987d	0xe	D:\Smart-heart-rate-dector\Smart-heart-rate-dector\gagent\libgagent.a(authorization.o)	#SHT_PROGBITS,SHF_ALLOC|SHF_MERGE|SHF_STRINGS,1
	0x4303987d		.L__FUNCTION__.gatRecAuthKey
.rodata.str1.1	0x4303988b	0x32	D:\Smart-heart-rate-dector\Smart-heart-rate-dector\gagent\libgagent.a(authorization.o)	#SHT_PROGBITS,SHF_ALLOC|SHF_MERGE|SHF_STRINGS,1
	0x4303988b		.L.str.10
.rodata.str1.1	0x430398bd	0x23	D:\Smart-heart-rate-dector\Smart-heart-rate-dector\gagent\libgagent.a(authorization.o)	#SHT_PROGBITS,SHF_ALLOC|SHF_MERGE|SHF_STRINGS,1
	0x430398bd		.L.str.11
.rodata.str1.1	0x430398e0	0x23	D:\Smart-heart-rate-dector\Smart-heart-rate-dector\gagent\libgagent.a(authorization.o)	#SHT_PROGBITS,SHF_ALLOC|SHF_MERGE|SHF_STRINGS,1
	0x430398e0		.L.str.12
.rodata.str1.1	0x43039903	0x2c	D:\Smart-heart-rate-dector\Smart-heart-rate-dector\gagent\libgagent.a(authorization.o)	#SHT_PROGBITS,SHF_ALLOC|SHF_MERGE|SHF_STRINGS,1
	0x43039903		.L.str.13
.rodata.str1.1	0x4303992f	0x39	D:\Smart-heart-rate-dector\Smart-heart-rate-dector\gagent\libgagent.a(authorization.o)	#SHT_PROGBITS,SHF_ALLOC|SHF_MERGE|SHF_STRINGS,1
	0x4303992f		.L.str.14
.rodata.str1.1	0x43039968	0x2a	D:\Smart-heart-rate-dector\Smart-heart-rate-dector\gagent\libgagent.a(authorization.o)	#SHT_PROGBITS,SHF_ALLOC|SHF_MERGE|SHF_STRINGS,1
	0x43039968		.L.str.15
.rodata.str1.1	0x43039992	0x21	D:\Smart-heart-rate-dector\Smart-heart-rate-dector\gagent\libgagent.a(authorization.o)	#SHT_PROGBITS,SHF_ALLOC|SHF_MERGE|SHF_STRINGS,1
	0x43039992		.L.str.16
.rodata.str1.1	0x430399b3	0x2f	D:\Smart-heart-rate-dector\Smart-heart-rate-dector\gagent\libgagent.a(authorization.o)	#SHT_PROGBITS,SHF_ALLOC|SHF_MERGE|SHF_STRINGS,1
	0x430399b3		.L.str.17
.rodata.str1.1	0x430399e2	0x34	D:\Smart-heart-rate-dector\Smart-heart-rate-dector\gagent\libgagent.a(authorization.o)	#SHT_PROGBITS,SHF_ALLOC|SHF_MERGE|SHF_STRINGS,1
	0x430399e2		.L.str.18
.rodata.str1.1	0x43039a16	0xa	D:\Smart-heart-rate-dector\Smart-heart-rate-dector\gagent\libgagent.a(authorization.o)	#SHT_PROGBITS,SHF_ALLOC|SHF_MERGE|SHF_STRINGS,1
	0x43039a16		.L.str.19
.rodata.str1.1	0x43039a20	0x2c	D:\Smart-heart-rate-dector\Smart-heart-rate-dector\gagent\libgagent.a(authorization.o)	#SHT_PROGBITS,SHF_ALLOC|SHF_MERGE|SHF_STRINGS,1
	0x43039a20		.L.str.20
.rodata.str1.1	0x43039a4c	0x21	D:\Smart-heart-rate-dector\Smart-heart-rate-dector\gagent\libgagent.a(authorization.o)	#SHT_PROGBITS,SHF_ALLOC|SHF_MERGE|SHF_STRINGS,1
	0x43039a4c		.L.str.21
.rodata.str1.1	0x43039a6d	0x11	D:\Smart-heart-rate-dector\Smart-heart-rate-dector\gagent\libgagent.a(authorization.o)	#SHT_PROGBITS,SHF_ALLOC|SHF_MERGE|SHF_STRINGS,1
	0x43039a6d		.L__FUNCTION__.gatGetAuthReqAck
.rodata.str1.1	0x43039a7e	0x18	D:\Smart-heart-rate-dector\Smart-heart-rate-dector\gagent\libgagent.a(authorization.o)	#SHT_PROGBITS,SHF_ALLOC|SHF_MERGE|SHF_STRINGS,1
	0x43039a7e		.L.str.22
.rodata.str1.1	0x43039a96	0xc	D:\Smart-heart-rate-dector\Smart-heart-rate-dector\gagent\libgagent.a(authorization.o)	#SHT_PROGBITS,SHF_ALLOC|SHF_MERGE|SHF_STRINGS,1
	0x43039a96		.L__FUNCTION__.gatAuthInit
.rodata.str1.1	0x43039aa2	0x25	D:\Smart-heart-rate-dector\Smart-heart-rate-dector\gagent\libgagent.a(authorization.o)	#SHT_PROGBITS,SHF_ALLOC|SHF_MERGE|SHF_STRINGS,1
	0x43039aa2		.L.str.23
.rodata.str1.1	0x43039ac7	0xe	D:\Smart-heart-rate-dector\Smart-heart-rate-dector\gagent\libgagent.a(authorization.o)	#SHT_PROGBITS,SHF_ALLOC|SHF_MERGE|SHF_STRINGS,1
	0x43039ac7		.L__FUNCTION__.gatAuthKeySet
.rodata.str1.1	0x43039ad5	0x25	D:\Smart-heart-rate-dector\Smart-heart-rate-dector\gagent\libgagent.a(authorization.o)	#SHT_PROGBITS,SHF_ALLOC|SHF_MERGE|SHF_STRINGS,1
	0x43039ad5		.L.str.24
.rodata.str1.1	0x43039afa	0x14	D:\Smart-heart-rate-dector\Smart-heart-rate-dector\gagent\libgagent.a(authorization.o)	#SHT_PROGBITS,SHF_ALLOC|SHF_MERGE|SHF_STRINGS,1
	0x43039afa		.L__FUNCTION__.gatWaitAuthKeyTimer
.rodata.str1.1	0x43039b0e	0x10	D:\Smart-heart-rate-dector\Smart-heart-rate-dector\gagent\libgagent.a(authorization.o)	#SHT_PROGBITS,SHF_ALLOC|SHF_MERGE|SHF_STRINGS,1
	0x43039b0e		.L.str.25
.rodata.str1.1	0x43039b1e	0xe	D:\Smart-heart-rate-dector\Smart-heart-rate-dector\gagent\libgagent.a(authorization.o)	#SHT_PROGBITS,SHF_ALLOC|SHF_MERGE|SHF_STRINGS,1
	0x43039b1e		.L__FUNCTION__.gatReqAuthKey
.rodata.str1.1	0x43039b2c	0x23	D:\Smart-heart-rate-dector\Smart-heart-rate-dector\gagent\libgagent.a(authorization.o)	#SHT_PROGBITS,SHF_ALLOC|SHF_MERGE|SHF_STRINGS,1
	0x43039b2c		.L.str.26
.rodata.str1.1	0x43039b4f	0x1f	D:\Smart-heart-rate-dector\Smart-heart-rate-dector\gagent\libgagent.a(authorization.o)	#SHT_PROGBITS,SHF_ALLOC|SHF_MERGE|SHF_STRINGS,1
	0x43039b4f		.L.str.28
.rodata.str1.1	0x43039b6e	0x3a	D:\Smart-heart-rate-dector\Smart-heart-rate-dector\gagent\libgagent.a(authorization.o)	#SHT_PROGBITS,SHF_ALLOC|SHF_MERGE|SHF_STRINGS,1
	0x43039b6e		.L.str.29
.rodata.str1.1	0x43039ba8	0x15	D:\Smart-heart-rate-dector\Smart-heart-rate-dector\gagent\libgagent.a(authorization.o)	#SHT_PROGBITS,SHF_ALLOC|SHF_MERGE|SHF_STRINGS,1
	0x43039ba8		.L__FUNCTION__.gatReqAuthKeyTimeOut
.rodata.str1.1	0x43039bbd	0x34	D:\Smart-heart-rate-dector\Smart-heart-rate-dector\gagent\libgagent.a(dp.o)	#SHT_PROGBITS,SHF_ALLOC|SHF_MERGE|SHF_STRINGS,1
	0x43039bbd		.L.str.2
.rodata.str1.1	0x43039bf1	0x35	D:\Smart-heart-rate-dector\Smart-heart-rate-dector\gagent\libgagent.a(dp.o)	#SHT_PROGBITS,SHF_ALLOC|SHF_MERGE|SHF_STRINGS,1
	0x43039bf1		.L.str.3
.rodata.str1.1	0x43039c26	0x8	D:\Smart-heart-rate-dector\Smart-heart-rate-dector\gagent\libgagent.a(dp.o)	#SHT_PROGBITS,SHF_ALLOC|SHF_MERGE|SHF_STRINGS,1
	0x43039c26		.L__FUNCTION__.dpTrans
.rodata.str1.1	0x43039c2e	0x34	D:\Smart-heart-rate-dector\Smart-heart-rate-dector\gagent\libgagent.a(dp.o)	#SHT_PROGBITS,SHF_ALLOC|SHF_MERGE|SHF_STRINGS,1
	0x43039c2e		.L.str.4
.rodata.str1.1	0x43039c62	0x28	D:\Smart-heart-rate-dector\Smart-heart-rate-dector\gagent\libgagent.a(dp.o)	#SHT_PROGBITS,SHF_ALLOC|SHF_MERGE|SHF_STRINGS,1
	0x43039c62		.L.str.5
.rodata.str1.1	0x43039c8a	0xd	D:\Smart-heart-rate-dector\Smart-heart-rate-dector\gagent\libgagent.a(dp.o)	#SHT_PROGBITS,SHF_ALLOC|SHF_MERGE|SHF_STRINGS,1
	0x43039c8a		.L.str.6
.rodata.str1.1	0x43039c97	0x9	D:\Smart-heart-rate-dector\Smart-heart-rate-dector\gagent\libgagent.a(dp.o)	#SHT_PROGBITS,SHF_ALLOC|SHF_MERGE|SHF_STRINGS,1
	0x43039c97		.L.str.7
.rodata.str1.1	0x43039ca0	0xc	D:\Smart-heart-rate-dector\Smart-heart-rate-dector\gagent\libgagent.a(dp.o)	#SHT_PROGBITS,SHF_ALLOC|SHF_MERGE|SHF_STRINGS,1
	0x43039ca0		.L.str.8
.rodata.str1.1	0x43039cac	0x17	D:\Smart-heart-rate-dector\Smart-heart-rate-dector\gagent\libgagent.a(dp.o)	#SHT_PROGBITS,SHF_ALLOC|SHF_MERGE|SHF_STRINGS,1
	0x43039cac		.L.str.9
.rodata.str1.1	0x43039cc3	0xa	D:\Smart-heart-rate-dector\Smart-heart-rate-dector\gagent\libgagent.a(dp.o)	#SHT_PROGBITS,SHF_ALLOC|SHF_MERGE|SHF_STRINGS,1
	0x43039cc3		.L__FUNCTION__.getWanCmd
.rodata.str1.1	0x43039ccd	0x9	D:\Smart-heart-rate-dector\Smart-heart-rate-dector\gagent\libgagent.a(env.o)	#SHT_PROGBITS,SHF_ALLOC|SHF_MERGE|SHF_STRINGS,1
	0x43039ccd		.L.str
.rodata.str1.1	0x43039cd6	0x29	D:\Smart-heart-rate-dector\Smart-heart-rate-dector\gagent\libgagent.a(env.o)	#SHT_PROGBITS,SHF_ALLOC|SHF_MERGE|SHF_STRINGS,1
	0x43039cd6		.L.str.3
.rodata.str1.1	0x43039cff	0xc	D:\Smart-heart-rate-dector\Smart-heart-rate-dector\gagent\libgagent.a(env.o)	#SHT_PROGBITS,SHF_ALLOC|SHF_MERGE|SHF_STRINGS,1
	0x43039cff		.L__FUNCTION__.getEnvErase
.rodata.str1.1	0x43039d0b	0x1a	D:\Smart-heart-rate-dector\Smart-heart-rate-dector\gagent\libgagent.a(env.o)	#SHT_PROGBITS,SHF_ALLOC|SHF_MERGE|SHF_STRINGS,1
	0x43039d0b		.L.str.4
.rodata.str1.1	0x43039d25	0xc	D:\Smart-heart-rate-dector\Smart-heart-rate-dector\gagent\libgagent.a(env.o)	#SHT_PROGBITS,SHF_ALLOC|SHF_MERGE|SHF_STRINGS,1
	0x43039d25		.L__FUNCTION__.gatEnvWrite
.rodata.str1.1	0x43039d31	0x26	D:\Smart-heart-rate-dector\Smart-heart-rate-dector\gagent\libgagent.a(env.o)	#SHT_PROGBITS,SHF_ALLOC|SHF_MERGE|SHF_STRINGS,1
	0x43039d31		.L.str.5
.rodata.str1.1	0x43039d57	0x21	D:\Smart-heart-rate-dector\Smart-heart-rate-dector\gagent\libgagent.a(env.o)	#SHT_PROGBITS,SHF_ALLOC|SHF_MERGE|SHF_STRINGS,1
	0x43039d57		.L.str.6
.rodata.str1.1	0x43039d78	0x15	D:\Smart-heart-rate-dector\Smart-heart-rate-dector\gagent\libgagent.a(env.o)	#SHT_PROGBITS,SHF_ALLOC|SHF_MERGE|SHF_STRINGS,1
	0x43039d78		.L.str.7
.rodata.str1.1	0x43039d8d	0x18	D:\Smart-heart-rate-dector\Smart-heart-rate-dector\gagent\libgagent.a(env.o)	#SHT_PROGBITS,SHF_ALLOC|SHF_MERGE|SHF_STRINGS,1
	0x43039d8d		.L.str.12
.rodata.str1.1	0x43039da5	0x20	D:\Smart-heart-rate-dector\Smart-heart-rate-dector\gagent\libgagent.a(env.o)	#SHT_PROGBITS,SHF_ALLOC|SHF_MERGE|SHF_STRINGS,1
	0x43039da5		.L.str.13
.rodata.str1.1	0x43039dc5	0x26	D:\Smart-heart-rate-dector\Smart-heart-rate-dector\gagent\libgagent.a(env.o)	#SHT_PROGBITS,SHF_ALLOC|SHF_MERGE|SHF_STRINGS,1
	0x43039dc5		.L.str.14
.rodata.str1.1	0x43039deb	0x26	D:\Smart-heart-rate-dector\Smart-heart-rate-dector\gagent\libgagent.a(env.o)	#SHT_PROGBITS,SHF_ALLOC|SHF_MERGE|SHF_STRINGS,1
	0x43039deb		.L.str.15
.rodata.str1.1	0x43039e11	0x1c	D:\Smart-heart-rate-dector\Smart-heart-rate-dector\gagent\libgagent.a(env.o)	#SHT_PROGBITS,SHF_ALLOC|SHF_MERGE|SHF_STRINGS,1
	0x43039e11		.L.str.16
.rodata.str1.1	0x43039e2d	0xb	D:\Smart-heart-rate-dector\Smart-heart-rate-dector\gagent\libgagent.a(env.o)	#SHT_PROGBITS,SHF_ALLOC|SHF_MERGE|SHF_STRINGS,1
	0x43039e2d		.L__FUNCTION__.gatEnvRead
.rodata.str1.1	0x43039e38	0x20	D:\Smart-heart-rate-dector\Smart-heart-rate-dector\gagent\libgagent.a(env.o)	#SHT_PROGBITS,SHF_ALLOC|SHF_MERGE|SHF_STRINGS,1
	0x43039e38		.L.str.17
.rodata.str1.1	0x43039e58	0x20	D:\Smart-heart-rate-dector\Smart-heart-rate-dector\gagent\libgagent.a(env.o)	#SHT_PROGBITS,SHF_ALLOC|SHF_MERGE|SHF_STRINGS,1
	0x43039e58		.L.str.18
.rodata.str1.1	0x43039e78	0xc	D:\Smart-heart-rate-dector\Smart-heart-rate-dector\gagent\libgagent.a(gagent.o)	#SHT_PROGBITS,SHF_ALLOC|SHF_MERGE|SHF_STRINGS,1
	0x43039e78		.L.str
.rodata.str1.1	0x43039e84	0x20	D:\Smart-heart-rate-dector\Smart-heart-rate-dector\gagent\libgagent.a(gagent.o)	#SHT_PROGBITS,SHF_ALLOC|SHF_MERGE|SHF_STRINGS,1
	0x43039e84		.L.str.3
.rodata.str1.1	0x43039ea4	0x14	D:\Smart-heart-rate-dector\Smart-heart-rate-dector\gagent\libgagent.a(gagent.o)	#SHT_PROGBITS,SHF_ALLOC|SHF_MERGE|SHF_STRINGS,1
	0x43039ea4		.L__FUNCTION__.gatReBootTimerStart
.rodata.str1.1	0x43039eb8	0x14	D:\Smart-heart-rate-dector\Smart-heart-rate-dector\gagent\libgagent.a(gagent.o)	#SHT_PROGBITS,SHF_ALLOC|SHF_MERGE|SHF_STRINGS,1
	0x43039eb8		.L.str.4
.rodata.str1.1	0x43039ecc	0xe	D:\Smart-heart-rate-dector\Smart-heart-rate-dector\gagent\libgagent.a(gagent.o)	#SHT_PROGBITS,SHF_ALLOC|SHF_MERGE|SHF_STRINGS,1
	0x43039ecc		.L__FUNCTION__.gatSetSoftVer
.rodata.str1.1	0x43039eda	0xe	D:\Smart-heart-rate-dector\Smart-heart-rate-dector\gagent\libgagent.a(gagent.o)	#SHT_PROGBITS,SHF_ALLOC|SHF_MERGE|SHF_STRINGS,1
	0x43039eda		.L__FUNCTION__.gatGetSoftVer
.rodata.str1.1	0x43039ee8	0x17	D:\Smart-heart-rate-dector\Smart-heart-rate-dector\gagent\libgagent.a(gagent.o)	#SHT_PROGBITS,SHF_ALLOC|SHF_MERGE|SHF_STRINGS,1
	0x43039ee8		.L.str.5
.rodata.str1.1	0x43039eff	0x13	D:\Smart-heart-rate-dector\Smart-heart-rate-dector\gagent\libgagent.a(gagent.o)	#SHT_PROGBITS,SHF_ALLOC|SHF_MERGE|SHF_STRINGS,1
	0x43039eff		.L__FUNCTION__.gagentReBootHandle
.rodata.str1.1	0x43039f12	0x1c	D:\Smart-heart-rate-dector\Smart-heart-rate-dector\gagent\libgagent.a(gagent.o)	#SHT_PROGBITS,SHF_ALLOC|SHF_MERGE|SHF_STRINGS,1
	0x43039f12		.L.str.6
.rodata.str1.1	0x43039f2e	0xa	D:\Smart-heart-rate-dector\Smart-heart-rate-dector\gagent\libgagent.a(gagent.o)	#SHT_PROGBITS,SHF_ALLOC|SHF_MERGE|SHF_STRINGS,1
	0x43039f2e		.L__FUNCTION__.gatReBoot
.rodata.str1.1	0x43039f38	0x22	D:\Smart-heart-rate-dector\Smart-heart-rate-dector\gagent\libgagent.a(gagent.o)	#SHT_PROGBITS,SHF_ALLOC|SHF_MERGE|SHF_STRINGS,1
	0x43039f38		.L.str.7
.rodata.str1.1	0x43039f5a	0xb	D:\Smart-heart-rate-dector\Smart-heart-rate-dector\gagent\libgagent.a(gagent.o)	#SHT_PROGBITS,SHF_ALLOC|SHF_MERGE|SHF_STRINGS,1
	0x43039f5a		.L.str.8
.rodata.str1.1	0x43039f65	0x15	D:\Smart-heart-rate-dector\Smart-heart-rate-dector\gagent\libgagent.a(gagent.o)	#SHT_PROGBITS,SHF_ALLOC|SHF_MERGE|SHF_STRINGS,1
	0x43039f65		.L__FUNCTION__.gatDealUserPayload90
.rodata.str1.1	0x43039f7a	0x11	D:\Smart-heart-rate-dector\Smart-heart-rate-dector\gagent\libgagent.a(gagent.o)	#SHT_PROGBITS,SHF_ALLOC|SHF_MERGE|SHF_STRINGS,1
	0x43039f7a		.L.str.9
.rodata.str1.1	0x43039f8b	0x5b	D:\Smart-heart-rate-dector\Smart-heart-rate-dector\gagent\libgagent.a(gagent.o)	#SHT_PROGBITS,SHF_ALLOC|SHF_MERGE|SHF_STRINGS,1
	0x43039f8b		.L.str.10
.rodata.str1.1	0x43039fe6	0x36	D:\Smart-heart-rate-dector\Smart-heart-rate-dector\gagent\libgagent.a(gagent.o)	#SHT_PROGBITS,SHF_ALLOC|SHF_MERGE|SHF_STRINGS,1
	0x43039fe6		.L.str.11
.rodata.str1.1	0x4303a01c	0x1a	D:\Smart-heart-rate-dector\Smart-heart-rate-dector\gagent\libgagent.a(gagent.o)	#SHT_PROGBITS,SHF_ALLOC|SHF_MERGE|SHF_STRINGS,1
	0x4303a01c		.L.str.12
.rodata.str1.1	0x4303a036	0xa	D:\Smart-heart-rate-dector\Smart-heart-rate-dector\gagent\libgagent.a(gagent.o)	#SHT_PROGBITS,SHF_ALLOC|SHF_MERGE|SHF_STRINGS,1
	0x4303a036		.L.str.13
.rodata.str1.1	0x4303a040	0x15	D:\Smart-heart-rate-dector\Smart-heart-rate-dector\gagent\libgagent.a(gagent.o)	#SHT_PROGBITS,SHF_ALLOC|SHF_MERGE|SHF_STRINGS,1
	0x4303a040		.L__FUNCTION__.gatDealUserPayload93
.rodata.str1.1	0x4303a055	0x2b	D:\Smart-heart-rate-dector\Smart-heart-rate-dector\gagent\libgagent.a(gagent.o)	#SHT_PROGBITS,SHF_ALLOC|SHF_MERGE|SHF_STRINGS,1
	0x4303a055		.L.str.18
.rodata.str1.1	0x4303a080	0x61	D:\Smart-heart-rate-dector\Smart-heart-rate-dector\gagent\libgagent.a(gagent.o)	#SHT_PROGBITS,SHF_ALLOC|SHF_MERGE|SHF_STRINGS,1
	0x4303a080		.L.str.19
.rodata.str1.1	0x4303a0e1	0x49	D:\Smart-heart-rate-dector\Smart-heart-rate-dector\gagent\libgagent.a(gagent.o)	#SHT_PROGBITS,SHF_ALLOC|SHF_MERGE|SHF_STRINGS,1
	0x4303a0e1		.L.str.20
.rodata.str1.1	0x4303a12a	0x45	D:\Smart-heart-rate-dector\Smart-heart-rate-dector\gagent\libgagent.a(gagent.o)	#SHT_PROGBITS,SHF_ALLOC|SHF_MERGE|SHF_STRINGS,1
	0x4303a12a		.L.str.21
.rodata.str1.1	0x4303a16f	0x44	D:\Smart-heart-rate-dector\Smart-heart-rate-dector\gagent\libgagent.a(gagent.o)	#SHT_PROGBITS,SHF_ALLOC|SHF_MERGE|SHF_STRINGS,1
	0x4303a16f		.L.str.22
.rodata.str1.1	0x4303a1b3	0x2a	D:\Smart-heart-rate-dector\Smart-heart-rate-dector\gagent\libgagent.a(gagent.o)	#SHT_PROGBITS,SHF_ALLOC|SHF_MERGE|SHF_STRINGS,1
	0x4303a1b3		.L.str.23
.rodata.str1.1	0x4303a1dd	0x23	D:\Smart-heart-rate-dector\Smart-heart-rate-dector\gagent\libgagent.a(gagent.o)	#SHT_PROGBITS,SHF_ALLOC|SHF_MERGE|SHF_STRINGS,1
	0x4303a1dd		.L.str.24
.rodata.str1.1	0x4303a200	0x30	D:\Smart-heart-rate-dector\Smart-heart-rate-dector\gagent\libgagent.a(gagent.o)	#SHT_PROGBITS,SHF_ALLOC|SHF_MERGE|SHF_STRINGS,1
	0x4303a200		.L.str.25
.rodata.str1.1	0x4303a230	0x15	D:\Smart-heart-rate-dector\Smart-heart-rate-dector\gagent\libgagent.a(gagent.o)	#SHT_PROGBITS,SHF_ALLOC|SHF_MERGE|SHF_STRINGS,1
	0x4303a230		.L.str.26
.rodata.str1.1	0x4303a245	0xe	D:\Smart-heart-rate-dector\Smart-heart-rate-dector\gagent\libgagent.a(gagent.o)	#SHT_PROGBITS,SHF_ALLOC|SHF_MERGE|SHF_STRINGS,1
	0x4303a245		.L__FUNCTION__.gatTaskHandle
.rodata.str1.1	0x4303a253	0x10	D:\Smart-heart-rate-dector\Smart-heart-rate-dector\gagent\libgagent.a(gagent.o)	#SHT_PROGBITS,SHF_ALLOC|SHF_MERGE|SHF_STRINGS,1
	0x4303a253		.L.str.27
.rodata.str1.1	0x4303a263	0x18	D:\Smart-heart-rate-dector\Smart-heart-rate-dector\gagent\libgagent.a(gagent.o)	#SHT_PROGBITS,SHF_ALLOC|SHF_MERGE|SHF_STRINGS,1
	0x4303a263		.L.str.28
.rodata.str1.1	0x4303a27b	0x1a	D:\Smart-heart-rate-dector\Smart-heart-rate-dector\gagent\libgagent.a(gagent.o)	#SHT_PROGBITS,SHF_ALLOC|SHF_MERGE|SHF_STRINGS,1
	0x4303a27b		.L.str.29
.rodata.str1.1	0x4303a295	0x1e	D:\Smart-heart-rate-dector\Smart-heart-rate-dector\gagent\libgagent.a(gagent.o)	#SHT_PROGBITS,SHF_ALLOC|SHF_MERGE|SHF_STRINGS,1
	0x4303a295		.L.str.30
.rodata.str1.1	0x4303a2b3	0x1c	D:\Smart-heart-rate-dector\Smart-heart-rate-dector\gagent\libgagent.a(gagent.o)	#SHT_PROGBITS,SHF_ALLOC|SHF_MERGE|SHF_STRINGS,1
	0x4303a2b3		.L.str.31
.rodata.str1.1	0x4303a2cf	0x17	D:\Smart-heart-rate-dector\Smart-heart-rate-dector\gagent\libgagent.a(gagent.o)	#SHT_PROGBITS,SHF_ALLOC|SHF_MERGE|SHF_STRINGS,1
	0x4303a2cf		.L.str.32
.rodata.str1.1	0x4303a2e6	0x1f	D:\Smart-heart-rate-dector\Smart-heart-rate-dector\gagent\libgagent.a(gagent.o)	#SHT_PROGBITS,SHF_ALLOC|SHF_MERGE|SHF_STRINGS,1
	0x4303a2e6		.L.str.33
.rodata.str1.1	0x4303a305	0x1a	D:\Smart-heart-rate-dector\Smart-heart-rate-dector\gagent\libgagent.a(gagent.o)	#SHT_PROGBITS,SHF_ALLOC|SHF_MERGE|SHF_STRINGS,1
	0x4303a305		.L.str.34
.rodata.str1.1	0x4303a31f	0x27	D:\Smart-heart-rate-dector\Smart-heart-rate-dector\gagent\libgagent.a(gagent.o)	#SHT_PROGBITS,SHF_ALLOC|SHF_MERGE|SHF_STRINGS,1
	0x4303a31f		.L.str.35
.rodata.str1.1	0x4303a346	0x12	D:\Smart-heart-rate-dector\Smart-heart-rate-dector\gagent\libgagent.a(gagent.o)	#SHT_PROGBITS,SHF_ALLOC|SHF_MERGE|SHF_STRINGS,1
	0x4303a346		.L.str.36
.rodata.str1.1	0x4303a358	0x26	D:\Smart-heart-rate-dector\Smart-heart-rate-dector\gagent\libgagent.a(gagent.o)	#SHT_PROGBITS,SHF_ALLOC|SHF_MERGE|SHF_STRINGS,1
	0x4303a358		.L.str.37
.rodata.str1.1	0x4303a37e	0xd	D:\Smart-heart-rate-dector\Smart-heart-rate-dector\gagent\libgagent.a(gagent.o)	#SHT_PROGBITS,SHF_ALLOC|SHF_MERGE|SHF_STRINGS,1
	0x4303a37e		.L__FUNCTION__.gatStatusSet
.rodata.str1.1	0x4303a38b	0x1e	D:\Smart-heart-rate-dector\Smart-heart-rate-dector\gagent\libgagent.a(gagent.o)	#SHT_PROGBITS,SHF_ALLOC|SHF_MERGE|SHF_STRINGS,1
	0x4303a38b		.L.str.38
.rodata.str1.1	0x4303a3a9	0x13	D:\Smart-heart-rate-dector\Smart-heart-rate-dector\gagent\libgagent.a(gagent.o)	#SHT_PROGBITS,SHF_ALLOC|SHF_MERGE|SHF_STRINGS,1
	0x4303a3a9		.L__FUNCTION__.gatCleanConfigData
.rodata.str1.1	0x4303a3bc	0x3d	D:\Smart-heart-rate-dector\Smart-heart-rate-dector\gagent\libgagent.a(gagent.o)	#SHT_PROGBITS,SHF_ALLOC|SHF_MERGE|SHF_STRINGS,1
	0x4303a3bc		.L.str.40
.rodata.str1.1	0x4303a3f9	0x6d	D:\Smart-heart-rate-dector\Smart-heart-rate-dector\gagent\libgagent.a(gagent.o)	#SHT_PROGBITS,SHF_ALLOC|SHF_MERGE|SHF_STRINGS,1
	0x4303a3f9		.L.str.41
.rodata.str1.1	0x4303a466	0x80	D:\Smart-heart-rate-dector\Smart-heart-rate-dector\gagent\libgagent.a(gagent.o)	#SHT_PROGBITS,SHF_ALLOC|SHF_MERGE|SHF_STRINGS,1
	0x4303a466		.L.str.42
.rodata.str1.1	0x4303a4e6	0x32	D:\Smart-heart-rate-dector\Smart-heart-rate-dector\gagent\libgagent.a(gagent.o)	#SHT_PROGBITS,SHF_ALLOC|SHF_MERGE|SHF_STRINGS,1
	0x4303a4e6		.L.str.43
.rodata.str1.1	0x4303a518	0x32	D:\Smart-heart-rate-dector\Smart-heart-rate-dector\gagent\libgagent.a(gagent.o)	#SHT_PROGBITS,SHF_ALLOC|SHF_MERGE|SHF_STRINGS,1
	0x4303a518		.L.str.44
.rodata.str1.1	0x4303a54a	0x35	D:\Smart-heart-rate-dector\Smart-heart-rate-dector\gagent\libgagent.a(gagent.o)	#SHT_PROGBITS,SHF_ALLOC|SHF_MERGE|SHF_STRINGS,1
	0x4303a54a		.L.str.45
.rodata.str1.1	0x4303a57f	0xc	D:\Smart-heart-rate-dector\Smart-heart-rate-dector\gagent\libgagent.a(gagent.o)	#SHT_PROGBITS,SHF_ALLOC|SHF_MERGE|SHF_STRINGS,1
	0x4303a57f		.L__FUNCTION__.gatDataSend
.rodata.str1.1	0x4303a58b	0x29	D:\Smart-heart-rate-dector\Smart-heart-rate-dector\gagent\libgagent.a(gagent.o)	#SHT_PROGBITS,SHF_ALLOC|SHF_MERGE|SHF_STRINGS,1
	0x4303a58b		.L.str.46
.rodata.str1.1	0x4303a5b4	0x4	D:\Smart-heart-rate-dector\Smart-heart-rate-dector\gagent\libgagent.a(gagent.o)	#SHT_PROGBITS,SHF_ALLOC|SHF_MERGE|SHF_STRINGS,1
	0x4303a5b4		.L.str.47
.rodata.str1.1	0x4303a5b8	0x1f	D:\Smart-heart-rate-dector\Smart-heart-rate-dector\gagent\libgagent.a(gagent.o)	#SHT_PROGBITS,SHF_ALLOC|SHF_MERGE|SHF_STRINGS,1
	0x4303a5b8		.L.str.48
.rodata.str1.1	0x4303a5d7	0x2b	D:\Smart-heart-rate-dector\Smart-heart-rate-dector\gagent\libgagent.a(gagent.o)	#SHT_PROGBITS,SHF_ALLOC|SHF_MERGE|SHF_STRINGS,1
	0x4303a5d7		.L.str.49
.rodata.str1.1	0x4303a602	0xe	D:\Smart-heart-rate-dector\Smart-heart-rate-dector\gagent\libgagent.a(gagent.o)	#SHT_PROGBITS,SHF_ALLOC|SHF_MERGE|SHF_STRINGS,1
	0x4303a602		.L.str.50
.rodata.str1.1	0x4303a610	0x1f	D:\Smart-heart-rate-dector\Smart-heart-rate-dector\gagent\libgagent.a(gagent.o)	#SHT_PROGBITS,SHF_ALLOC|SHF_MERGE|SHF_STRINGS,1
	0x4303a610		.L.str.51
.rodata.str1.1	0x4303a62f	0x2b	D:\Smart-heart-rate-dector\Smart-heart-rate-dector\gagent\libgagent.a(gagent.o)	#SHT_PROGBITS,SHF_ALLOC|SHF_MERGE|SHF_STRINGS,1
	0x4303a62f		.L.str.52
.rodata.str1.1	0x4303a65a	0x33	D:\Smart-heart-rate-dector\Smart-heart-rate-dector\gagent\libgagent.a(gagent.o)	#SHT_PROGBITS,SHF_ALLOC|SHF_MERGE|SHF_STRINGS,1
	0x4303a65a		.L.str.54
.rodata.str1.1	0x4303a68d	0x37	D:\Smart-heart-rate-dector\Smart-heart-rate-dector\gagent\libgagent.a(gagent.o)	#SHT_PROGBITS,SHF_ALLOC|SHF_MERGE|SHF_STRINGS,1
	0x4303a68d		.L.str.55
.rodata.str1.1	0x4303a6c4	0x33	D:\Smart-heart-rate-dector\Smart-heart-rate-dector\gagent\libgagent.a(gagent.o)	#SHT_PROGBITS,SHF_ALLOC|SHF_MERGE|SHF_STRINGS,1
	0x4303a6c4		.L.str.56
.rodata.str1.1	0x4303a6f7	0x37	D:\Smart-heart-rate-dector\Smart-heart-rate-dector\gagent\libgagent.a(gagent.o)	#SHT_PROGBITS,SHF_ALLOC|SHF_MERGE|SHF_STRINGS,1
	0x4303a6f7		.L.str.57
.rodata.str1.1	0x4303a72e	0x37	D:\Smart-heart-rate-dector\Smart-heart-rate-dector\gagent\libgagent.a(gagent.o)	#SHT_PROGBITS,SHF_ALLOC|SHF_MERGE|SHF_STRINGS,1
	0x4303a72e		.L.str.58
.rodata.str1.1	0x4303a765	0x3b	D:\Smart-heart-rate-dector\Smart-heart-rate-dector\gagent\libgagent.a(gagent.o)	#SHT_PROGBITS,SHF_ALLOC|SHF_MERGE|SHF_STRINGS,1
	0x4303a765		.L.str.59
.rodata.str1.1	0x4303a7a0	0x1d	D:\Smart-heart-rate-dector\Smart-heart-rate-dector\gagent\libgagent.a(gagent.o)	#SHT_PROGBITS,SHF_ALLOC|SHF_MERGE|SHF_STRINGS,1
	0x4303a7a0		.L.str.60
.rodata.str1.1	0x4303a7bd	0x22	D:\Smart-heart-rate-dector\Smart-heart-rate-dector\gagent\libgagent.a(gagent.o)	#SHT_PROGBITS,SHF_ALLOC|SHF_MERGE|SHF_STRINGS,1
	0x4303a7bd		.L.str.61
.rodata.str1.1	0x4303a7df	0x17	D:\Smart-heart-rate-dector\Smart-heart-rate-dector\gagent\libgagent.a(gagent.o)	#SHT_PROGBITS,SHF_ALLOC|SHF_MERGE|SHF_STRINGS,1
	0x4303a7df		.L.str.62
.rodata.str1.1	0x4303a7f6	0x13	D:\Smart-heart-rate-dector\Smart-heart-rate-dector\gagent\libgagent.a(gagent.o)	#SHT_PROGBITS,SHF_ALLOC|SHF_MERGE|SHF_STRINGS,1
	0x4303a7f6		.L__FUNCTION__.gatRunTimeDataInit
.rodata.str1.1	0x4303a809	0x4b	D:\Smart-heart-rate-dector\Smart-heart-rate-dector\gagent\libgagent.a(gagent.o)	#SHT_PROGBITS,SHF_ALLOC|SHF_MERGE|SHF_STRINGS,1
	0x4303a809		.L.str.63
.rodata.str1.1	0x4303a854	0x9	D:\Smart-heart-rate-dector\Smart-heart-rate-dector\gagent\libgagent.a(gagent.o)	#SHT_PROGBITS,SHF_ALLOC|SHF_MERGE|SHF_STRINGS,1
	0x4303a854		.L.str.65
.rodata.str1.1	0x4303a85d	0xe	D:\Smart-heart-rate-dector\Smart-heart-rate-dector\gagent\libgagent.a(gagent.o)	#SHT_PROGBITS,SHF_ALLOC|SHF_MERGE|SHF_STRINGS,1
	0x4303a85d		.L.str.66
.rodata.str1.1	0x4303a86b	0x1f	D:\Smart-heart-rate-dector\Smart-heart-rate-dector\gagent\libgagent.a(gagent.o)	#SHT_PROGBITS,SHF_ALLOC|SHF_MERGE|SHF_STRINGS,1
	0x4303a86b		.L.str.67
.rodata.str1.1	0x4303a88a	0x8	D:\Smart-heart-rate-dector\Smart-heart-rate-dector\gagent\libgagent.a(gagent.o)	#SHT_PROGBITS,SHF_ALLOC|SHF_MERGE|SHF_STRINGS,1
	0x4303a88a		.L__FUNCTION__.gatInit
.rodata.str1.1	0x4303a892	0x63	D:\Smart-heart-rate-dector\Smart-heart-rate-dector\gagent\libgagent.a(gagent.o)	#SHT_PROGBITS,SHF_ALLOC|SHF_MERGE|SHF_STRINGS,1
	0x4303a892		.L.str.68
.rodata.str1.1	0x4303a8f5	0x26	D:\Smart-heart-rate-dector\Smart-heart-rate-dector\gagent\libgagent.a(gagent.o)	#SHT_PROGBITS,SHF_ALLOC|SHF_MERGE|SHF_STRINGS,1
	0x4303a8f5		.L.str.69
.rodata.str1.1	0x4303a91b	0x27	D:\Smart-heart-rate-dector\Smart-heart-rate-dector\gagent\libgagent.a(gagent.o)	#SHT_PROGBITS,SHF_ALLOC|SHF_MERGE|SHF_STRINGS,1
	0x4303a91b		.L.str.70
.rodata.str1.1	0x4303a942	0x27	D:\Smart-heart-rate-dector\Smart-heart-rate-dector\gagent\libgagent.a(gagent.o)	#SHT_PROGBITS,SHF_ALLOC|SHF_MERGE|SHF_STRINGS,1
	0x4303a942		.L.str.71
.rodata.str1.1	0x4303a969	0x27	D:\Smart-heart-rate-dector\Smart-heart-rate-dector\gagent\libgagent.a(gagent.o)	#SHT_PROGBITS,SHF_ALLOC|SHF_MERGE|SHF_STRINGS,1
	0x4303a969		.L.str.72
.rodata.str1.1	0x4303a990	0x26	D:\Smart-heart-rate-dector\Smart-heart-rate-dector\gagent\libgagent.a(gagent.o)	#SHT_PROGBITS,SHF_ALLOC|SHF_MERGE|SHF_STRINGS,1
	0x4303a990		.L.str.73
.rodata.str1.1	0x4303a9b6	0x2a	D:\Smart-heart-rate-dector\Smart-heart-rate-dector\gagent\libgagent.a(gagent.o)	#SHT_PROGBITS,SHF_ALLOC|SHF_MERGE|SHF_STRINGS,1
	0x4303a9b6		.L.str.74
.rodata.str1.1	0x4303a9e0	0x2a	D:\Smart-heart-rate-dector\Smart-heart-rate-dector\gagent\libgagent.a(gagent.o)	#SHT_PROGBITS,SHF_ALLOC|SHF_MERGE|SHF_STRINGS,1
	0x4303a9e0		.L.str.75
.rodata.str1.1	0x4303aa0a	0x2b	D:\Smart-heart-rate-dector\Smart-heart-rate-dector\gagent\libgagent.a(gagent.o)	#SHT_PROGBITS,SHF_ALLOC|SHF_MERGE|SHF_STRINGS,1
	0x4303aa0a		.L.str.76
.rodata.str1.1	0x4303aa35	0x2d	D:\Smart-heart-rate-dector\Smart-heart-rate-dector\gagent\libgagent.a(gagent.o)	#SHT_PROGBITS,SHF_ALLOC|SHF_MERGE|SHF_STRINGS,1
	0x4303aa35		.L.str.77
.rodata.str1.1	0x4303aa62	0x2b	D:\Smart-heart-rate-dector\Smart-heart-rate-dector\gagent\libgagent.a(gagent.o)	#SHT_PROGBITS,SHF_ALLOC|SHF_MERGE|SHF_STRINGS,1
	0x4303aa62		.L.str.78
.rodata.str1.1	0x4303aa8d	0x2b	D:\Smart-heart-rate-dector\Smart-heart-rate-dector\gagent\libgagent.a(gagent.o)	#SHT_PROGBITS,SHF_ALLOC|SHF_MERGE|SHF_STRINGS,1
	0x4303aa8d		.L.str.79
.rodata.str1.1	0x4303aab8	0x2d	D:\Smart-heart-rate-dector\Smart-heart-rate-dector\gagent\libgagent.a(gagent.o)	#SHT_PROGBITS,SHF_ALLOC|SHF_MERGE|SHF_STRINGS,1
	0x4303aab8		.L.str.80
.rodata.str1.1	0x4303aae5	0x2e	D:\Smart-heart-rate-dector\Smart-heart-rate-dector\gagent\libgagent.a(gagent.o)	#SHT_PROGBITS,SHF_ALLOC|SHF_MERGE|SHF_STRINGS,1
	0x4303aae5		.L.str.81
.rodata.str1.1	0x4303ab13	0x2d	D:\Smart-heart-rate-dector\Smart-heart-rate-dector\gagent\libgagent.a(gagent.o)	#SHT_PROGBITS,SHF_ALLOC|SHF_MERGE|SHF_STRINGS,1
	0x4303ab13		.L.str.82
.rodata.str1.1	0x4303ab40	0x34	D:\Smart-heart-rate-dector\Smart-heart-rate-dector\gagent\libgagent.a(gagent.o)	#SHT_PROGBITS,SHF_ALLOC|SHF_MERGE|SHF_STRINGS,1
	0x4303ab40		.L.str.83
.rodata.str1.1	0x4303ab74	0x31	D:\Smart-heart-rate-dector\Smart-heart-rate-dector\gagent\libgagent.a(gagent.o)	#SHT_PROGBITS,SHF_ALLOC|SHF_MERGE|SHF_STRINGS,1
	0x4303ab74		.L.str.84
.rodata.str1.1	0x4303aba5	0x39	D:\Smart-heart-rate-dector\Smart-heart-rate-dector\gagent\libgagent.a(gagent.o)	#SHT_PROGBITS,SHF_ALLOC|SHF_MERGE|SHF_STRINGS,1
	0x4303aba5		.L.str.85
.rodata.str1.1	0x4303abde	0x28	D:\Smart-heart-rate-dector\Smart-heart-rate-dector\gagent\libgagent.a(gagent.o)	#SHT_PROGBITS,SHF_ALLOC|SHF_MERGE|SHF_STRINGS,1
	0x4303abde		.L.str.86
.rodata.str1.1	0x4303ac06	0x39	D:\Smart-heart-rate-dector\Smart-heart-rate-dector\gagent\libgagent.a(gagent.o)	#SHT_PROGBITS,SHF_ALLOC|SHF_MERGE|SHF_STRINGS,1
	0x4303ac06		.L.str.87
.rodata.str1.1	0x4303ac3f	0x97	D:\Smart-heart-rate-dector\Smart-heart-rate-dector\gagent\libgagent.a(gagent.o)	#SHT_PROGBITS,SHF_ALLOC|SHF_MERGE|SHF_STRINGS,1
	0x4303ac3f		.L.str.88
.rodata.str1.1	0x4303acd6	0x11	D:\Smart-heart-rate-dector\Smart-heart-rate-dector\gagent\libgagent.a(gagent.o)	#SHT_PROGBITS,SHF_ALLOC|SHF_MERGE|SHF_STRINGS,1
	0x4303acd6		.L.str.90
.rodata.str1.1	0x4303ace7	0x12	D:\Smart-heart-rate-dector\Smart-heart-rate-dector\gagent\libgagent.a(gagent.o)	#SHT_PROGBITS,SHF_ALLOC|SHF_MERGE|SHF_STRINGS,1
	0x4303ace7		.L__FUNCTION__.gagentRebootTimer
.rodata.str1.1	0x4303acf9	0x10	D:\Smart-heart-rate-dector\Smart-heart-rate-dector\gagent\libgagent.a(gagent.o)	#SHT_PROGBITS,SHF_ALLOC|SHF_MERGE|SHF_STRINGS,1
	0x4303acf9		.L.str.91
.rodata.str1.1	0x4303ad09	0x13	D:\Smart-heart-rate-dector\Smart-heart-rate-dector\gagent\libgagent.a(gagent.o)	#SHT_PROGBITS,SHF_ALLOC|SHF_MERGE|SHF_STRINGS,1
	0x4303ad09		.L.str.92
.rodata.str1.1	0x4303ad1c	0x12	D:\Smart-heart-rate-dector\Smart-heart-rate-dector\gagent\libgagent.a(gagent.o)	#SHT_PROGBITS,SHF_ALLOC|SHF_MERGE|SHF_STRINGS,1
	0x4303ad1c		.L.str.93
.rodata.str1.1	0x4303ad2e	0x17	D:\Smart-heart-rate-dector\Smart-heart-rate-dector\gagent\libgagent.a(gagent.o)	#SHT_PROGBITS,SHF_ALLOC|SHF_MERGE|SHF_STRINGS,1
	0x4303ad2e		.L.str.94
.rodata.str1.1	0x4303ad45	0x18	D:\Smart-heart-rate-dector\Smart-heart-rate-dector\gagent\libgagent.a(gagent.o)	#SHT_PROGBITS,SHF_ALLOC|SHF_MERGE|SHF_STRINGS,1
	0x4303ad45		.L.str.95
.rodata.str1.1	0x4303ad5d	0x11	D:\Smart-heart-rate-dector\Smart-heart-rate-dector\gagent\libgagent.a(gagent.o)	#SHT_PROGBITS,SHF_ALLOC|SHF_MERGE|SHF_STRINGS,1
	0x4303ad5d		.L.str.96
.rodata.str1.1	0x4303ad6e	0x13	D:\Smart-heart-rate-dector\Smart-heart-rate-dector\gagent\libgagent.a(gagent.o)	#SHT_PROGBITS,SHF_ALLOC|SHF_MERGE|SHF_STRINGS,1
	0x4303ad6e		.L.str.97
.rodata.str1.1	0x4303ad81	0x1a	D:\Smart-heart-rate-dector\Smart-heart-rate-dector\gagent\libgagent.a(gagent.o)	#SHT_PROGBITS,SHF_ALLOC|SHF_MERGE|SHF_STRINGS,1
	0x4303ad81		.L.str.98
.rodata.str1.1	0x4303ad9b	0x1b	D:\Smart-heart-rate-dector\Smart-heart-rate-dector\gagent\libgagent.a(gagent.o)	#SHT_PROGBITS,SHF_ALLOC|SHF_MERGE|SHF_STRINGS,1
	0x4303ad9b		.L.str.99
.rodata.str1.1	0x4303adb6	0x1a	D:\Smart-heart-rate-dector\Smart-heart-rate-dector\gagent\libgagent.a(gagent.o)	#SHT_PROGBITS,SHF_ALLOC|SHF_MERGE|SHF_STRINGS,1
	0x4303adb6		.L.str.100
.rodata.str1.1	0x4303add0	0x15	D:\Smart-heart-rate-dector\Smart-heart-rate-dector\gagent\libgagent.a(gagent.o)	#SHT_PROGBITS,SHF_ALLOC|SHF_MERGE|SHF_STRINGS,1
	0x4303add0		.L.str.101
.rodata.str1.1	0x4303ade5	0x15	D:\Smart-heart-rate-dector\Smart-heart-rate-dector\gagent\libgagent.a(gagent.o)	#SHT_PROGBITS,SHF_ALLOC|SHF_MERGE|SHF_STRINGS,1
	0x4303ade5		.L.str.102
.rodata.str1.1	0x4303adfa	0x12	D:\Smart-heart-rate-dector\Smart-heart-rate-dector\gagent\libgagent.a(gagent.o)	#SHT_PROGBITS,SHF_ALLOC|SHF_MERGE|SHF_STRINGS,1
	0x4303adfa		.L.str.103
.rodata.str1.1	0x4303ae0c	0xe	D:\Smart-heart-rate-dector\Smart-heart-rate-dector\gagent\libgagent.a(gagent.o)	#SHT_PROGBITS,SHF_ALLOC|SHF_MERGE|SHF_STRINGS,1
	0x4303ae0c		.L.str.104
.rodata.str1.1	0x4303ae1a	0x2d	D:\Smart-heart-rate-dector\Smart-heart-rate-dector\gagent\libgagent.a(gagent.o)	#SHT_PROGBITS,SHF_ALLOC|SHF_MERGE|SHF_STRINGS,1
	0x4303ae1a		.L.str.105
.rodata.str1.1	0x4303ae47	0xd	D:\Smart-heart-rate-dector\Smart-heart-rate-dector\gagent\libgagent.a(gagent.o)	#SHT_PROGBITS,SHF_ALLOC|SHF_MERGE|SHF_STRINGS,1
	0x4303ae47		.L__FUNCTION__.gatDataRecCb
.rodata.str1.1	0x4303ae54	0x3a	D:\Smart-heart-rate-dector\Smart-heart-rate-dector\gagent\libgagent.a(gagent.o)	#SHT_PROGBITS,SHF_ALLOC|SHF_MERGE|SHF_STRINGS,1
	0x4303ae54		.L.str.106
.rodata.str1.1	0x4303ae8e	0x14	D:\Smart-heart-rate-dector\Smart-heart-rate-dector\gagent\libgagent.a(gagent.o)	#SHT_PROGBITS,SHF_ALLOC|SHF_MERGE|SHF_STRINGS,1
	0x4303ae8e		.L.str.107
.rodata.str1.1	0x4303aea2	0xe	D:\Smart-heart-rate-dector\Smart-heart-rate-dector\gagent\libgagent.a(gagent.o)	#SHT_PROGBITS,SHF_ALLOC|SHF_MERGE|SHF_STRINGS,1
	0x4303aea2		.L__FUNCTION__.gatDataSendCb
.rodata.str1.1	0x4303aeb0	0x18	D:\Smart-heart-rate-dector\Smart-heart-rate-dector\gagent\libgagent.a(gagent.o)	#SHT_PROGBITS,SHF_ALLOC|SHF_MERGE|SHF_STRINGS,1
	0x4303aeb0		.L.str.108
.rodata.str1.1	0x4303aec8	0x33	D:\Smart-heart-rate-dector\Smart-heart-rate-dector\gagent\libgagent.a(gagent.o)	#SHT_PROGBITS,SHF_ALLOC|SHF_MERGE|SHF_STRINGS,1
	0x4303aec8		.L.str.109
.rodata.str1.1	0x4303aefb	0x17	D:\Smart-heart-rate-dector\Smart-heart-rate-dector\gagent\libgagent.a(gagent.o)	#SHT_PROGBITS,SHF_ALLOC|SHF_MERGE|SHF_STRINGS,1
	0x4303aefb		.L.str.110
.rodata.str1.1	0x4303af12	0x4	D:\Smart-heart-rate-dector\Smart-heart-rate-dector\gagent\libgagent.a(gagent.o)	#SHT_PROGBITS,SHF_ALLOC|SHF_MERGE|SHF_STRINGS,1
	0x4303af12		.L.str.111
.rodata.str1.1	0x4303af16	0x4	D:\Smart-heart-rate-dector\Smart-heart-rate-dector\gagent\libgagent.a(gagent.o)	#SHT_PROGBITS,SHF_ALLOC|SHF_MERGE|SHF_STRINGS,1
	0x4303af16		.L.str.112
.rodata.str1.1	0x4303af1a	0x8	D:\Smart-heart-rate-dector\Smart-heart-rate-dector\gagent\libgagent.a(gagent.o)	#SHT_PROGBITS,SHF_ALLOC|SHF_MERGE|SHF_STRINGS,1
	0x4303af1a		.L.str.113
.rodata.str1.1	0x4303af22	0x2d	D:\Smart-heart-rate-dector\Smart-heart-rate-dector\gagent\libgagent.a(gagent.o)	#SHT_PROGBITS,SHF_ALLOC|SHF_MERGE|SHF_STRINGS,1
	0x4303af22		.L.str.114
.rodata.str1.1	0x4303af4f	0x15	D:\Smart-heart-rate-dector\Smart-heart-rate-dector\gagent\libgagent.a(gagent.o)	#SHT_PROGBITS,SHF_ALLOC|SHF_MERGE|SHF_STRINGS,1
	0x4303af4f		.L.str.117
.rodata	0x4303af64	0x58	D:\Smart-heart-rate-dector\Smart-heart-rate-dector\gagent\libgagent.a(gagent.o)	#SHT_PROGBITS,SHF_ALLOC,4
.rodata.str1.1	0x4303afbc	0x12	D:\Smart-heart-rate-dector\Smart-heart-rate-dector\gagent\libgagent.a(gatm2m.o)	#SHT_PROGBITS,SHF_ALLOC|SHF_MERGE|SHF_STRINGS,1
	0x4303afbc		.L.str.2
.rodata.str1.1	0x4303afce	0xb	D:\Smart-heart-rate-dector\Smart-heart-rate-dector\gagent\libgagent.a(gatm2m.o)	#SHT_PROGBITS,SHF_ALLOC|SHF_MERGE|SHF_STRINGS,1
	0x4303afce		.L__FUNCTION__.m2mInfoSet
.rodata.str1.1	0x4303afd9	0x11	D:\Smart-heart-rate-dector\Smart-heart-rate-dector\gagent\libgagent.a(gatm2m.o)	#SHT_PROGBITS,SHF_ALLOC|SHF_MERGE|SHF_STRINGS,1
	0x4303afd9		.L.str.3
.rodata.str1.1	0x4303afea	0x11	D:\Smart-heart-rate-dector\Smart-heart-rate-dector\gagent\libgagent.a(gatm2m.o)	#SHT_PROGBITS,SHF_ALLOC|SHF_MERGE|SHF_STRINGS,1
	0x4303afea		.L.str.4
.rodata.str1.1	0x4303affb	0x11	D:\Smart-heart-rate-dector\Smart-heart-rate-dector\gagent\libgagent.a(gatm2m.o)	#SHT_PROGBITS,SHF_ALLOC|SHF_MERGE|SHF_STRINGS,1
	0x4303affb		.L.str.5
.rodata.str1.1	0x4303b00c	0x1c	D:\Smart-heart-rate-dector\Smart-heart-rate-dector\gagent\libgagent.a(gatm2m.o)	#SHT_PROGBITS,SHF_ALLOC|SHF_MERGE|SHF_STRINGS,1
	0x4303b00c		.L.str.6
.rodata.str1.1	0x4303b028	0x17	D:\Smart-heart-rate-dector\Smart-heart-rate-dector\gagent\libgagent.a(gatm2m.o)	#SHT_PROGBITS,SHF_ALLOC|SHF_MERGE|SHF_STRINGS,1
	0x4303b028		.L.str.7
.rodata.str1.1	0x4303b03f	0x1d	D:\Smart-heart-rate-dector\Smart-heart-rate-dector\gagent\libgagent.a(gatm2m.o)	#SHT_PROGBITS,SHF_ALLOC|SHF_MERGE|SHF_STRINGS,1
	0x4303b03f		.L.str.8
.rodata.str1.1	0x4303b05c	0x1b	D:\Smart-heart-rate-dector\Smart-heart-rate-dector\gagent\libgagent.a(gatm2m.o)	#SHT_PROGBITS,SHF_ALLOC|SHF_MERGE|SHF_STRINGS,1
	0x4303b05c		.L.str.9
.rodata.str1.1	0x4303b077	0x1d	D:\Smart-heart-rate-dector\Smart-heart-rate-dector\gagent\libgagent.a(gatm2m.o)	#SHT_PROGBITS,SHF_ALLOC|SHF_MERGE|SHF_STRINGS,1
	0x4303b077		.L.str.10
.rodata.str1.1	0x4303b094	0x1e	D:\Smart-heart-rate-dector\Smart-heart-rate-dector\gagent\libgagent.a(gatm2m.o)	#SHT_PROGBITS,SHF_ALLOC|SHF_MERGE|SHF_STRINGS,1
	0x4303b094		.L.str.11
.rodata.str1.1	0x4303b0b2	0x19	D:\Smart-heart-rate-dector\Smart-heart-rate-dector\gagent\libgagent.a(gatm2m.o)	#SHT_PROGBITS,SHF_ALLOC|SHF_MERGE|SHF_STRINGS,1
	0x4303b0b2		.L.str.12
.rodata.str1.1	0x4303b0cb	0xc	D:\Smart-heart-rate-dector\Smart-heart-rate-dector\gagent\libgagent.a(gatm2m.o)	#SHT_PROGBITS,SHF_ALLOC|SHF_MERGE|SHF_STRINGS,1
	0x4303b0cb		.L__FUNCTION__.m2mSktRecCb
.rodata.str1.1	0x4303b0d7	0x23	D:\Smart-heart-rate-dector\Smart-heart-rate-dector\gagent\libgagent.a(gatm2m.o)	#SHT_PROGBITS,SHF_ALLOC|SHF_MERGE|SHF_STRINGS,1
	0x4303b0d7		.L.str.13
.rodata.str1.1	0x4303b0fa	0xd	D:\Smart-heart-rate-dector\Smart-heart-rate-dector\gagent\libgagent.a(gatm2m.o)	#SHT_PROGBITS,SHF_ALLOC|SHF_MERGE|SHF_STRINGS,1
	0x4303b0fa		.L.str.14
.rodata.str1.1	0x4303b107	0xd	D:\Smart-heart-rate-dector\Smart-heart-rate-dector\gagent\libgagent.a(gatm2m.o)	#SHT_PROGBITS,SHF_ALLOC|SHF_MERGE|SHF_STRINGS,1
	0x4303b107		.L__FUNCTION__.m2mSktConnCb
.rodata.str1.1	0x4303b114	0x2d	D:\Smart-heart-rate-dector\Smart-heart-rate-dector\gagent\libgagent.a(gatm2m.o)	#SHT_PROGBITS,SHF_ALLOC|SHF_MERGE|SHF_STRINGS,1
	0x4303b114		.L.str.15
.rodata.str1.1	0x4303b141	0x29	D:\Smart-heart-rate-dector\Smart-heart-rate-dector\gagent\libgagent.a(gatm2m.o)	#SHT_PROGBITS,SHF_ALLOC|SHF_MERGE|SHF_STRINGS,1
	0x4303b141		.L.str.16
.rodata.str1.1	0x4303b16a	0x38	D:\Smart-heart-rate-dector\Smart-heart-rate-dector\gagent\libgagent.a(gatm2m.o)	#SHT_PROGBITS,SHF_ALLOC|SHF_MERGE|SHF_STRINGS,1
	0x4303b16a		.L.str.17
.rodata.str1.1	0x4303b1a2	0x35	D:\Smart-heart-rate-dector\Smart-heart-rate-dector\gagent\libgagent.a(gatm2m.o)	#SHT_PROGBITS,SHF_ALLOC|SHF_MERGE|SHF_STRINGS,1
	0x4303b1a2		.L.str.18
.rodata.str1.1	0x4303b1d7	0xc	D:\Smart-heart-rate-dector\Smart-heart-rate-dector\gagent\libgagent.a(gatm2m.o)	#SHT_PROGBITS,SHF_ALLOC|SHF_MERGE|SHF_STRINGS,1
	0x4303b1d7		.L.str.19
.rodata.str1.1	0x4303b1e3	0x2d	D:\Smart-heart-rate-dector\Smart-heart-rate-dector\gagent\libgagent.a(gatm2m.o)	#SHT_PROGBITS,SHF_ALLOC|SHF_MERGE|SHF_STRINGS,1
	0x4303b1e3		.L.str.20
.rodata.str1.1	0x4303b210	0xe	D:\Smart-heart-rate-dector\Smart-heart-rate-dector\gagent\libgagent.a(gatm2m.o)	#SHT_PROGBITS,SHF_ALLOC|SHF_MERGE|SHF_STRINGS,1
	0x4303b210		.L.str.21
.rodata.str1.1	0x4303b21e	0x10	D:\Smart-heart-rate-dector\Smart-heart-rate-dector\gagent\libgagent.a(gatm2m.o)	#SHT_PROGBITS,SHF_ALLOC|SHF_MERGE|SHF_STRINGS,1
	0x4303b21e		.L__FUNCTION__.gatSetM2MDomain
.rodata.str1.1	0x4303b22e	0xf	D:\Smart-heart-rate-dector\Smart-heart-rate-dector\gagent\libgagent.a(gatm2m.o)	#SHT_PROGBITS,SHF_ALLOC|SHF_MERGE|SHF_STRINGS,1
	0x4303b22e		.L.str.22
.rodata.str1.1	0x4303b23d	0xe	D:\Smart-heart-rate-dector\Smart-heart-rate-dector\gagent\libgagent.a(gatm2m.o)	#SHT_PROGBITS,SHF_ALLOC|SHF_MERGE|SHF_STRINGS,1
	0x4303b23d		.L__FUNCTION__.gatSetM2MPort
.rodata.str1.1	0x4303b24b	0x12	D:\Smart-heart-rate-dector\Smart-heart-rate-dector\gagent\libgagent.a(gatm2m.o)	#SHT_PROGBITS,SHF_ALLOC|SHF_MERGE|SHF_STRINGS,1
	0x4303b24b		.L.str.23
.rodata.str1.1	0x4303b25d	0x1a	D:\Smart-heart-rate-dector\Smart-heart-rate-dector\gagent\libgagent.a(gatm2m.o)	#SHT_PROGBITS,SHF_ALLOC|SHF_MERGE|SHF_STRINGS,1
	0x4303b25d		.L.str.24
.rodata.str1.1	0x4303b277	0x15	D:\Smart-heart-rate-dector\Smart-heart-rate-dector\gagent\libgagent.a(gatm2m.o)	#SHT_PROGBITS,SHF_ALLOC|SHF_MERGE|SHF_STRINGS,1
	0x4303b277		.L.str.25
.rodata.str1.1	0x4303b28c	0xd	D:\Smart-heart-rate-dector\Smart-heart-rate-dector\gagent\libgagent.a(gatm2m.o)	#SHT_PROGBITS,SHF_ALLOC|SHF_MERGE|SHF_STRINGS,1
	0x4303b28c		.L__FUNCTION__.onM2MLoginCb
.rodata.str1.1	0x4303b299	0x38	D:\Smart-heart-rate-dector\Smart-heart-rate-dector\gagent\libgagent.a(gatm2m.o)	#SHT_PROGBITS,SHF_ALLOC|SHF_MERGE|SHF_STRINGS,1
	0x4303b299		.L.str.26
.rodata.str1.1	0x4303b2d1	0xf	D:\Smart-heart-rate-dector\Smart-heart-rate-dector\gagent\libgagent.a(gatm2m.o)	#SHT_PROGBITS,SHF_ALLOC|SHF_MERGE|SHF_STRINGS,1
	0x4303b2d1		.L.str.27
.rodata.str1.1	0x4303b2e0	0xd	D:\Smart-heart-rate-dector\Smart-heart-rate-dector\gagent\libgagent.a(gatm2m.o)	#SHT_PROGBITS,SHF_ALLOC|SHF_MERGE|SHF_STRINGS,1
	0x4303b2e0		.L.str.28
.rodata.str1.1	0x4303b2ed	0x1d	D:\Smart-heart-rate-dector\Smart-heart-rate-dector\gagent\libgagent.a(gatm2m.o)	#SHT_PROGBITS,SHF_ALLOC|SHF_MERGE|SHF_STRINGS,1
	0x4303b2ed		.L.str.29
.rodata.str1.1	0x4303b30a	0x20	D:\Smart-heart-rate-dector\Smart-heart-rate-dector\gagent\libgagent.a(gatm2m.o)	#SHT_PROGBITS,SHF_ALLOC|SHF_MERGE|SHF_STRINGS,1
	0x4303b30a		.L.str.30
.rodata.str1.1	0x4303b32a	0x20	D:\Smart-heart-rate-dector\Smart-heart-rate-dector\gagent\libgagent.a(gatm2m.o)	#SHT_PROGBITS,SHF_ALLOC|SHF_MERGE|SHF_STRINGS,1
	0x4303b32a		.L.str.31
.rodata.str1.1	0x4303b34a	0x10	D:\Smart-heart-rate-dector\Smart-heart-rate-dector\gagent\libgagent.a(gatm2m.o)	#SHT_PROGBITS,SHF_ALLOC|SHF_MERGE|SHF_STRINGS,1
	0x4303b34a		.L__FUNCTION__.onM2MSubTopicCb
.rodata.str1.1	0x4303b35a	0x16	D:\Smart-heart-rate-dector\Smart-heart-rate-dector\gagent\libgagent.a(gatm2m.o)	#SHT_PROGBITS,SHF_ALLOC|SHF_MERGE|SHF_STRINGS,1
	0x4303b35a		.L.str.32
.rodata.str1.1	0x4303b370	0xe	D:\Smart-heart-rate-dector\Smart-heart-rate-dector\gagent\libgagent.a(gatm2m.o)	#SHT_PROGBITS,SHF_ALLOC|SHF_MERGE|SHF_STRINGS,1
	0x4303b370		.L.str.33
.rodata.str1.1	0x4303b37e	0x1f	D:\Smart-heart-rate-dector\Smart-heart-rate-dector\gagent\libgagent.a(gatm2m.o)	#SHT_PROGBITS,SHF_ALLOC|SHF_MERGE|SHF_STRINGS,1
	0x4303b37e		.L.str.37
.rodata.str1.1	0x4303b39d	0x24	D:\Smart-heart-rate-dector\Smart-heart-rate-dector\gagent\libgagent.a(gatm2m.o)	#SHT_PROGBITS,SHF_ALLOC|SHF_MERGE|SHF_STRINGS,1
	0x4303b39d		.L.str.43
.rodata.str1.1	0x4303b3c1	0x13	D:\Smart-heart-rate-dector\Smart-heart-rate-dector\gagent\libgagent.a(gatm2m.o)	#SHT_PROGBITS,SHF_ALLOC|SHF_MERGE|SHF_STRINGS,1
	0x4303b3c1		.L__FUNCTION__.onM2MUserDataRecCb
.rodata.str1.1	0x4303b3d4	0x15	D:\Smart-heart-rate-dector\Smart-heart-rate-dector\gagent\libgagent.a(gatm2m.o)	#SHT_PROGBITS,SHF_ALLOC|SHF_MERGE|SHF_STRINGS,1
	0x4303b3d4		.L.str.44
.rodata.str1.1	0x4303b3e9	0xd	D:\Smart-heart-rate-dector\Smart-heart-rate-dector\gagent\libgagent.a(gatm2m.o)	#SHT_PROGBITS,SHF_ALLOC|SHF_MERGE|SHF_STRINGS,1
	0x4303b3e9		.L.str.45
.rodata.str1.1	0x4303b3f6	0x11	D:\Smart-heart-rate-dector\Smart-heart-rate-dector\gagent\libgagent.a(gatm2m.o)	#SHT_PROGBITS,SHF_ALLOC|SHF_MERGE|SHF_STRINGS,1
	0x4303b3f6		.L__FUNCTION__.onM2MHeartBeatCb
.rodata.str1.1	0x4303b407	0x1f	D:\Smart-heart-rate-dector\Smart-heart-rate-dector\gagent\libgagent.a(gatm2m.o)	#SHT_PROGBITS,SHF_ALLOC|SHF_MERGE|SHF_STRINGS,1
	0x4303b407		.L.str.46
.rodata.str1.1	0x4303b426	0x11	D:\Smart-heart-rate-dector\Smart-heart-rate-dector\gagent\libgagent.a(gatm2m.o)	#SHT_PROGBITS,SHF_ALLOC|SHF_MERGE|SHF_STRINGS,1
	0x4303b426		.L__FUNCTION__.onAppOnLineNumCb
.rodata.str1.1	0x4303b437	0x28	D:\Smart-heart-rate-dector\Smart-heart-rate-dector\gagent\libgagent.a(gatm2m.o)	#SHT_PROGBITS,SHF_ALLOC|SHF_MERGE|SHF_STRINGS,1
	0x4303b437		.L.str.47
.rodata.str1.1	0x4303b45f	0x20	D:\Smart-heart-rate-dector\Smart-heart-rate-dector\gagent\libgagent.a(gatm2m.o)	#SHT_PROGBITS,SHF_ALLOC|SHF_MERGE|SHF_STRINGS,1
	0x4303b45f		.L.str.48
.rodata.str1.1	0x4303b47f	0x1e	D:\Smart-heart-rate-dector\Smart-heart-rate-dector\gagent\libgagent.a(gatm2m.o)	#SHT_PROGBITS,SHF_ALLOC|SHF_MERGE|SHF_STRINGS,1
	0x4303b47f		.L.str.49
.rodata.str1.1	0x4303b49d	0x17	D:\Smart-heart-rate-dector\Smart-heart-rate-dector\gagent\libgagent.a(gatm2m.o)	#SHT_PROGBITS,SHF_ALLOC|SHF_MERGE|SHF_STRINGS,1
	0x4303b49d		.L.str.50
.rodata.str1.1	0x4303b4b4	0x11	D:\Smart-heart-rate-dector\Smart-heart-rate-dector\gagent\libgagent.a(gatm2m.o)	#SHT_PROGBITS,SHF_ALLOC|SHF_MERGE|SHF_STRINGS,1
	0x4303b4b4		.L.str.51
.rodata.str1.1	0x4303b4c5	0x14	D:\Smart-heart-rate-dector\Smart-heart-rate-dector\gagent\libgagent.a(gatm2m.o)	#SHT_PROGBITS,SHF_ALLOC|SHF_MERGE|SHF_STRINGS,1
	0x4303b4c5		.L__FUNCTION__.onOTA41EventNoticCb
.rodata.str1.1	0x4303b4d9	0x1e	D:\Smart-heart-rate-dector\Smart-heart-rate-dector\gagent\libgagent.a(gatm2m.o)	#SHT_PROGBITS,SHF_ALLOC|SHF_MERGE|SHF_STRINGS,1
	0x4303b4d9		.L.str.52
.rodata.str1.1	0x4303b4f7	0x30	D:\Smart-heart-rate-dector\Smart-heart-rate-dector\gagent\libgagent.a(gatm2m.o)	#SHT_PROGBITS,SHF_ALLOC|SHF_MERGE|SHF_STRINGS,1
	0x4303b4f7		.L.str.53
.rodata.str1.1	0x4303b527	0x1b	D:\Smart-heart-rate-dector\Smart-heart-rate-dector\gagent\libgagent.a(gatm2m.o)	#SHT_PROGBITS,SHF_ALLOC|SHF_MERGE|SHF_STRINGS,1
	0x4303b527		.L.str.54
.rodata.str1.1	0x4303b542	0x1f	D:\Smart-heart-rate-dector\Smart-heart-rate-dector\gagent\libgagent.a(gatm2m.o)	#SHT_PROGBITS,SHF_ALLOC|SHF_MERGE|SHF_STRINGS,1
	0x4303b542		.L.str.55
.rodata.str1.1	0x4303b561	0x20	D:\Smart-heart-rate-dector\Smart-heart-rate-dector\gagent\libgagent.a(gatm2m.o)	#SHT_PROGBITS,SHF_ALLOC|SHF_MERGE|SHF_STRINGS,1
	0x4303b561		.L.str.56
.rodata.str1.1	0x4303b581	0x38	D:\Smart-heart-rate-dector\Smart-heart-rate-dector\gagent\libgagent.a(gatm2m.o)	#SHT_PROGBITS,SHF_ALLOC|SHF_MERGE|SHF_STRINGS,1
	0x4303b581		.L.str.57
.rodata.str1.1	0x4303b5b9	0x7	D:\Smart-heart-rate-dector\Smart-heart-rate-dector\gagent\libgagent.a(gatm2m.o)	#SHT_PROGBITS,SHF_ALLOC|SHF_MERGE|SHF_STRINGS,1
	0x4303b5b9		.L.str.58
.rodata.str1.1	0x4303b5c0	0x8	D:\Smart-heart-rate-dector\Smart-heart-rate-dector\gagent\libgagent.a(gatm2m.o)	#SHT_PROGBITS,SHF_ALLOC|SHF_MERGE|SHF_STRINGS,1
	0x4303b5c0		.L.str.59
.rodata.str1.1	0x4303b5c8	0x6	D:\Smart-heart-rate-dector\Smart-heart-rate-dector\gagent\libgagent.a(gatm2m.o)	#SHT_PROGBITS,SHF_ALLOC|SHF_MERGE|SHF_STRINGS,1
	0x4303b5c8		.L.str.60
.rodata.str1.1	0x4303b5ce	0x6	D:\Smart-heart-rate-dector\Smart-heart-rate-dector\gagent\libgagent.a(gatm2m.o)	#SHT_PROGBITS,SHF_ALLOC|SHF_MERGE|SHF_STRINGS,1
	0x4303b5ce		.L.str.61
.rodata.str1.1	0x4303b5d4	0x1f	D:\Smart-heart-rate-dector\Smart-heart-rate-dector\gagent\libgagent.a(gatm2m.o)	#SHT_PROGBITS,SHF_ALLOC|SHF_MERGE|SHF_STRINGS,1
	0x4303b5d4		.L.str.62
.rodata.str1.1	0x4303b5f3	0x2f	D:\Smart-heart-rate-dector\Smart-heart-rate-dector\gagent\libgagent.a(gatm2m.o)	#SHT_PROGBITS,SHF_ALLOC|SHF_MERGE|SHF_STRINGS,1
	0x4303b5f3		.L.str.63
.rodata.str1.1	0x4303b622	0x13	D:\Smart-heart-rate-dector\Smart-heart-rate-dector\gagent\libgagent.a(gatm2m.o)	#SHT_PROGBITS,SHF_ALLOC|SHF_MERGE|SHF_STRINGS,1
	0x4303b622		.L__FUNCTION__.onOTA4EventNoticCb
.rodata.str1.1	0x4303b635	0x1a	D:\Smart-heart-rate-dector\Smart-heart-rate-dector\gagent\libgagent.a(gatm2m.o)	#SHT_PROGBITS,SHF_ALLOC|SHF_MERGE|SHF_STRINGS,1
	0x4303b635		.L.str.64
.rodata.str1.1	0x4303b64f	0x10	D:\Smart-heart-rate-dector\Smart-heart-rate-dector\gagent\libgagent.a(gatm2m.o)	#SHT_PROGBITS,SHF_ALLOC|SHF_MERGE|SHF_STRINGS,1
	0x4303b64f		.L__FUNCTION__.cloudSendDataCb
.rodata.str1.1	0x4303b65f	0x14	D:\Smart-heart-rate-dector\Smart-heart-rate-dector\gagent\libgagent.a(gatm2m.o)	#SHT_PROGBITS,SHF_ALLOC|SHF_MERGE|SHF_STRINGS,1
	0x4303b65f		.L.str.65
.rodata.str1.1	0x4303b673	0xd	D:\Smart-heart-rate-dector\Smart-heart-rate-dector\gagent\libgagent.a(gatm2m.o)	#SHT_PROGBITS,SHF_ALLOC|SHF_MERGE|SHF_STRINGS,1
	0x4303b673		.L__FUNCTION__.gatM2MReInit
.rodata.str1.1	0x4303b680	0x24	D:\Smart-heart-rate-dector\Smart-heart-rate-dector\gagent\libgagent.a(gatm2m.o)	#SHT_PROGBITS,SHF_ALLOC|SHF_MERGE|SHF_STRINGS,1
	0x4303b680		.L.str.66
.rodata.str1.1	0x4303b6a4	0x10	D:\Smart-heart-rate-dector\Smart-heart-rate-dector\gagent\libgagent.a(gatm2m.o)	#SHT_PROGBITS,SHF_ALLOC|SHF_MERGE|SHF_STRINGS,1
	0x4303b6a4		.L.str.67
.rodata.str1.1	0x4303b6b4	0xe	D:\Smart-heart-rate-dector\Smart-heart-rate-dector\gagent\libgagent.a(gatm2m.o)	#SHT_PROGBITS,SHF_ALLOC|SHF_MERGE|SHF_STRINGS,1
	0x4303b6b4		.L.str.68
.rodata.str1.1	0x4303b6c2	0x11	D:\Smart-heart-rate-dector\Smart-heart-rate-dector\gagent\libgagent.a(gatm2m.o)	#SHT_PROGBITS,SHF_ALLOC|SHF_MERGE|SHF_STRINGS,1
	0x4303b6c2		.L__FUNCTION__.gatM2MServerStop
.rodata.str1.1	0x4303b6d3	0x23	D:\Smart-heart-rate-dector\Smart-heart-rate-dector\gagent\libgagent.a(gatm2m.o)	#SHT_PROGBITS,SHF_ALLOC|SHF_MERGE|SHF_STRINGS,1
	0x4303b6d3		.L.str.69
.rodata.str1.1	0x4303b6f6	0x14	D:\Smart-heart-rate-dector\Smart-heart-rate-dector\gagent\libgagent.a(gatm2m.o)	#SHT_PROGBITS,SHF_ALLOC|SHF_MERGE|SHF_STRINGS,1
	0x4303b6f6		.L__FUNCTION__.gatM2MReStartServer
.rodata.str1.1	0x4303b70a	0x4d	D:\Smart-heart-rate-dector\Smart-heart-rate-dector\gagent\libgagent.a(gatm2m.o)	#SHT_PROGBITS,SHF_ALLOC|SHF_MERGE|SHF_STRINGS,1
	0x4303b70a		.L.str.70
.rodata.str1.1	0x4303b757	0x12	D:\Smart-heart-rate-dector\Smart-heart-rate-dector\gagent\libgagent.a(gatm2m.o)	#SHT_PROGBITS,SHF_ALLOC|SHF_MERGE|SHF_STRINGS,1
	0x4303b757		.L.str.71
.rodata.str1.1	0x4303b769	0xd	D:\Smart-heart-rate-dector\Smart-heart-rate-dector\gagent\libgagent.a(gatm2m.o)	#SHT_PROGBITS,SHF_ALLOC|SHF_MERGE|SHF_STRINGS,1
	0x4303b769		.L.str.72
.rodata.str1.1	0x4303b776	0x10	D:\Smart-heart-rate-dector\Smart-heart-rate-dector\gagent\libgagent.a(gatm2m.o)	#SHT_PROGBITS,SHF_ALLOC|SHF_MERGE|SHF_STRINGS,1
	0x4303b776		.L__FUNCTION__.gatResCloudCtrl
.rodata.str1.1	0x4303b786	0x12	D:\Smart-heart-rate-dector\Smart-heart-rate-dector\gagent\libgagent.a(gatm2m.o)	#SHT_PROGBITS,SHF_ALLOC|SHF_MERGE|SHF_STRINGS,1
	0x4303b786		.L.str.73
.rodata.str1.1	0x4303b798	0x10	D:\Smart-heart-rate-dector\Smart-heart-rate-dector\gagent\libgagent.a(gatm2m.o)	#SHT_PROGBITS,SHF_ALLOC|SHF_MERGE|SHF_STRINGS,1
	0x4303b798		.L.str.74
.rodata.str1.1	0x4303b7a8	0x12	D:\Smart-heart-rate-dector\Smart-heart-rate-dector\gagent\libgagent.a(gatm2m.o)	#SHT_PROGBITS,SHF_ALLOC|SHF_MERGE|SHF_STRINGS,1
	0x4303b7a8		.L.str.75
.rodata.str1.1	0x4303b7ba	0xf	D:\Smart-heart-rate-dector\Smart-heart-rate-dector\gagent\libgagent.a(gatm2m.o)	#SHT_PROGBITS,SHF_ALLOC|SHF_MERGE|SHF_STRINGS,1
	0x4303b7ba		.L.str.76
.rodata.str1.1	0x4303b7c9	0xf	D:\Smart-heart-rate-dector\Smart-heart-rate-dector\gagent\libgagent.a(gatm2m.o)	#SHT_PROGBITS,SHF_ALLOC|SHF_MERGE|SHF_STRINGS,1
	0x4303b7c9		.L.str.77
.rodata.str1.1	0x4303b7d8	0xe	D:\Smart-heart-rate-dector\Smart-heart-rate-dector\gagent\libgagent.a(gatm2m.o)	#SHT_PROGBITS,SHF_ALLOC|SHF_MERGE|SHF_STRINGS,1
	0x4303b7d8		.L__FUNCTION__.gatM2MCommand
.rodata.str1.1	0x4303b7e6	0x3b	D:\Smart-heart-rate-dector\Smart-heart-rate-dector\gagent\libgagent.a(gatm2m.o)	#SHT_PROGBITS,SHF_ALLOC|SHF_MERGE|SHF_STRINGS,1
	0x4303b7e6		.L.str.79
.rodata.str1.1	0x4303b821	0x38	D:\Smart-heart-rate-dector\Smart-heart-rate-dector\gagent\libgagent.a(gatm2m.o)	#SHT_PROGBITS,SHF_ALLOC|SHF_MERGE|SHF_STRINGS,1
	0x4303b821		.L.str.80
.rodata.str1.1	0x4303b859	0x3b	D:\Smart-heart-rate-dector\Smart-heart-rate-dector\gagent\libgagent.a(gatm2m.o)	#SHT_PROGBITS,SHF_ALLOC|SHF_MERGE|SHF_STRINGS,1
	0x4303b859		.L.str.81
.rodata.str1.1	0x4303b894	0x3e	D:\Smart-heart-rate-dector\Smart-heart-rate-dector\gagent\libgagent.a(gatm2m.o)	#SHT_PROGBITS,SHF_ALLOC|SHF_MERGE|SHF_STRINGS,1
	0x4303b894		.L.str.82
.rodata.str1.1	0x4303b8d2	0x2e	D:\Smart-heart-rate-dector\Smart-heart-rate-dector\gagent\libgagent.a(gatm2m.o)	#SHT_PROGBITS,SHF_ALLOC|SHF_MERGE|SHF_STRINGS,1
	0x4303b8d2		.L.str.83
.rodata.str1.1	0x4303b900	0x8	D:\Smart-heart-rate-dector\Smart-heart-rate-dector\gagent\libgagent.a(gatm2m.o)	#SHT_PROGBITS,SHF_ALLOC|SHF_MERGE|SHF_STRINGS,1
	0x4303b900		.L__FUNCTION__.m2mSend
.rodata.str1.1	0x4303b908	0x25	D:\Smart-heart-rate-dector\Smart-heart-rate-dector\gagent\libgagent.a(gatm2m.o)	#SHT_PROGBITS,SHF_ALLOC|SHF_MERGE|SHF_STRINGS,1
	0x4303b908		.L.str.84
.rodata.str1.1	0x4303b92d	0x16	D:\Smart-heart-rate-dector\Smart-heart-rate-dector\gagent\libgagent.a(gatm2m.o)	#SHT_PROGBITS,SHF_ALLOC|SHF_MERGE|SHF_STRINGS,1
	0x4303b92d		.L__FUNCTION__.gatM2MHandleGatStatus
.rodata.str1.1	0x4303b943	0x22	D:\Smart-heart-rate-dector\Smart-heart-rate-dector\gagent\libgagent.a(gatm2m.o)	#SHT_PROGBITS,SHF_ALLOC|SHF_MERGE|SHF_STRINGS,1
	0x4303b943		.L.str.85
.rodata.str1.1	0x4303b965	0x1e	D:\Smart-heart-rate-dector\Smart-heart-rate-dector\gagent\libgagent.a(gatm2m.o)	#SHT_PROGBITS,SHF_ALLOC|SHF_MERGE|SHF_STRINGS,1
	0x4303b965		.L.str.86
.rodata.str1.1	0x4303b983	0x21	D:\Smart-heart-rate-dector\Smart-heart-rate-dector\gagent\libgagent.a(gatm2m.o)	#SHT_PROGBITS,SHF_ALLOC|SHF_MERGE|SHF_STRINGS,1
	0x4303b983		.L.str.87
.rodata.str1.1	0x4303b9a4	0xc	D:\Smart-heart-rate-dector\Smart-heart-rate-dector\gagent\libgagent.a(gatm2m.o)	#SHT_PROGBITS,SHF_ALLOC|SHF_MERGE|SHF_STRINGS,1
	0x4303b9a4		.L__FUNCTION__.gatm2mDnsCb
.rodata.str1.1	0x4303b9b0	0x25	D:\Smart-heart-rate-dector\Smart-heart-rate-dector\gagent\libgagent.a(gatm2m.o)	#SHT_PROGBITS,SHF_ALLOC|SHF_MERGE|SHF_STRINGS,1
	0x4303b9b0		.L.str.88
.rodata.str1.1	0x4303b9d5	0x33	D:\Smart-heart-rate-dector\Smart-heart-rate-dector\gagent\libgagent.a(gatm2m.o)	#SHT_PROGBITS,SHF_ALLOC|SHF_MERGE|SHF_STRINGS,1
	0x4303b9d5		.L.str.89
.rodata.str1.1	0x4303ba08	0x38	D:\Smart-heart-rate-dector\Smart-heart-rate-dector\gagent\libgagent.a(gatnet.o)	#SHT_PROGBITS,SHF_ALLOC|SHF_MERGE|SHF_STRINGS,1
	0x4303ba08		.L.str.2
.rodata.str1.1	0x4303ba40	0x15	D:\Smart-heart-rate-dector\Smart-heart-rate-dector\gagent\libgagent.a(gatnet.o)	#SHT_PROGBITS,SHF_ALLOC|SHF_MERGE|SHF_STRINGS,1
	0x4303ba40		.L__FUNCTION__.gatRouterConnTimeout
.rodata.str1.1	0x4303ba55	0x17	D:\Smart-heart-rate-dector\Smart-heart-rate-dector\gagent\libgagent.a(gatnet.o)	#SHT_PROGBITS,SHF_ALLOC|SHF_MERGE|SHF_STRINGS,1
	0x4303ba55		.L.str.3
.rodata.str1.1	0x4303ba6c	0x2	D:\Smart-heart-rate-dector\Smart-heart-rate-dector\gagent\libgagent.a(gatnet.o)	#SHT_PROGBITS,SHF_ALLOC|SHF_MERGE|SHF_STRINGS,1
	0x4303ba6c		.L.str.4
.rodata.str1.1	0x4303ba6e	0x27	D:\Smart-heart-rate-dector\Smart-heart-rate-dector\gagent\libgagent.a(gatnet.o)	#SHT_PROGBITS,SHF_ALLOC|SHF_MERGE|SHF_STRINGS,1
	0x4303ba6e		.L.str.5
.rodata.str1.1	0x4303ba95	0x2	D:\Smart-heart-rate-dector\Smart-heart-rate-dector\gagent\libgagent.a(gatnet.o)	#SHT_PROGBITS,SHF_ALLOC|SHF_MERGE|SHF_STRINGS,1
	0x4303ba95		.L.str.6
.rodata.str1.1	0x4303ba97	0x29	D:\Smart-heart-rate-dector\Smart-heart-rate-dector\gagent\libgagent.a(gatnet.o)	#SHT_PROGBITS,SHF_ALLOC|SHF_MERGE|SHF_STRINGS,1
	0x4303ba97		.L.str.7
.rodata.str1.1	0x4303bac0	0x24	D:\Smart-heart-rate-dector\Smart-heart-rate-dector\gagent\libgagent.a(gatnet.o)	#SHT_PROGBITS,SHF_ALLOC|SHF_MERGE|SHF_STRINGS,1
	0x4303bac0		.L.str.8
.rodata.str1.1	0x4303bae4	0x2b	D:\Smart-heart-rate-dector\Smart-heart-rate-dector\gagent\libgagent.a(gatnet.o)	#SHT_PROGBITS,SHF_ALLOC|SHF_MERGE|SHF_STRINGS,1
	0x4303bae4		.L.str.9
.rodata.str1.1	0x4303bb0f	0x12	D:\Smart-heart-rate-dector\Smart-heart-rate-dector\gagent\libgagent.a(gatnet.o)	#SHT_PROGBITS,SHF_ALLOC|SHF_MERGE|SHF_STRINGS,1
	0x4303bb0f		.L__FUNCTION__.gatNetEventHandle
.rodata.str1.1	0x4303bb21	0xc	D:\Smart-heart-rate-dector\Smart-heart-rate-dector\gagent\libgagent.a(gatnet.o)	#SHT_PROGBITS,SHF_ALLOC|SHF_MERGE|SHF_STRINGS,1
	0x4303bb21		.L.str.10
.rodata.str1.1	0x4303bb2d	0x30	D:\Smart-heart-rate-dector\Smart-heart-rate-dector\gagent\libgagent.a(gatnet.o)	#SHT_PROGBITS,SHF_ALLOC|SHF_MERGE|SHF_STRINGS,1
	0x4303bb2d		.L.str.11
.rodata.str1.1	0x4303bb5d	0x31	D:\Smart-heart-rate-dector\Smart-heart-rate-dector\gagent\libgagent.a(gatnet.o)	#SHT_PROGBITS,SHF_ALLOC|SHF_MERGE|SHF_STRINGS,1
	0x4303bb5d		.L.str.12
.rodata.str1.1	0x4303bb8e	0x1e	D:\Smart-heart-rate-dector\Smart-heart-rate-dector\gagent\libgagent.a(gatnet.o)	#SHT_PROGBITS,SHF_ALLOC|SHF_MERGE|SHF_STRINGS,1
	0x4303bb8e		.L.str.13
.rodata.str1.1	0x4303bbac	0xb	D:\Smart-heart-rate-dector\Smart-heart-rate-dector\gagent\libgagent.a(gatnet.o)	#SHT_PROGBITS,SHF_ALLOC|SHF_MERGE|SHF_STRINGS,1
	0x4303bbac		.L__FUNCTION__.gatNetInit
.rodata.str1.1	0x4303bbb7	0x3c	D:\Smart-heart-rate-dector\Smart-heart-rate-dector\gagent\libgagent.a(gatnet.o)	#SHT_PROGBITS,SHF_ALLOC|SHF_MERGE|SHF_STRINGS,1
	0x4303bbb7		.L.str.15
.rodata.str1.1	0x4303bbf3	0x1b	D:\Smart-heart-rate-dector\Smart-heart-rate-dector\gagent\libgagent.a(gatnet.o)	#SHT_PROGBITS,SHF_ALLOC|SHF_MERGE|SHF_STRINGS,1
	0x4303bbf3		.L.str.16
.rodata.str1.1	0x4303bc0e	0x27	D:\Smart-heart-rate-dector\Smart-heart-rate-dector\gagent\libgagent.a(gatnet.o)	#SHT_PROGBITS,SHF_ALLOC|SHF_MERGE|SHF_STRINGS,1
	0x4303bc0e		.L.str.17
.rodata.str1.1	0x4303bc35	0xd	D:\Smart-heart-rate-dector\Smart-heart-rate-dector\gagent\libgagent.a(gatnet.o)	#SHT_PROGBITS,SHF_ALLOC|SHF_MERGE|SHF_STRINGS,1
	0x4303bc35		.L__FUNCTION__.gatAirlinkCb
.rodata.str1.1	0x4303bc42	0x1d	D:\Smart-heart-rate-dector\Smart-heart-rate-dector\gagent\libgagent.a(gatnet.o)	#SHT_PROGBITS,SHF_ALLOC|SHF_MERGE|SHF_STRINGS,1
	0x4303bc42		.L.str.19
.rodata.str1.1	0x4303bc5f	0xd	D:\Smart-heart-rate-dector\Smart-heart-rate-dector\gagent\libgagent.a(gatnet.o)	#SHT_PROGBITS,SHF_ALLOC|SHF_MERGE|SHF_STRINGS,1
	0x4303bc5f		.L__FUNCTION__.gatNetConfig
.rodata.str1.1	0x4303bc6c	0xe	D:\Smart-heart-rate-dector\Smart-heart-rate-dector\gagent\libgagent.a(gatnet.o)	#SHT_PROGBITS,SHF_ALLOC|SHF_MERGE|SHF_STRINGS,1
	0x4303bc6c		.L.str.20
.rodata.str1.1	0x4303bc7a	0xe	D:\Smart-heart-rate-dector\Smart-heart-rate-dector\gagent\libgagent.a(gatnet.o)	#SHT_PROGBITS,SHF_ALLOC|SHF_MERGE|SHF_STRINGS,1
	0x4303bc7a		.L.str.21
.rodata.str1.1	0x4303bc88	0x1e	D:\Smart-heart-rate-dector\Smart-heart-rate-dector\gagent\libgagent.a(gatnet.o)	#SHT_PROGBITS,SHF_ALLOC|SHF_MERGE|SHF_STRINGS,1
	0x4303bc88		.L.str.22
.rodata.str1.1	0x4303bca6	0x21	D:\Smart-heart-rate-dector\Smart-heart-rate-dector\gagent\libgagent.a(gatnet.o)	#SHT_PROGBITS,SHF_ALLOC|SHF_MERGE|SHF_STRINGS,1
	0x4303bca6		.L.str.23
.rodata.str1.1	0x4303bcc7	0x12	D:\Smart-heart-rate-dector\Smart-heart-rate-dector\gagent\libgagent.a(gatnet.o)	#SHT_PROGBITS,SHF_ALLOC|SHF_MERGE|SHF_STRINGS,1
	0x4303bcc7		.L__FUNCTION__.gatNetWriteConfig
.rodata.str1.1	0x4303bcd9	0x1b	D:\Smart-heart-rate-dector\Smart-heart-rate-dector\gagent\libgagent.a(gatnet.o)	#SHT_PROGBITS,SHF_ALLOC|SHF_MERGE|SHF_STRINGS,1
	0x4303bcd9		.L.str.24
.rodata.str1.1	0x4303bcf4	0x1e	D:\Smart-heart-rate-dector\Smart-heart-rate-dector\gagent\libgagent.a(gatnet.o)	#SHT_PROGBITS,SHF_ALLOC|SHF_MERGE|SHF_STRINGS,1
	0x4303bcf4		.L.str.25
.rodata.str1.1	0x4303bd12	0x29	D:\Smart-heart-rate-dector\Smart-heart-rate-dector\gagent\libgagent.a(gatnet.o)	#SHT_PROGBITS,SHF_ALLOC|SHF_MERGE|SHF_STRINGS,1
	0x4303bd12		.L.str.26
.rodata.str1.1	0x4303bd3b	0x26	D:\Smart-heart-rate-dector\Smart-heart-rate-dector\gagent\libgagent.a(gatnet.o)	#SHT_PROGBITS,SHF_ALLOC|SHF_MERGE|SHF_STRINGS,1
	0x4303bd3b		.L.str.27
.rodata.str1.1	0x4303bd61	0x2d	D:\Smart-heart-rate-dector\Smart-heart-rate-dector\gagent\libgagent.a(gatnet.o)	#SHT_PROGBITS,SHF_ALLOC|SHF_MERGE|SHF_STRINGS,1
	0x4303bd61		.L.str.28
.rodata.str1.1	0x4303bd8e	0x1e	D:\Smart-heart-rate-dector\Smart-heart-rate-dector\gagent\libgagent.a(gatnet.o)	#SHT_PROGBITS,SHF_ALLOC|SHF_MERGE|SHF_STRINGS,1
	0x4303bd8e		.L.str.29
.rodata.str1.1	0x4303bdac	0xd	D:\Smart-heart-rate-dector\Smart-heart-rate-dector\gagent\libgagent.a(gatnet.o)	#SHT_PROGBITS,SHF_ALLOC|SHF_MERGE|SHF_STRINGS,1
	0x4303bdac		.L.str.30
.rodata.str1.1	0x4303bdb9	0x22	D:\Smart-heart-rate-dector\Smart-heart-rate-dector\gagent\libgagent.a(gatnet.o)	#SHT_PROGBITS,SHF_ALLOC|SHF_MERGE|SHF_STRINGS,1
	0x4303bdb9		.L.str.31
.rodata.str1.1	0x4303bddb	0x20	D:\Smart-heart-rate-dector\Smart-heart-rate-dector\gagent\libgagent.a(gatnet.o)	#SHT_PROGBITS,SHF_ALLOC|SHF_MERGE|SHF_STRINGS,1
	0x4303bddb		.L.str.32
.rodata.str1.1	0x4303bdfb	0x35	D:\Smart-heart-rate-dector\Smart-heart-rate-dector\gagent\libgagent.a(gatnet.o)	#SHT_PROGBITS,SHF_ALLOC|SHF_MERGE|SHF_STRINGS,1
	0x4303bdfb		.L.str.33
.rodata.str1.1	0x4303be30	0x10	D:\Smart-heart-rate-dector\Smart-heart-rate-dector\gagent\libgagent.a(gatnet.o)	#SHT_PROGBITS,SHF_ALLOC|SHF_MERGE|SHF_STRINGS,1
	0x4303be30		.L__FUNCTION__.gatTestModeTick
.rodata.str1.1	0x4303be40	0xf	D:\Smart-heart-rate-dector\Smart-heart-rate-dector\gagent\libgagent.a(gatnet.o)	#SHT_PROGBITS,SHF_ALLOC|SHF_MERGE|SHF_STRINGS,1
	0x4303be40		.L.str.34
.rodata.str1.1	0x4303be4f	0x12	D:\Smart-heart-rate-dector\Smart-heart-rate-dector\gagent\libgagent.a(gatnet.o)	#SHT_PROGBITS,SHF_ALLOC|SHF_MERGE|SHF_STRINGS,1
	0x4303be4f		.L.str.35
.rodata.str1.1	0x4303be61	0x1d	D:\Smart-heart-rate-dector\Smart-heart-rate-dector\gagent\libgagent.a(gatnet.o)	#SHT_PROGBITS,SHF_ALLOC|SHF_MERGE|SHF_STRINGS,1
	0x4303be61		.L.str.36
.rodata.str1.1	0x4303be7e	0x13	D:\Smart-heart-rate-dector\Smart-heart-rate-dector\gagent\libgagent.a(gatnet.o)	#SHT_PROGBITS,SHF_ALLOC|SHF_MERGE|SHF_STRINGS,1
	0x4303be7e		.L__FUNCTION__.gatConfigDataParse
.rodata.str1.1	0x4303be91	0x1a	D:\Smart-heart-rate-dector\Smart-heart-rate-dector\gagent\libgagent.a(gatnet.o)	#SHT_PROGBITS,SHF_ALLOC|SHF_MERGE|SHF_STRINGS,1
	0x4303be91		.L.str.37
.rodata.str1.1	0x4303beab	0x12	D:\Smart-heart-rate-dector\Smart-heart-rate-dector\gagent\libgagent.a(gatnet.o)	#SHT_PROGBITS,SHF_ALLOC|SHF_MERGE|SHF_STRINGS,1
	0x4303beab		.L.str.42
.rodata.str1.1	0x4303bebd	0x12	D:\Smart-heart-rate-dector\Smart-heart-rate-dector\gagent\libgagent.a(gatnet.o)	#SHT_PROGBITS,SHF_ALLOC|SHF_MERGE|SHF_STRINGS,1
	0x4303bebd		.L.str.43
.rodata.str1.1	0x4303becf	0x1d	D:\Smart-heart-rate-dector\Smart-heart-rate-dector\gagent\libgagent.a(gatnet.o)	#SHT_PROGBITS,SHF_ALLOC|SHF_MERGE|SHF_STRINGS,1
	0x4303becf		.L.str.44
.rodata.str1.1	0x4303beec	0x1d	D:\Smart-heart-rate-dector\Smart-heart-rate-dector\gagent\libgagent.a(gatnet.o)	#SHT_PROGBITS,SHF_ALLOC|SHF_MERGE|SHF_STRINGS,1
	0x4303beec		.L.str.45
.rodata.str1.1	0x4303bf09	0x27	D:\Smart-heart-rate-dector\Smart-heart-rate-dector\gagent\libgagent.a(gatnet.o)	#SHT_PROGBITS,SHF_ALLOC|SHF_MERGE|SHF_STRINGS,1
	0x4303bf09		.L.str.46
.rodata.str1.1	0x4303bf30	0x13	D:\Smart-heart-rate-dector\Smart-heart-rate-dector\gagent\libgagent.a(gatnet.o)	#SHT_PROGBITS,SHF_ALLOC|SHF_MERGE|SHF_STRINGS,1
	0x4303bf30		.L.str.47
.rodata.str1.1	0x4303bf43	0x3e	D:\Smart-heart-rate-dector\Smart-heart-rate-dector\gagent\libgagent.a(gatnet.o)	#SHT_PROGBITS,SHF_ALLOC|SHF_MERGE|SHF_STRINGS,1
	0x4303bf43		.L.str.48
.rodata.str1.1	0x4303bf81	0x3e	D:\Smart-heart-rate-dector\Smart-heart-rate-dector\gagent\libgagent.a(gatnet.o)	#SHT_PROGBITS,SHF_ALLOC|SHF_MERGE|SHF_STRINGS,1
	0x4303bf81		.L.str.50
.rodata.str1.1	0x4303bfbf	0x12	D:\Smart-heart-rate-dector\Smart-heart-rate-dector\gagent\libgagent.a(gatnet.o)	#SHT_PROGBITS,SHF_ALLOC|SHF_MERGE|SHF_STRINGS,1
	0x4303bfbf		.L.str.51
.rodata.str1.1	0x4303bfd1	0x12	D:\Smart-heart-rate-dector\Smart-heart-rate-dector\gagent\libgagent.a(gatnet.o)	#SHT_PROGBITS,SHF_ALLOC|SHF_MERGE|SHF_STRINGS,1
	0x4303bfd1		.L.str.52
.rodata.str1.1	0x4303bfe3	0x2b	D:\Smart-heart-rate-dector\Smart-heart-rate-dector\gagent\libgagent.a(gatnet.o)	#SHT_PROGBITS,SHF_ALLOC|SHF_MERGE|SHF_STRINGS,1
	0x4303bfe3		.L.str.53
.rodata.str1.1	0x4303c00e	0x27	D:\Smart-heart-rate-dector\Smart-heart-rate-dector\gagent\libgagent.a(gatnet.o)	#SHT_PROGBITS,SHF_ALLOC|SHF_MERGE|SHF_STRINGS,1
	0x4303c00e		.L.str.54
.rodata.str1.1	0x4303c035	0x25	D:\Smart-heart-rate-dector\Smart-heart-rate-dector\gagent\libgagent.a(gatnet.o)	#SHT_PROGBITS,SHF_ALLOC|SHF_MERGE|SHF_STRINGS,1
	0x4303c035		.L.str.55
.rodata.str1.1	0x4303c05a	0x32	D:\Smart-heart-rate-dector\Smart-heart-rate-dector\gagent\libgagent.a(gatnet.o)	#SHT_PROGBITS,SHF_ALLOC|SHF_MERGE|SHF_STRINGS,1
	0x4303c05a		.L.str.57
.rodata.str1.1	0x4303c08c	0x50	D:\Smart-heart-rate-dector\Smart-heart-rate-dector\gagent\libgagent.a(gatnet.o)	#SHT_PROGBITS,SHF_ALLOC|SHF_MERGE|SHF_STRINGS,1
	0x4303c08c		.L.str.58
.rodata.str1.1	0x4303c0dc	0xe	D:\Smart-heart-rate-dector\Smart-heart-rate-dector\gagent\libgagent.a(gatnet.o)	#SHT_PROGBITS,SHF_ALLOC|SHF_MERGE|SHF_STRINGS,1
	0x4303c0dc		.L.str.59
.rodata.str1.1	0x4303c0ea	0x14	D:\Smart-heart-rate-dector\Smart-heart-rate-dector\gagent\libgagent.a(gatnet.o)	#SHT_PROGBITS,SHF_ALLOC|SHF_MERGE|SHF_STRINGS,1
	0x4303c0ea		.L__FUNCTION__.gatRouterUpdateInfo
.rodata.str1.1	0x4303c0fe	0x2f	D:\Smart-heart-rate-dector\Smart-heart-rate-dector\gagent\libgagent.a(gatnet.o)	#SHT_PROGBITS,SHF_ALLOC|SHF_MERGE|SHF_STRINGS,1
	0x4303c0fe		.L.str.60
.rodata.str1.1	0x4303c12d	0x2f	D:\Smart-heart-rate-dector\Smart-heart-rate-dector\gagent\libgagent.a(gatnet.o)	#SHT_PROGBITS,SHF_ALLOC|SHF_MERGE|SHF_STRINGS,1
	0x4303c12d		.L.str.61
.rodata.str1.1	0x4303c15c	0xe	D:\Smart-heart-rate-dector\Smart-heart-rate-dector\gagent\libgagent.a(gatnet.o)	#SHT_PROGBITS,SHF_ALLOC|SHF_MERGE|SHF_STRINGS,1
	0x4303c15c		.L.str.63
.rodata.str1.1	0x4303c16a	0x13	D:\Smart-heart-rate-dector\Smart-heart-rate-dector\gagent\libgagent.a(gatnet.o)	#SHT_PROGBITS,SHF_ALLOC|SHF_MERGE|SHF_STRINGS,1
	0x4303c16a		.L__FUNCTION__.gatNetExcepTimeout
.rodata.str1.1	0x4303c17d	0x27	D:\Smart-heart-rate-dector\Smart-heart-rate-dector\gagent\libgagent.a(gatutilcode.o)	#SHT_PROGBITS,SHF_ALLOC|SHF_MERGE|SHF_STRINGS,1
	0x4303c17d		.L.str.2
.rodata.str1.1	0x4303c1a4	0x25	D:\Smart-heart-rate-dector\Smart-heart-rate-dector\gagent\libgagent.a(gatutilcode.o)	#SHT_PROGBITS,SHF_ALLOC|SHF_MERGE|SHF_STRINGS,1
	0x4303c1a4		.L.str.3
.rodata.str1.1	0x4303c1c9	0x5	D:\Smart-heart-rate-dector\Smart-heart-rate-dector\gagent\libgagent.a(gatutilcode.o)	#SHT_PROGBITS,SHF_ALLOC|SHF_MERGE|SHF_STRINGS,1
	0x4303c1c9		.L.str.4
.rodata.str1.1	0x4303c1ce	0x3c	D:\Smart-heart-rate-dector\Smart-heart-rate-dector\gagent\libgagent.a(gatutilcode.o)	#SHT_PROGBITS,SHF_ALLOC|SHF_MERGE|SHF_STRINGS,1
	0x4303c1ce		.L.str.7
.rodata.str1.1	0x4303c20a	0xe	D:\Smart-heart-rate-dector\Smart-heart-rate-dector\gagent\libgagent.a(gatutilcode.o)	#SHT_PROGBITS,SHF_ALLOC|SHF_MERGE|SHF_STRINGS,1
	0x4303c20a		.L.str.8
.rodata.str1.1	0x4303c218	0x15	D:\Smart-heart-rate-dector\Smart-heart-rate-dector\gagent\libgagent.a(gatutilcode.o)	#SHT_PROGBITS,SHF_ALLOC|SHF_MERGE|SHF_STRINGS,1
	0x4303c218		.L__FUNCTION__.gatUpLoadDataCombine
.rodata.str1.1	0x4303c22d	0x1f	D:\Smart-heart-rate-dector\Smart-heart-rate-dector\gagent\libgagent.a(gatutilcode.o)	#SHT_PROGBITS,SHF_ALLOC|SHF_MERGE|SHF_STRINGS,1
	0x4303c22d		.L.str.9
.rodata.str1.1	0x4303c24c	0x20	D:\Smart-heart-rate-dector\Smart-heart-rate-dector\gagent\libgagent.a(gatutilcode.o)	#SHT_PROGBITS,SHF_ALLOC|SHF_MERGE|SHF_STRINGS,1
	0x4303c24c		.L.str.10
.rodata.str1.1	0x4303c26c	0x18	D:\Smart-heart-rate-dector\Smart-heart-rate-dector\gagent\libgagent.a(gatutilcode.o)	#SHT_PROGBITS,SHF_ALLOC|SHF_MERGE|SHF_STRINGS,1
	0x4303c26c		.L.str.11
PADDING_ALIGNMENT	0x4303c284	0x4	0x0
.rodata	0x4303c288	0x30	D:\Smart-heart-rate-dector\Smart-heart-rate-dector\gagent\libgagent.a(gatutilcode.o)	#SHT_PROGBITS,SHF_ALLOC,8
.rodata.str1.1	0x4303c2b8	0x28	D:\Smart-heart-rate-dector\Smart-heart-rate-dector\gagent\libgagent.a(gdns.o)	#SHT_PROGBITS,SHF_ALLOC|SHF_MERGE|SHF_STRINGS,1
	0x4303c2b8		.L.str.2
.rodata.str1.1	0x4303c2e0	0x13	D:\Smart-heart-rate-dector\Smart-heart-rate-dector\gagent\libgagent.a(gdns.o)	#SHT_PROGBITS,SHF_ALLOC|SHF_MERGE|SHF_STRINGS,1
	0x4303c2e0		.L.str.3
.rodata.str1.1	0x4303c2f3	0x18	D:\Smart-heart-rate-dector\Smart-heart-rate-dector\gagent\libgagent.a(gdns.o)	#SHT_PROGBITS,SHF_ALLOC|SHF_MERGE|SHF_STRINGS,1
	0x4303c2f3		.L.str.4
.rodata.str1.1	0x4303c30b	0x1b	D:\Smart-heart-rate-dector\Smart-heart-rate-dector\gagent\libgagent.a(gdns.o)	#SHT_PROGBITS,SHF_ALLOC|SHF_MERGE|SHF_STRINGS,1
	0x4303c30b		.L.str.5
.rodata.str1.1	0x4303c326	0x19	D:\Smart-heart-rate-dector\Smart-heart-rate-dector\gagent\libgagent.a(gdns.o)	#SHT_PROGBITS,SHF_ALLOC|SHF_MERGE|SHF_STRINGS,1
	0x4303c326		.L.str.6
.rodata.str1.1	0x4303c33f	0x19	D:\Smart-heart-rate-dector\Smart-heart-rate-dector\gagent\libgagent.a(gdns.o)	#SHT_PROGBITS,SHF_ALLOC|SHF_MERGE|SHF_STRINGS,1
	0x4303c33f		.L.str.7
.rodata.str1.1	0x4303c358	0x19	D:\Smart-heart-rate-dector\Smart-heart-rate-dector\gagent\libgagent.a(gdns.o)	#SHT_PROGBITS,SHF_ALLOC|SHF_MERGE|SHF_STRINGS,1
	0x4303c358		.L.str.8
.rodata.str1.1	0x4303c371	0x19	D:\Smart-heart-rate-dector\Smart-heart-rate-dector\gagent\libgagent.a(gdns.o)	#SHT_PROGBITS,SHF_ALLOC|SHF_MERGE|SHF_STRINGS,1
	0x4303c371		.L.str.9
.rodata.str1.1	0x4303c38a	0x1b	D:\Smart-heart-rate-dector\Smart-heart-rate-dector\gagent\libgagent.a(gdns.o)	#SHT_PROGBITS,SHF_ALLOC|SHF_MERGE|SHF_STRINGS,1
	0x4303c38a		.L.str.10
.rodata.str1.1	0x4303c3a5	0x2a	D:\Smart-heart-rate-dector\Smart-heart-rate-dector\gagent\libgagent.a(gdns.o)	#SHT_PROGBITS,SHF_ALLOC|SHF_MERGE|SHF_STRINGS,1
	0x4303c3a5		.L.str.11
.rodata.str1.1	0x4303c3cf	0x11	D:\Smart-heart-rate-dector\Smart-heart-rate-dector\gagent\libgagent.a(gdns.o)	#SHT_PROGBITS,SHF_ALLOC|SHF_MERGE|SHF_STRINGS,1
	0x4303c3cf		.L__FUNCTION__.gatGetHostByName
.rodata.str1.1	0x4303c3e0	0x1b	D:\Smart-heart-rate-dector\Smart-heart-rate-dector\gagent\libgagent.a(gdns.o)	#SHT_PROGBITS,SHF_ALLOC|SHF_MERGE|SHF_STRINGS,1
	0x4303c3e0		.L.str.12
.rodata.str1.1	0x4303c3fb	0x8	D:\Smart-heart-rate-dector\Smart-heart-rate-dector\gagent\libgagent.a(gdns.o)	#SHT_PROGBITS,SHF_ALLOC|SHF_MERGE|SHF_STRINGS,1
	0x4303c3fb		.L.str.13
.rodata.str1.1	0x4303c403	0x47	D:\Smart-heart-rate-dector\Smart-heart-rate-dector\gagent\libgagent.a(gdns.o)	#SHT_PROGBITS,SHF_ALLOC|SHF_MERGE|SHF_STRINGS,1
	0x4303c403		.L.str.15
.rodata.str1.1	0x4303c44a	0x2b	D:\Smart-heart-rate-dector\Smart-heart-rate-dector\gagent\libgagent.a(gdns.o)	#SHT_PROGBITS,SHF_ALLOC|SHF_MERGE|SHF_STRINGS,1
	0x4303c44a		.L.str.16
.rodata.str1.1	0x4303c475	0x11	D:\Smart-heart-rate-dector\Smart-heart-rate-dector\gagent\libgagent.a(gdns.o)	#SHT_PROGBITS,SHF_ALLOC|SHF_MERGE|SHF_STRINGS,1
	0x4303c475		.L__FUNCTION__._getDnsReqByName
.rodata.str1.1	0x4303c486	0x24	D:\Smart-heart-rate-dector\Smart-heart-rate-dector\gagent\libgagent.a(gdns.o)	#SHT_PROGBITS,SHF_ALLOC|SHF_MERGE|SHF_STRINGS,1
	0x4303c486		.L.str.17
.rodata.str1.1	0x4303c4aa	0xb	D:\Smart-heart-rate-dector\Smart-heart-rate-dector\gagent\libgagent.a(gdns.o)	#SHT_PROGBITS,SHF_ALLOC|SHF_MERGE|SHF_STRINGS,1
	0x4303c4aa		.L__FUNCTION__._dnsResult
.rodata.str1.1	0x4303c4b5	0x18	D:\Smart-heart-rate-dector\Smart-heart-rate-dector\gagent\libgagent.a(gdns.o)	#SHT_PROGBITS,SHF_ALLOC|SHF_MERGE|SHF_STRINGS,1
	0x4303c4b5		.L.str.19
.rodata.str1.1	0x4303c4cd	0x1c	D:\Smart-heart-rate-dector\Smart-heart-rate-dector\gagent\libgagent.a(gdns.o)	#SHT_PROGBITS,SHF_ALLOC|SHF_MERGE|SHF_STRINGS,1
	0x4303c4cd		.L.str.20
.rodata.str1.1	0x4303c4e9	0x1b	D:\Smart-heart-rate-dector\Smart-heart-rate-dector\gagent\libgagent.a(gdns.o)	#SHT_PROGBITS,SHF_ALLOC|SHF_MERGE|SHF_STRINGS,1
	0x4303c4e9		.L.str.21
.rodata.str1.1	0x4303c504	0x2e	D:\Smart-heart-rate-dector\Smart-heart-rate-dector\gagent\libgagent.a(gdns.o)	#SHT_PROGBITS,SHF_ALLOC|SHF_MERGE|SHF_STRINGS,1
	0x4303c504		.L.str.22
.rodata.str1.1	0x4303c532	0x8	D:\Smart-heart-rate-dector\Smart-heart-rate-dector\gagent\libgagent.a(gdns.o)	#SHT_PROGBITS,SHF_ALLOC|SHF_MERGE|SHF_STRINGS,1
	0x4303c532		.L.str.23
.rodata.str1.1	0x4303c53a	0x1f	D:\Smart-heart-rate-dector\Smart-heart-rate-dector\gagent\libgagent.a(gdns.o)	#SHT_PROGBITS,SHF_ALLOC|SHF_MERGE|SHF_STRINGS,1
	0x4303c53a		.L.str.24
.rodata.str1.1	0x4303c559	0xc	D:\Smart-heart-rate-dector\Smart-heart-rate-dector\gagent\libgagent.a(gdns.o)	#SHT_PROGBITS,SHF_ALLOC|SHF_MERGE|SHF_STRINGS,1
	0x4303c559		.L__FUNCTION__._dnsIpFound
.rodata.str1.1	0x4303c565	0x21	D:\Smart-heart-rate-dector\Smart-heart-rate-dector\gagent\libgagent.a(gdns.o)	#SHT_PROGBITS,SHF_ALLOC|SHF_MERGE|SHF_STRINGS,1
	0x4303c565		.L.str.25
.rodata.str1.1	0x4303c586	0x9	D:\Smart-heart-rate-dector\Smart-heart-rate-dector\gagent\libgagent.a(gdns.o)	#SHT_PROGBITS,SHF_ALLOC|SHF_MERGE|SHF_STRINGS,1
	0x4303c586		.L__FUNCTION__._dnsTick
.rodata.str1.1	0x4303c58f	0x16	D:\Smart-heart-rate-dector\Smart-heart-rate-dector\gagent\libgagent.a(gdns.o)	#SHT_PROGBITS,SHF_ALLOC|SHF_MERGE|SHF_STRINGS,1
	0x4303c58f		.L.str.26
.rodata.str1.1	0x4303c5a5	0x11	D:\Smart-heart-rate-dector\Smart-heart-rate-dector\gagent\libgagent.a(gserver.o)	#SHT_PROGBITS,SHF_ALLOC|SHF_MERGE|SHF_STRINGS,1
	0x4303c5a5		.L__FUNCTION__.Http_Decrypt_RES
.rodata.str1.1	0x4303c5b6	0x35	D:\Smart-heart-rate-dector\Smart-heart-rate-dector\gagent\libgagent.a(gserver.o)	#SHT_PROGBITS,SHF_ALLOC|SHF_MERGE|SHF_STRINGS,1
	0x4303c5b6		.L.str.2
.rodata.str1.1	0x4303c5eb	0x30	D:\Smart-heart-rate-dector\Smart-heart-rate-dector\gagent\libgagent.a(gserver.o)	#SHT_PROGBITS,SHF_ALLOC|SHF_MERGE|SHF_STRINGS,1
	0x4303c5eb		.L.str.3
.rodata.str1.1	0x4303c61b	0x23	D:\Smart-heart-rate-dector\Smart-heart-rate-dector\gagent\libgagent.a(gserver.o)	#SHT_PROGBITS,SHF_ALLOC|SHF_MERGE|SHF_STRINGS,1
	0x4303c61b		.L.str.6
.rodata.str1.1	0x4303c63e	0x20	D:\Smart-heart-rate-dector\Smart-heart-rate-dector\gagent\libgagent.a(gserver.o)	#SHT_PROGBITS,SHF_ALLOC|SHF_MERGE|SHF_STRINGS,1
	0x4303c63e		.L.str.7
.rodata.str1.1	0x4303c65e	0x1c	D:\Smart-heart-rate-dector\Smart-heart-rate-dector\gagent\libgagent.a(gserver.o)	#SHT_PROGBITS,SHF_ALLOC|SHF_MERGE|SHF_STRINGS,1
	0x4303c65e		.L.str.8
.rodata.str1.1	0x4303c67a	0x2e	D:\Smart-heart-rate-dector\Smart-heart-rate-dector\gagent\libgagent.a(gserver.o)	#SHT_PROGBITS,SHF_ALLOC|SHF_MERGE|SHF_STRINGS,1
	0x4303c67a		.L.str.9
.rodata.str1.1	0x4303c6a8	0x22	D:\Smart-heart-rate-dector\Smart-heart-rate-dector\gagent\libgagent.a(gserver.o)	#SHT_PROGBITS,SHF_ALLOC|SHF_MERGE|SHF_STRINGS,1
	0x4303c6a8		.L.str.10
.rodata.str1.1	0x4303c6ca	0xb	D:\Smart-heart-rate-dector\Smart-heart-rate-dector\gagent\libgagent.a(gserver.o)	#SHT_PROGBITS,SHF_ALLOC|SHF_MERGE|SHF_STRINGS,1
	0x4303c6ca		.L.str.11
.rodata.str1.1	0x4303c6d5	0x1f	D:\Smart-heart-rate-dector\Smart-heart-rate-dector\gagent\libgagent.a(gserver.o)	#SHT_PROGBITS,SHF_ALLOC|SHF_MERGE|SHF_STRINGS,1
	0x4303c6d5		.L.str.13
.rodata.str1.1	0x4303c6f4	0x5	D:\Smart-heart-rate-dector\Smart-heart-rate-dector\gagent\libgagent.a(gserver.o)	#SHT_PROGBITS,SHF_ALLOC|SHF_MERGE|SHF_STRINGS,1
	0x4303c6f4		.L.str.14
.rodata.str1.1	0x4303c6f9	0x27	D:\Smart-heart-rate-dector\Smart-heart-rate-dector\gagent\libgagent.a(gserver.o)	#SHT_PROGBITS,SHF_ALLOC|SHF_MERGE|SHF_STRINGS,1
	0x4303c6f9		.L.str.15
.rodata.str1.1	0x4303c720	0xc	D:\Smart-heart-rate-dector\Smart-heart-rate-dector\gagent\libgagent.a(gserver.o)	#SHT_PROGBITS,SHF_ALLOC|SHF_MERGE|SHF_STRINGS,1
	0x4303c720		.L__FUNCTION__.gatRegsiter
.rodata.str1.1	0x4303c72c	0x34	D:\Smart-heart-rate-dector\Smart-heart-rate-dector\gagent\libgagent.a(gserver.o)	#SHT_PROGBITS,SHF_ALLOC|SHF_MERGE|SHF_STRINGS,1
	0x4303c72c		.L.str.16
.rodata.str1.1	0x4303c760	0x1c	D:\Smart-heart-rate-dector\Smart-heart-rate-dector\gagent\libgagent.a(gserver.o)	#SHT_PROGBITS,SHF_ALLOC|SHF_MERGE|SHF_STRINGS,1
	0x4303c760		.L.str.21
.rodata.str1.1	0x4303c77c	0x15	D:\Smart-heart-rate-dector\Smart-heart-rate-dector\gagent\libgagent.a(gserver.o)	#SHT_PROGBITS,SHF_ALLOC|SHF_MERGE|SHF_STRINGS,1
	0x4303c77c		.L.str.22
.rodata.str1.1	0x4303c791	0xa	D:\Smart-heart-rate-dector\Smart-heart-rate-dector\gagent\libgagent.a(gserver.o)	#SHT_PROGBITS,SHF_ALLOC|SHF_MERGE|SHF_STRINGS,1
	0x4303c791		.L.str.23
.rodata.str1.1	0x4303c79b	0x6	D:\Smart-heart-rate-dector\Smart-heart-rate-dector\gagent\libgagent.a(gserver.o)	#SHT_PROGBITS,SHF_ALLOC|SHF_MERGE|SHF_STRINGS,1
	0x4303c79b		.L.str.24
.rodata.str1.1	0x4303c7a1	0x6	D:\Smart-heart-rate-dector\Smart-heart-rate-dector\gagent\libgagent.a(gserver.o)	#SHT_PROGBITS,SHF_ALLOC|SHF_MERGE|SHF_STRINGS,1
	0x4303c7a1		.L.str.25
.rodata.str1.1	0x4303c7a7	0x5	D:\Smart-heart-rate-dector\Smart-heart-rate-dector\gagent\libgagent.a(gserver.o)	#SHT_PROGBITS,SHF_ALLOC|SHF_MERGE|SHF_STRINGS,1
	0x4303c7a7		.L.str.26
.rodata.str1.1	0x4303c7ac	0x6	D:\Smart-heart-rate-dector\Smart-heart-rate-dector\gagent\libgagent.a(gserver.o)	#SHT_PROGBITS,SHF_ALLOC|SHF_MERGE|SHF_STRINGS,1
	0x4303c7ac		.L.str.27
.rodata.str1.1	0x4303c7b2	0x18	D:\Smart-heart-rate-dector\Smart-heart-rate-dector\gagent\libgagent.a(gserver.o)	#SHT_PROGBITS,SHF_ALLOC|SHF_MERGE|SHF_STRINGS,1
	0x4303c7b2		.L.str.28
.rodata.str1.1	0x4303c7ca	0x9	D:\Smart-heart-rate-dector\Smart-heart-rate-dector\gagent\libgagent.a(gserver.o)	#SHT_PROGBITS,SHF_ALLOC|SHF_MERGE|SHF_STRINGS,1
	0x4303c7ca		.L.str.29
.rodata.str1.1	0x4303c7d3	0x5	D:\Smart-heart-rate-dector\Smart-heart-rate-dector\gagent\libgagent.a(gserver.o)	#SHT_PROGBITS,SHF_ALLOC|SHF_MERGE|SHF_STRINGS,1
	0x4303c7d3		.L.str.30
.rodata.str1.1	0x4303c7d8	0xb	D:\Smart-heart-rate-dector\Smart-heart-rate-dector\gagent\libgagent.a(gserver.o)	#SHT_PROGBITS,SHF_ALLOC|SHF_MERGE|SHF_STRINGS,1
	0x4303c7d8		.L.str.32
.rodata.str1.1	0x4303c7e3	0x15	D:\Smart-heart-rate-dector\Smart-heart-rate-dector\gagent\libgagent.a(gserver.o)	#SHT_PROGBITS,SHF_ALLOC|SHF_MERGE|SHF_STRINGS,1
	0x4303c7e3		.L.str.33
.rodata.str1.1	0x4303c7f8	0x9	D:\Smart-heart-rate-dector\Smart-heart-rate-dector\gagent\libgagent.a(gserver.o)	#SHT_PROGBITS,SHF_ALLOC|SHF_MERGE|SHF_STRINGS,1
	0x4303c7f8		.L.str.34
.rodata.str1.1	0x4303c801	0x16	D:\Smart-heart-rate-dector\Smart-heart-rate-dector\gagent\libgagent.a(gserver.o)	#SHT_PROGBITS,SHF_ALLOC|SHF_MERGE|SHF_STRINGS,1
	0x4303c801		.L.str.35
.rodata.str1.1	0x4303c817	0xb	D:\Smart-heart-rate-dector\Smart-heart-rate-dector\gagent\libgagent.a(gserver.o)	#SHT_PROGBITS,SHF_ALLOC|SHF_MERGE|SHF_STRINGS,1
	0x4303c817		.L.str.37
.rodata.str1.1	0x4303c822	0x8	D:\Smart-heart-rate-dector\Smart-heart-rate-dector\gagent\libgagent.a(gserver.o)	#SHT_PROGBITS,SHF_ALLOC|SHF_MERGE|SHF_STRINGS,1
	0x4303c822		.L.str.38
.rodata.str1.1	0x4303c82a	0x6	D:\Smart-heart-rate-dector\Smart-heart-rate-dector\gagent\libgagent.a(gserver.o)	#SHT_PROGBITS,SHF_ALLOC|SHF_MERGE|SHF_STRINGS,1
	0x4303c82a		.L.str.39
.rodata.str1.1	0x4303c830	0xf	D:\Smart-heart-rate-dector\Smart-heart-rate-dector\gagent\libgagent.a(gserver.o)	#SHT_PROGBITS,SHF_ALLOC|SHF_MERGE|SHF_STRINGS,1
	0x4303c830		.L.str.40
.rodata.str1.1	0x4303c83f	0x2a	D:\Smart-heart-rate-dector\Smart-heart-rate-dector\gagent\libgagent.a(gserver.o)	#SHT_PROGBITS,SHF_ALLOC|SHF_MERGE|SHF_STRINGS,1
	0x4303c83f		.L.str.41
.rodata.str1.1	0x4303c869	0x23	D:\Smart-heart-rate-dector\Smart-heart-rate-dector\gagent\libgagent.a(gserver.o)	#SHT_PROGBITS,SHF_ALLOC|SHF_MERGE|SHF_STRINGS,1
	0x4303c869		.L.str.42
.rodata.str1.1	0x4303c88c	0x15	D:\Smart-heart-rate-dector\Smart-heart-rate-dector\gagent\libgagent.a(gserver.o)	#SHT_PROGBITS,SHF_ALLOC|SHF_MERGE|SHF_STRINGS,1
	0x4303c88c		.L.str.44
.rodata.str1.1	0x4303c8a1	0x2	D:\Smart-heart-rate-dector\Smart-heart-rate-dector\gagent\libgagent.a(gserver.o)	#SHT_PROGBITS,SHF_ALLOC|SHF_MERGE|SHF_STRINGS,1
	0x4303c8a1		.L.str.45
.rodata.str1.1	0x4303c8a3	0xd	D:\Smart-heart-rate-dector\Smart-heart-rate-dector\gagent\libgagent.a(gserver.o)	#SHT_PROGBITS,SHF_ALLOC|SHF_MERGE|SHF_STRINGS,1
	0x4303c8a3		.L__FUNCTION__.gatProvision
.rodata.str1.1	0x4303c8b0	0x18	D:\Smart-heart-rate-dector\Smart-heart-rate-dector\gagent\libgagent.a(gserver.o)	#SHT_PROGBITS,SHF_ALLOC|SHF_MERGE|SHF_STRINGS,1
	0x4303c8b0		.L.str.47
.rodata.str1.1	0x4303c8c8	0x23	D:\Smart-heart-rate-dector\Smart-heart-rate-dector\gagent\libgagent.a(gserver.o)	#SHT_PROGBITS,SHF_ALLOC|SHF_MERGE|SHF_STRINGS,1
	0x4303c8c8		.L.str.48
.rodata.str1.1	0x4303c8eb	0x16	D:\Smart-heart-rate-dector\Smart-heart-rate-dector\gagent\libgagent.a(gserver.o)	#SHT_PROGBITS,SHF_ALLOC|SHF_MERGE|SHF_STRINGS,1
	0x4303c8eb		.L.str.50
.rodata.str1.1	0x4303c901	0x23	D:\Smart-heart-rate-dector\Smart-heart-rate-dector\gagent\libgagent.a(gserver.o)	#SHT_PROGBITS,SHF_ALLOC|SHF_MERGE|SHF_STRINGS,1
	0x4303c901		.L.str.51
.rodata.str1.1	0x4303c924	0x10	D:\Smart-heart-rate-dector\Smart-heart-rate-dector\gagent\libgagent.a(gserver.o)	#SHT_PROGBITS,SHF_ALLOC|SHF_MERGE|SHF_STRINGS,1
	0x4303c924		.L.str.52
.rodata.str1.1	0x4303c934	0x1b	D:\Smart-heart-rate-dector\Smart-heart-rate-dector\gagent\libgagent.a(gserver.o)	#SHT_PROGBITS,SHF_ALLOC|SHF_MERGE|SHF_STRINGS,1
	0x4303c934		.L.str.53
.rodata.str1.1	0x4303c94f	0x17	D:\Smart-heart-rate-dector\Smart-heart-rate-dector\gagent\libgagent.a(gserver.o)	#SHT_PROGBITS,SHF_ALLOC|SHF_MERGE|SHF_STRINGS,1
	0x4303c94f		.L__FUNCTION__.gatNormalDeviceDisable
.rodata.str1.1	0x4303c966	0x19	D:\Smart-heart-rate-dector\Smart-heart-rate-dector\gagent\libgagent.a(gserver.o)	#SHT_PROGBITS,SHF_ALLOC|SHF_MERGE|SHF_STRINGS,1
	0x4303c966		.L.str.54
.rodata.str1.1	0x4303c97f	0x13	D:\Smart-heart-rate-dector\Smart-heart-rate-dector\gagent\libgagent.a(gserver.o)	#SHT_PROGBITS,SHF_ALLOC|SHF_MERGE|SHF_STRINGS,1
	0x4303c97f		.L.str.55
.rodata.str1.1	0x4303c992	0x34	D:\Smart-heart-rate-dector\Smart-heart-rate-dector\gagent\libgagent.a(gserver.o)	#SHT_PROGBITS,SHF_ALLOC|SHF_MERGE|SHF_STRINGS,1
	0x4303c992		.L.str.56
.rodata.str1.1	0x4303c9c6	0x29	D:\Smart-heart-rate-dector\Smart-heart-rate-dector\gagent\libgagent.a(gserver.o)	#SHT_PROGBITS,SHF_ALLOC|SHF_MERGE|SHF_STRINGS,1
	0x4303c9c6		.L.str.57
.rodata.str1.1	0x4303c9ef	0x43	D:\Smart-heart-rate-dector\Smart-heart-rate-dector\gagent\libgagent.a(gserver.o)	#SHT_PROGBITS,SHF_ALLOC|SHF_MERGE|SHF_STRINGS,1
	0x4303c9ef		.L.str.58
.rodata.str1.1	0x4303ca32	0x3b	D:\Smart-heart-rate-dector\Smart-heart-rate-dector\gagent\libgagent.a(gserver.o)	#SHT_PROGBITS,SHF_ALLOC|SHF_MERGE|SHF_STRINGS,1
	0x4303ca32		.L.str.59
.rodata.str1.1	0x4303ca6d	0x2b	D:\Smart-heart-rate-dector\Smart-heart-rate-dector\gagent\libgagent.a(gserver.o)	#SHT_PROGBITS,SHF_ALLOC|SHF_MERGE|SHF_STRINGS,1
	0x4303ca6d		.L.str.60
.rodata.str1.1	0x4303ca98	0x2b	D:\Smart-heart-rate-dector\Smart-heart-rate-dector\gagent\libgagent.a(gserver.o)	#SHT_PROGBITS,SHF_ALLOC|SHF_MERGE|SHF_STRINGS,1
	0x4303ca98		.L.str.61
.rodata.str1.1	0x4303cac3	0x12	D:\Smart-heart-rate-dector\Smart-heart-rate-dector\gagent\libgagent.a(gserver.o)	#SHT_PROGBITS,SHF_ALLOC|SHF_MERGE|SHF_STRINGS,1
	0x4303cac3		.L.str.62
.rodata.str1.1	0x4303cad5	0x1c	D:\Smart-heart-rate-dector\Smart-heart-rate-dector\gagent\libgagent.a(gserver.o)	#SHT_PROGBITS,SHF_ALLOC|SHF_MERGE|SHF_STRINGS,1
	0x4303cad5		.L.str.63
.rodata.str1.1	0x4303caf1	0x2c	D:\Smart-heart-rate-dector\Smart-heart-rate-dector\gagent\libgagent.a(gserver.o)	#SHT_PROGBITS,SHF_ALLOC|SHF_MERGE|SHF_STRINGS,1
	0x4303caf1		.L.str.64
.rodata.str1.1	0x4303cb1d	0x21	D:\Smart-heart-rate-dector\Smart-heart-rate-dector\gagent\libgagent.a(gserver.o)	#SHT_PROGBITS,SHF_ALLOC|SHF_MERGE|SHF_STRINGS,1
	0x4303cb1d		.L.str.65
.rodata.str1.1	0x4303cb3e	0x12	D:\Smart-heart-rate-dector\Smart-heart-rate-dector\gagent\libgagent.a(gserver.o)	#SHT_PROGBITS,SHF_ALLOC|SHF_MERGE|SHF_STRINGS,1
	0x4303cb3e		.L.str.66
.rodata.str1.1	0x4303cb50	0xb	D:\Smart-heart-rate-dector\Smart-heart-rate-dector\gagent\libgagent.a(gserver.o)	#SHT_PROGBITS,SHF_ALLOC|SHF_MERGE|SHF_STRINGS,1
	0x4303cb50		.L__FUNCTION__.packRegPkt
.rodata.str1.1	0x4303cb5b	0x23	D:\Smart-heart-rate-dector\Smart-heart-rate-dector\gagent\libgagent.a(gserver.o)	#SHT_PROGBITS,SHF_ALLOC|SHF_MERGE|SHF_STRINGS,1
	0x4303cb5b		.L.str.67
.rodata.str1.1	0x4303cb7e	0x56	D:\Smart-heart-rate-dector\Smart-heart-rate-dector\gagent\libgagent.a(gserver.o)	#SHT_PROGBITS,SHF_ALLOC|SHF_MERGE|SHF_STRINGS,1
	0x4303cb7e		.L.str.68
.rodata.str1.1	0x4303cbd4	0x36	D:\Smart-heart-rate-dector\Smart-heart-rate-dector\gagent\libgagent.a(gserver.o)	#SHT_PROGBITS,SHF_ALLOC|SHF_MERGE|SHF_STRINGS,1
	0x4303cbd4		.L.str.69
.rodata.str1.1	0x4303cc0a	0x5e	D:\Smart-heart-rate-dector\Smart-heart-rate-dector\gagent\libgagent.a(gserver.o)	#SHT_PROGBITS,SHF_ALLOC|SHF_MERGE|SHF_STRINGS,1
	0x4303cc0a		.L.str.70
.rodata.str1.1	0x4303cc68	0x3e	D:\Smart-heart-rate-dector\Smart-heart-rate-dector\gagent\libgagent.a(gserver.o)	#SHT_PROGBITS,SHF_ALLOC|SHF_MERGE|SHF_STRINGS,1
	0x4303cc68		.L.str.71
.rodata.str1.1	0x4303cca6	0xd	D:\Smart-heart-rate-dector\Smart-heart-rate-dector\gagent\libgagent.a(gserver.o)	#SHT_PROGBITS,SHF_ALLOC|SHF_MERGE|SHF_STRINGS,1
	0x4303cca6		.L.str.72
.rodata.str1.1	0x4303ccb3	0x48	D:\Smart-heart-rate-dector\Smart-heart-rate-dector\gagent\libgagent.a(gserver.o)	#SHT_PROGBITS,SHF_ALLOC|SHF_MERGE|SHF_STRINGS,1
	0x4303ccb3		.L.str.73
.rodata.str1.1	0x4303ccfb	0x28	D:\Smart-heart-rate-dector\Smart-heart-rate-dector\gagent\libgagent.a(gserver.o)	#SHT_PROGBITS,SHF_ALLOC|SHF_MERGE|SHF_STRINGS,1
	0x4303ccfb		.L.str.74
.rodata.str1.1	0x4303cd23	0x50	D:\Smart-heart-rate-dector\Smart-heart-rate-dector\gagent\libgagent.a(gserver.o)	#SHT_PROGBITS,SHF_ALLOC|SHF_MERGE|SHF_STRINGS,1
	0x4303cd23		.L.str.75
.rodata.str1.1	0x4303cd73	0x30	D:\Smart-heart-rate-dector\Smart-heart-rate-dector\gagent\libgagent.a(gserver.o)	#SHT_PROGBITS,SHF_ALLOC|SHF_MERGE|SHF_STRINGS,1
	0x4303cd73		.L.str.76
.rodata.str1.1	0x4303cda3	0x18	D:\Smart-heart-rate-dector\Smart-heart-rate-dector\gagent\libgagent.a(gserver.o)	#SHT_PROGBITS,SHF_ALLOC|SHF_MERGE|SHF_STRINGS,1
	0x4303cda3		.L.str.77
.rodata.str1.1	0x4303cdbb	0xf	D:\Smart-heart-rate-dector\Smart-heart-rate-dector\gagent\libgagent.a(gserver.o)	#SHT_PROGBITS,SHF_ALLOC|SHF_MERGE|SHF_STRINGS,1
	0x4303cdbb		.L.str.78
.rodata.str1.1	0x4303cdca	0x13	D:\Smart-heart-rate-dector\Smart-heart-rate-dector\gagent\libgagent.a(gserver.o)	#SHT_PROGBITS,SHF_ALLOC|SHF_MERGE|SHF_STRINGS,1
	0x4303cdca		.L.str.79
.rodata.str1.1	0x4303cddd	0x23	D:\Smart-heart-rate-dector\Smart-heart-rate-dector\gagent\libgagent.a(gserver.o)	#SHT_PROGBITS,SHF_ALLOC|SHF_MERGE|SHF_STRINGS,1
	0x4303cddd		.L.str.80
.rodata.str1.1	0x4303ce00	0x6	D:\Smart-heart-rate-dector\Smart-heart-rate-dector\gagent\libgagent.a(gserver.o)	#SHT_PROGBITS,SHF_ALLOC|SHF_MERGE|SHF_STRINGS,1
.rodata.str1.1	0x4303ce06	0x23	D:\Smart-heart-rate-dector\Smart-heart-rate-dector\gagent\libgagent.a(gserver.o)	#SHT_PROGBITS,SHF_ALLOC|SHF_MERGE|SHF_STRINGS,1
	0x4303ce06		.L.str.82
.rodata.str1.1	0x4303ce29	0x1a	D:\Smart-heart-rate-dector\Smart-heart-rate-dector\gagent\libgagent.a(gserver.o)	#SHT_PROGBITS,SHF_ALLOC|SHF_MERGE|SHF_STRINGS,1
	0x4303ce29		.L.str.83
.rodata.str1.1	0x4303ce43	0x2b	D:\Smart-heart-rate-dector\Smart-heart-rate-dector\gagent\libgagent.a(gserver.o)	#SHT_PROGBITS,SHF_ALLOC|SHF_MERGE|SHF_STRINGS,1
	0x4303ce43		.L.str.84
.rodata.str1.1	0x4303ce6e	0x16	D:\Smart-heart-rate-dector\Smart-heart-rate-dector\gagent\libgagent.a(gserver.o)	#SHT_PROGBITS,SHF_ALLOC|SHF_MERGE|SHF_STRINGS,1
	0x4303ce6e		.L.str.85
.rodata.str1.1	0x4303ce84	0x12	D:\Smart-heart-rate-dector\Smart-heart-rate-dector\gagent\libgagent.a(gserver.o)	#SHT_PROGBITS,SHF_ALLOC|SHF_MERGE|SHF_STRINGS,1
	0x4303ce84		.L__FUNCTION__.gatProvisionRecCb
.rodata.str1.1	0x4303ce96	0x1a	D:\Smart-heart-rate-dector\Smart-heart-rate-dector\gagent\libgagent.a(gserver.o)	#SHT_PROGBITS,SHF_ALLOC|SHF_MERGE|SHF_STRINGS,1
	0x4303ce96		.L.str.86
.rodata.str1.1	0x4303ceb0	0x23	D:\Smart-heart-rate-dector\Smart-heart-rate-dector\gagent\libgagent.a(gserver.o)	#SHT_PROGBITS,SHF_ALLOC|SHF_MERGE|SHF_STRINGS,1
	0x4303ceb0		.L.str.87
.rodata.str1.1	0x4303ced3	0x32	D:\Smart-heart-rate-dector\Smart-heart-rate-dector\gagent\libgagent.a(gserver.o)	#SHT_PROGBITS,SHF_ALLOC|SHF_MERGE|SHF_STRINGS,1
	0x4303ced3		.L.str.88
.rodata.str1.1	0x4303cf05	0x35	D:\Smart-heart-rate-dector\Smart-heart-rate-dector\gagent\libgagent.a(gserver.o)	#SHT_PROGBITS,SHF_ALLOC|SHF_MERGE|SHF_STRINGS,1
	0x4303cf05		.L.str.89
.rodata.str1.1	0x4303cf3a	0x26	D:\Smart-heart-rate-dector\Smart-heart-rate-dector\gagent\libgagent.a(gserver.o)	#SHT_PROGBITS,SHF_ALLOC|SHF_MERGE|SHF_STRINGS,1
	0x4303cf3a		.L.str.90
.rodata.str1.1	0x4303cf60	0x3d	D:\Smart-heart-rate-dector\Smart-heart-rate-dector\gagent\libgagent.a(gserver.o)	#SHT_PROGBITS,SHF_ALLOC|SHF_MERGE|SHF_STRINGS,1
	0x4303cf60		.L.str.91
.rodata.str1.1	0x4303cf9d	0x16	D:\Smart-heart-rate-dector\Smart-heart-rate-dector\gagent\libgagent.a(gserver.o)	#SHT_PROGBITS,SHF_ALLOC|SHF_MERGE|SHF_STRINGS,1
	0x4303cf9d		.L.str.92
.rodata.str1.1	0x4303cfb3	0x25	D:\Smart-heart-rate-dector\Smart-heart-rate-dector\gagent\libgagent.a(gserver.o)	#SHT_PROGBITS,SHF_ALLOC|SHF_MERGE|SHF_STRINGS,1
	0x4303cfb3		.L.str.93
.rodata.str1.1	0x4303cfd8	0x17	D:\Smart-heart-rate-dector\Smart-heart-rate-dector\gagent\libgagent.a(gserver.o)	#SHT_PROGBITS,SHF_ALLOC|SHF_MERGE|SHF_STRINGS,1
	0x4303cfd8		.L.str.94
.rodata.str1.1	0x4303cfef	0x1f	D:\Smart-heart-rate-dector\Smart-heart-rate-dector\gagent\libgagent.a(gserver.o)	#SHT_PROGBITS,SHF_ALLOC|SHF_MERGE|SHF_STRINGS,1
	0x4303cfef		.L.str.95
.rodata.str1.1	0x4303d00e	0xa	D:\Smart-heart-rate-dector\Smart-heart-rate-dector\gagent\libgagent.a(gserver.o)	#SHT_PROGBITS,SHF_ALLOC|SHF_MERGE|SHF_STRINGS,1
	0x4303d00e		.L.str.96
.rodata.str1.1	0x4303d018	0x1f	D:\Smart-heart-rate-dector\Smart-heart-rate-dector\gagent\libgagent.a(gserver.o)	#SHT_PROGBITS,SHF_ALLOC|SHF_MERGE|SHF_STRINGS,1
	0x4303d018		.L.str.97
.rodata.str1.1	0x4303d037	0x26	D:\Smart-heart-rate-dector\Smart-heart-rate-dector\gagent\libgagent.a(gserver.o)	#SHT_PROGBITS,SHF_ALLOC|SHF_MERGE|SHF_STRINGS,1
	0x4303d037		.L.str.98
.rodata.str1.1	0x4303d05d	0x2b	D:\Smart-heart-rate-dector\Smart-heart-rate-dector\gagent\libgagent.a(gserver.o)	#SHT_PROGBITS,SHF_ALLOC|SHF_MERGE|SHF_STRINGS,1
	0x4303d05d		.L.str.99
.rodata.str1.1	0x4303d088	0x12	D:\Smart-heart-rate-dector\Smart-heart-rate-dector\gagent\libgagent.a(gserver.o)	#SHT_PROGBITS,SHF_ALLOC|SHF_MERGE|SHF_STRINGS,1
	0x4303d088		.L__FUNCTION__.gatProvisionParse
.rodata.str1.1	0x4303d09a	0x5	D:\Smart-heart-rate-dector\Smart-heart-rate-dector\gagent\libgagent.a(gserver.o)	#SHT_PROGBITS,SHF_ALLOC|SHF_MERGE|SHF_STRINGS,1
	0x4303d09a		.L.str.100
.rodata.str1.1	0x4303d09f	0x1c	D:\Smart-heart-rate-dector\Smart-heart-rate-dector\gagent\libgagent.a(gserver.o)	#SHT_PROGBITS,SHF_ALLOC|SHF_MERGE|SHF_STRINGS,1
	0x4303d09f		.L.str.101
.rodata.str1.1	0x4303d0bb	0x1c	D:\Smart-heart-rate-dector\Smart-heart-rate-dector\gagent\libgagent.a(gserver.o)	#SHT_PROGBITS,SHF_ALLOC|SHF_MERGE|SHF_STRINGS,1
	0x4303d0bb		.L.str.103
.rodata.str1.1	0x4303d0d7	0x16	D:\Smart-heart-rate-dector\Smart-heart-rate-dector\gagent\libgagent.a(gserver.o)	#SHT_PROGBITS,SHF_ALLOC|SHF_MERGE|SHF_STRINGS,1
	0x4303d0d7		.L__FUNCTION__.gatDeviceDisableRecCb
.rodata.str1.1	0x4303d0ed	0x27	D:\Smart-heart-rate-dector\Smart-heart-rate-dector\gagent\libgagent.a(gserver.o)	#SHT_PROGBITS,SHF_ALLOC|SHF_MERGE|SHF_STRINGS,1
	0x4303d0ed		.L.str.104
.rodata.str1.1	0x4303d114	0x27	D:\Smart-heart-rate-dector\Smart-heart-rate-dector\gagent\libgagent.a(gserver.o)	#SHT_PROGBITS,SHF_ALLOC|SHF_MERGE|SHF_STRINGS,1
	0x4303d114		.L.str.105
.rodata.str1.1	0x4303d13b	0x40	D:\Smart-heart-rate-dector\Smart-heart-rate-dector\gagent\libgagent.a(gserver.o)	#SHT_PROGBITS,SHF_ALLOC|SHF_MERGE|SHF_STRINGS,1
	0x4303d13b		.L.str.106
.rodata.str1.1	0x4303d17b	0x1d	D:\Smart-heart-rate-dector\Smart-heart-rate-dector\gagent\libgagent.a(gserver.o)	#SHT_PROGBITS,SHF_ALLOC|SHF_MERGE|SHF_STRINGS,1
	0x4303d17b		.L.str.107
.rodata.str1.1	0x4303d198	0x34	D:\Smart-heart-rate-dector\Smart-heart-rate-dector\gagent\libgagent.a(gserver.o)	#SHT_PROGBITS,SHF_ALLOC|SHF_MERGE|SHF_STRINGS,1
	0x4303d198		.L.str.108
.rodata.str1.1	0x4303d1cc	0x19	D:\Smart-heart-rate-dector\Smart-heart-rate-dector\gagent\libgagent.a(gserver.o)	#SHT_PROGBITS,SHF_ALLOC|SHF_MERGE|SHF_STRINGS,1
	0x4303d1cc		.L.str.109
.rodata.str1.1	0x4303d1e5	0x19	D:\Smart-heart-rate-dector\Smart-heart-rate-dector\gagent\libgagent.a(gserver.o)	#SHT_PROGBITS,SHF_ALLOC|SHF_MERGE|SHF_STRINGS,1
	0x4303d1e5		.L.str.110
.rodata.str1.1	0x4303d1fe	0x1c	D:\Smart-heart-rate-dector\Smart-heart-rate-dector\gagent\libgagent.a(gserver.o)	#SHT_PROGBITS,SHF_ALLOC|SHF_MERGE|SHF_STRINGS,1
	0x4303d1fe		.L__FUNCTION__.gatNormalDeviceDisableParse
.rodata.str1.1	0x4303d21a	0x25	D:\Smart-heart-rate-dector\Smart-heart-rate-dector\gagent\libgagent.a(gserver.o)	#SHT_PROGBITS,SHF_ALLOC|SHF_MERGE|SHF_STRINGS,1
	0x4303d21a		.L.str.111
.rodata.str1.1	0x4303d23f	0xd	D:\Smart-heart-rate-dector\Smart-heart-rate-dector\gagent\libgagent.a(gserver.o)	#SHT_PROGBITS,SHF_ALLOC|SHF_MERGE|SHF_STRINGS,1
	0x4303d23f		.L__FUNCTION__.gserverDnsCb
.rodata.str1.1	0x4303d24c	0x29	D:\Smart-heart-rate-dector\Smart-heart-rate-dector\gagent\libgagent.a(gserver.o)	#SHT_PROGBITS,SHF_ALLOC|SHF_MERGE|SHF_STRINGS,1
	0x4303d24c		.L.str.112
.rodata.str1.1	0x4303d275	0x3b	D:\Smart-heart-rate-dector\Smart-heart-rate-dector\gagent\libgagent.a(gserver.o)	#SHT_PROGBITS,SHF_ALLOC|SHF_MERGE|SHF_STRINGS,1
	0x4303d275		.L.str.113
.rodata.str1.1	0x4303d2b0	0x11	D:\Smart-heart-rate-dector\Smart-heart-rate-dector\gagent\libgagent.a(gserver.o)	#SHT_PROGBITS,SHF_ALLOC|SHF_MERGE|SHF_STRINGS,1
	0x4303d2b0		.L__FUNCTION__.gatRegsiterRecCb
.rodata.str1.1	0x4303d2c1	0x2d	D:\Smart-heart-rate-dector\Smart-heart-rate-dector\gagent\libgagent.a(gserver.o)	#SHT_PROGBITS,SHF_ALLOC|SHF_MERGE|SHF_STRINGS,1
	0x4303d2c1		.L.str.114
.rodata.str1.1	0x4303d2ee	0x34	D:\Smart-heart-rate-dector\Smart-heart-rate-dector\gagent\libgagent.a(gserver.o)	#SHT_PROGBITS,SHF_ALLOC|SHF_MERGE|SHF_STRINGS,1
	0x4303d2ee		.L.str.115
.rodata.str1.1	0x4303d322	0x2f	D:\Smart-heart-rate-dector\Smart-heart-rate-dector\gagent\libgagent.a(gserver.o)	#SHT_PROGBITS,SHF_ALLOC|SHF_MERGE|SHF_STRINGS,1
	0x4303d322		.L.str.116
.rodata.str1.1	0x4303d351	0x15	D:\Smart-heart-rate-dector\Smart-heart-rate-dector\gagent\libgagent.a(gserver.o)	#SHT_PROGBITS,SHF_ALLOC|SHF_MERGE|SHF_STRINGS,1
	0x4303d351		.L.str.117
.rodata.str1.1	0x4303d366	0x2f	D:\Smart-heart-rate-dector\Smart-heart-rate-dector\gagent\libgagent.a(gserver.o)	#SHT_PROGBITS,SHF_ALLOC|SHF_MERGE|SHF_STRINGS,1
	0x4303d366		.L.str.118
.rodata.str1.1	0x4303d395	0x26	D:\Smart-heart-rate-dector\Smart-heart-rate-dector\gagent\libgagent.a(gserver.o)	#SHT_PROGBITS,SHF_ALLOC|SHF_MERGE|SHF_STRINGS,1
	0x4303d395		.L.str.119
.rodata.str1.1	0x4303d3bb	0x3b	D:\Smart-heart-rate-dector\Smart-heart-rate-dector\gagent\libgagent.a(gserver.o)	#SHT_PROGBITS,SHF_ALLOC|SHF_MERGE|SHF_STRINGS,1
	0x4303d3bb		.L.str.120
.rodata.str1.1	0x4303d3f6	0x11	D:\Smart-heart-rate-dector\Smart-heart-rate-dector\gagent\libgagent.a(gserver.o)	#SHT_PROGBITS,SHF_ALLOC|SHF_MERGE|SHF_STRINGS,1
	0x4303d3f6		.L__FUNCTION__.gatRegsiterTimer
.rodata.str1.1	0x4303d407	0x4	D:\Smart-heart-rate-dector\Smart-heart-rate-dector\gagent\libgagent.a(gserver.o)	#SHT_PROGBITS,SHF_ALLOC|SHF_MERGE|SHF_STRINGS,1
	0x4303d407		.L.str.121
.rodata.str1.1	0x4303d40b	0x9	D:\Smart-heart-rate-dector\Smart-heart-rate-dector\gagent\libgagent.a(gserver.o)	#SHT_PROGBITS,SHF_ALLOC|SHF_MERGE|SHF_STRINGS,1
	0x4303d40b		.L.str.122
.rodata.str1.1	0x4303d414	0x18	D:\Smart-heart-rate-dector\Smart-heart-rate-dector\gagent\libgagent.a(gserver.o)	#SHT_PROGBITS,SHF_ALLOC|SHF_MERGE|SHF_STRINGS,1
	0x4303d414		.L.str.123
.rodata.str1.1	0x4303d42c	0x11	D:\Smart-heart-rate-dector\Smart-heart-rate-dector\gagent\libgagent.a(gserver.o)	#SHT_PROGBITS,SHF_ALLOC|SHF_MERGE|SHF_STRINGS,1
	0x4303d42c		.L__FUNCTION__.gatRegsiterParse
.rodata.str1.1	0x4303d43d	0x25	D:\Smart-heart-rate-dector\Smart-heart-rate-dector\gagent\libgagent.a(gserver.o)	#SHT_PROGBITS,SHF_ALLOC|SHF_MERGE|SHF_STRINGS,1
	0x4303d43d		.L.str.124
.rodata.str1.1	0x4303d462	0x1e	D:\Smart-heart-rate-dector\Smart-heart-rate-dector\gagent\libgagent.a(gserver.o)	#SHT_PROGBITS,SHF_ALLOC|SHF_MERGE|SHF_STRINGS,1
	0x4303d462		.L.str.125
.rodata.str1.1	0x4303d480	0x1a	D:\Smart-heart-rate-dector\Smart-heart-rate-dector\gagent\libgagent.a(gserver.o)	#SHT_PROGBITS,SHF_ALLOC|SHF_MERGE|SHF_STRINGS,1
	0x4303d480		.L__FUNCTION__.gatGServerHandleGatStatus
.rodata.str1.1	0x4303d49a	0x2d	D:\Smart-heart-rate-dector\Smart-heart-rate-dector\gagent\libgagent.a(gserver.o)	#SHT_PROGBITS,SHF_ALLOC|SHF_MERGE|SHF_STRINGS,1
	0x4303d49a		.L.str.126
.rodata.str1.1	0x4303d4c7	0x26	D:\Smart-heart-rate-dector\Smart-heart-rate-dector\gagent\libgagent.a(gserver.o)	#SHT_PROGBITS,SHF_ALLOC|SHF_MERGE|SHF_STRINGS,1
	0x4303d4c7		.L.str.127
.rodata.str1.1	0x4303d4ed	0x19	D:\Smart-heart-rate-dector\Smart-heart-rate-dector\gagent\libgagent.a(gserver.o)	#SHT_PROGBITS,SHF_ALLOC|SHF_MERGE|SHF_STRINGS,1
	0x4303d4ed		.L.str.128
.rodata.str1.1	0x4303d506	0x29	D:\Smart-heart-rate-dector\Smart-heart-rate-dector\gagent\libgagent.a(gserver.o)	#SHT_PROGBITS,SHF_ALLOC|SHF_MERGE|SHF_STRINGS,1
	0x4303d506		.L.str.129
.rodata.str1.1	0x4303d52f	0x23	D:\Smart-heart-rate-dector\Smart-heart-rate-dector\gagent\libgagent.a(gserver.o)	#SHT_PROGBITS,SHF_ALLOC|SHF_MERGE|SHF_STRINGS,1
	0x4303d52f		.L.str.130
.rodata.str1.1	0x4303d552	0x26	D:\Smart-heart-rate-dector\Smart-heart-rate-dector\gagent\libgagent.a(gserver.o)	#SHT_PROGBITS,SHF_ALLOC|SHF_MERGE|SHF_STRINGS,1
	0x4303d552		.L.str.131
.rodata.str1.1	0x4303d578	0x22	D:\Smart-heart-rate-dector\Smart-heart-rate-dector\gagent\libgagent.a(gserver.o)	#SHT_PROGBITS,SHF_ALLOC|SHF_MERGE|SHF_STRINGS,1
	0x4303d578		.L.str.132
.rodata.str1.1	0x4303d59a	0x1e	D:\Smart-heart-rate-dector\Smart-heart-rate-dector\gagent\libgagent.a(gserver.o)	#SHT_PROGBITS,SHF_ALLOC|SHF_MERGE|SHF_STRINGS,1
	0x4303d59a		.L.str.133
.rodata.str1.1	0x4303d5b8	0x14	D:\Smart-heart-rate-dector\Smart-heart-rate-dector\gagent\libgagent.a(gserver.o)	#SHT_PROGBITS,SHF_ALLOC|SHF_MERGE|SHF_STRINGS,1
	0x4303d5b8		.L__FUNCTION__.gserverExcepTimeout
.rodata.str1.1	0x4303d5cc	0x4b	D:\Smart-heart-rate-dector\Smart-heart-rate-dector\gagent\libgagent.a(gserver.o)	#SHT_PROGBITS,SHF_ALLOC|SHF_MERGE|SHF_STRINGS,1
	0x4303d5cc		.L.str.134
PADDING_ALIGNMENT	0x4303d617	0x1	0x0
.rodata.str1.8	0x4303d618	0xd	D:\Smart-heart-rate-dector\Smart-heart-rate-dector\gagent\libgagent.a(gserver.o)	#SHT_PROGBITS,SHF_ALLOC|SHF_MERGE|SHF_STRINGS,8
	0x4303d618		.L.str.43
.rodata.str1.1	0x4303d625	0x14	D:\Smart-heart-rate-dector\Smart-heart-rate-dector\gagent\libgagent.a(httpgat.o)	#SHT_PROGBITS,SHF_ALLOC|SHF_MERGE|SHF_STRINGS,1
	0x4303d625		.L.str
.rodata.str1.1	0x4303d639	0x13	D:\Smart-heart-rate-dector\Smart-heart-rate-dector\gagent\libgagent.a(httpgat.o)	#SHT_PROGBITS,SHF_ALLOC|SHF_MERGE|SHF_STRINGS,1
	0x4303d639		.L.str.1
.rodata.str1.1	0x4303d64c	0x24	D:\Smart-heart-rate-dector\Smart-heart-rate-dector\gagent\libgagent.a(httpgat.o)	#SHT_PROGBITS,SHF_ALLOC|SHF_MERGE|SHF_STRINGS,1
	0x4303d64c		.L.str.4
.rodata.str1.1	0x4303d670	0x10	D:\Smart-heart-rate-dector\Smart-heart-rate-dector\gagent\libgagent.a(httpgat.o)	#SHT_PROGBITS,SHF_ALLOC|SHF_MERGE|SHF_STRINGS,1
	0x4303d670		.L__FUNCTION__.httpDelSendNode
.rodata.str1.1	0x4303d680	0x23	D:\Smart-heart-rate-dector\Smart-heart-rate-dector\gagent\libgagent.a(httpgat.o)	#SHT_PROGBITS,SHF_ALLOC|SHF_MERGE|SHF_STRINGS,1
	0x4303d680		.L.str.7
.rodata.str1.1	0x4303d6a3	0xf	D:\Smart-heart-rate-dector\Smart-heart-rate-dector\gagent\libgagent.a(httpgat.o)	#SHT_PROGBITS,SHF_ALLOC|SHF_MERGE|SHF_STRINGS,1
	0x4303d6a3		.L__FUNCTION__.httpDelRecNode
.rodata.str1.1	0x4303d6b2	0x2a	D:\Smart-heart-rate-dector\Smart-heart-rate-dector\gagent\libgagent.a(httpgat.o)	#SHT_PROGBITS,SHF_ALLOC|SHF_MERGE|SHF_STRINGS,1
	0x4303d6b2		.L.str.8
.rodata.str1.1	0x4303d6dc	0xa	D:\Smart-heart-rate-dector\Smart-heart-rate-dector\gagent\libgagent.a(httpgat.o)	#SHT_PROGBITS,SHF_ALLOC|SHF_MERGE|SHF_STRINGS,1
	0x4303d6dc		.L__FUNCTION__.httpRecCb
.rodata.str1.1	0x4303d6e6	0x19	D:\Smart-heart-rate-dector\Smart-heart-rate-dector\gagent\libgagent.a(httpgat.o)	#SHT_PROGBITS,SHF_ALLOC|SHF_MERGE|SHF_STRINGS,1
	0x4303d6e6		.L.str.10
.rodata.str1.1	0x4303d6ff	0x28	D:\Smart-heart-rate-dector\Smart-heart-rate-dector\gagent\libgagent.a(httpgat.o)	#SHT_PROGBITS,SHF_ALLOC|SHF_MERGE|SHF_STRINGS,1
	0x4303d6ff		.L.str.11
.rodata.str1.1	0x4303d727	0x2c	D:\Smart-heart-rate-dector\Smart-heart-rate-dector\gagent\libgagent.a(httpgat.o)	#SHT_PROGBITS,SHF_ALLOC|SHF_MERGE|SHF_STRINGS,1
	0x4303d727		.L.str.12
.rodata.str1.1	0x4303d753	0x29	D:\Smart-heart-rate-dector\Smart-heart-rate-dector\gagent\libgagent.a(httpgat.o)	#SHT_PROGBITS,SHF_ALLOC|SHF_MERGE|SHF_STRINGS,1
	0x4303d753		.L.str.13
.rodata.str1.1	0x4303d77c	0xe	D:\Smart-heart-rate-dector\Smart-heart-rate-dector\gagent\libgagent.a(httpgat.o)	#SHT_PROGBITS,SHF_ALLOC|SHF_MERGE|SHF_STRINGS,1
	0x4303d77c		.L.str.14
.rodata.str1.1	0x4303d78a	0x29	D:\Smart-heart-rate-dector\Smart-heart-rate-dector\gagent\libgagent.a(httpgat.o)	#SHT_PROGBITS,SHF_ALLOC|SHF_MERGE|SHF_STRINGS,1
	0x4303d78a		.L.str.15
.rodata.str1.1	0x4303d7b3	0x2a	D:\Smart-heart-rate-dector\Smart-heart-rate-dector\gagent\libgagent.a(httpgat.o)	#SHT_PROGBITS,SHF_ALLOC|SHF_MERGE|SHF_STRINGS,1
	0x4303d7b3		.L.str.16
.rodata.str1.1	0x4303d7dd	0x22	D:\Smart-heart-rate-dector\Smart-heart-rate-dector\gagent\libgagent.a(httpgat.o)	#SHT_PROGBITS,SHF_ALLOC|SHF_MERGE|SHF_STRINGS,1
	0x4303d7dd		.L.str.17
.rodata.str1.1	0x4303d7ff	0x31	D:\Smart-heart-rate-dector\Smart-heart-rate-dector\gagent\libgagent.a(httpgat.o)	#SHT_PROGBITS,SHF_ALLOC|SHF_MERGE|SHF_STRINGS,1
	0x4303d7ff		.L.str.18
.rodata.str1.1	0x4303d830	0x21	D:\Smart-heart-rate-dector\Smart-heart-rate-dector\gagent\libgagent.a(httpgat.o)	#SHT_PROGBITS,SHF_ALLOC|SHF_MERGE|SHF_STRINGS,1
	0x4303d830		.L.str.19
.rodata.str1.1	0x4303d851	0x57	D:\Smart-heart-rate-dector\Smart-heart-rate-dector\gagent\libgagent.a(httpgat.o)	#SHT_PROGBITS,SHF_ALLOC|SHF_MERGE|SHF_STRINGS,1
	0x4303d851		.L.str.20
.rodata.str1.1	0x4303d8a8	0x21	D:\Smart-heart-rate-dector\Smart-heart-rate-dector\gagent\libgagent.a(httpgat.o)	#SHT_PROGBITS,SHF_ALLOC|SHF_MERGE|SHF_STRINGS,1
	0x4303d8a8		.L.str.21
.rodata.str1.1	0x4303d8c9	0x20	D:\Smart-heart-rate-dector\Smart-heart-rate-dector\gagent\libgagent.a(httpgat.o)	#SHT_PROGBITS,SHF_ALLOC|SHF_MERGE|SHF_STRINGS,1
	0x4303d8c9		.L.str.22
.rodata.str1.1	0x4303d8e9	0x22	D:\Smart-heart-rate-dector\Smart-heart-rate-dector\gagent\libgagent.a(httpgat.o)	#SHT_PROGBITS,SHF_ALLOC|SHF_MERGE|SHF_STRINGS,1
	0x4303d8e9		.L.str.23
.rodata.str1.1	0x4303d90b	0xe	D:\Smart-heart-rate-dector\Smart-heart-rate-dector\gagent\libgagent.a(httpgat.o)	#SHT_PROGBITS,SHF_ALLOC|SHF_MERGE|SHF_STRINGS,1
	0x4303d90b		.L__FUNCTION__.httpSigHandle
.rodata.str1.1	0x4303d919	0x17	D:\Smart-heart-rate-dector\Smart-heart-rate-dector\gagent\libgagent.a(httpgat.o)	#SHT_PROGBITS,SHF_ALLOC|SHF_MERGE|SHF_STRINGS,1
	0x4303d919		.L.str.24
.rodata.str1.1	0x4303d930	0x13	D:\Smart-heart-rate-dector\Smart-heart-rate-dector\gagent\libgagent.a(httpgat.o)	#SHT_PROGBITS,SHF_ALLOC|SHF_MERGE|SHF_STRINGS,1
	0x4303d930		.L.str.25
.rodata.str1.1	0x4303d943	0x20	D:\Smart-heart-rate-dector\Smart-heart-rate-dector\gagent\libgagent.a(httpgat.o)	#SHT_PROGBITS,SHF_ALLOC|SHF_MERGE|SHF_STRINGS,1
	0x4303d943		.L.str.26
.rodata.str1.1	0x4303d963	0x16	D:\Smart-heart-rate-dector\Smart-heart-rate-dector\gagent\libgagent.a(httpgat.o)	#SHT_PROGBITS,SHF_ALLOC|SHF_MERGE|SHF_STRINGS,1
	0x4303d963		.L.str.27
.rodata.str1.1	0x4303d979	0xb	D:\Smart-heart-rate-dector\Smart-heart-rate-dector\gagent\libgagent.a(httpgat.o)	#SHT_PROGBITS,SHF_ALLOC|SHF_MERGE|SHF_STRINGS,1
	0x4303d979		.L__FUNCTION__.httpConnCb
.rodata.str1.1	0x4303d984	0x1e	D:\Smart-heart-rate-dector\Smart-heart-rate-dector\gagent\libgagent.a(httpgat.o)	#SHT_PROGBITS,SHF_ALLOC|SHF_MERGE|SHF_STRINGS,1
	0x4303d984		.L.str.28
.rodata.str1.1	0x4303d9a2	0x30	D:\Smart-heart-rate-dector\Smart-heart-rate-dector\gagent\libgagent.a(httpgat.o)	#SHT_PROGBITS,SHF_ALLOC|SHF_MERGE|SHF_STRINGS,1
	0x4303d9a2		.L.str.29
.rodata.str1.1	0x4303d9d2	0x26	D:\Smart-heart-rate-dector\Smart-heart-rate-dector\gagent\libgagent.a(httpgat.o)	#SHT_PROGBITS,SHF_ALLOC|SHF_MERGE|SHF_STRINGS,1
	0x4303d9d2		.L.str.30
.rodata.str1.1	0x4303d9f8	0x17	D:\Smart-heart-rate-dector\Smart-heart-rate-dector\gagent\libgagent.a(httpgat.o)	#SHT_PROGBITS,SHF_ALLOC|SHF_MERGE|SHF_STRINGS,1
	0x4303d9f8		.L.str.31
.rodata.str1.1	0x4303da0f	0x1e	D:\Smart-heart-rate-dector\Smart-heart-rate-dector\gagent\libgagent.a(httpgat.o)	#SHT_PROGBITS,SHF_ALLOC|SHF_MERGE|SHF_STRINGS,1
	0x4303da0f		.L.str.32
.rodata.str1.1	0x4303da2d	0x1a	D:\Smart-heart-rate-dector\Smart-heart-rate-dector\gagent\libgagent.a(httpgat.o)	#SHT_PROGBITS,SHF_ALLOC|SHF_MERGE|SHF_STRINGS,1
	0x4303da2d		.L.str.33
.rodata.str1.1	0x4303da47	0xb	D:\Smart-heart-rate-dector\Smart-heart-rate-dector\gagent\libgagent.a(httpgat.o)	#SHT_PROGBITS,SHF_ALLOC|SHF_MERGE|SHF_STRINGS,1
	0x4303da47		.L__FUNCTION__.httpSendCb
.rodata.str1.1	0x4303da52	0x1d	D:\Smart-heart-rate-dector\Smart-heart-rate-dector\gagent\libgagent.a(httpgat.o)	#SHT_PROGBITS,SHF_ALLOC|SHF_MERGE|SHF_STRINGS,1
	0x4303da52		.L.str.34
.rodata.str1.1	0x4303da6f	0x20	D:\Smart-heart-rate-dector\Smart-heart-rate-dector\gagent\libgagent.a(httpgat.o)	#SHT_PROGBITS,SHF_ALLOC|SHF_MERGE|SHF_STRINGS,1
	0x4303da6f		.L.str.35
.rodata.str1.1	0x4303da8f	0xb	D:\Smart-heart-rate-dector\Smart-heart-rate-dector\gagent\libgagent.a(httpgat.o)	#SHT_PROGBITS,SHF_ALLOC|SHF_MERGE|SHF_STRINGS,1
	0x4303da8f		.L__FUNCTION__.gatHttpReq
.rodata.str1.1	0x4303da9a	0x2c	D:\Smart-heart-rate-dector\Smart-heart-rate-dector\gagent\libgagent.a(httpgat.o)	#SHT_PROGBITS,SHF_ALLOC|SHF_MERGE|SHF_STRINGS,1
	0x4303da9a		.L.str.36
.rodata.str1.1	0x4303dac6	0x32	D:\Smart-heart-rate-dector\Smart-heart-rate-dector\gagent\libgagent.a(httpgat.o)	#SHT_PROGBITS,SHF_ALLOC|SHF_MERGE|SHF_STRINGS,1
	0x4303dac6		.L.str.37
.rodata.str1.1	0x4303daf8	0x21	D:\Smart-heart-rate-dector\Smart-heart-rate-dector\gagent\libgagent.a(httpgat.o)	#SHT_PROGBITS,SHF_ALLOC|SHF_MERGE|SHF_STRINGS,1
	0x4303daf8		.L.str.38
.rodata.str1.1	0x4303db19	0x38	D:\Smart-heart-rate-dector\Smart-heart-rate-dector\gagent\libgagent.a(httpgat.o)	#SHT_PROGBITS,SHF_ALLOC|SHF_MERGE|SHF_STRINGS,1
	0x4303db19		.L.str.39
.rodata.str1.1	0x4303db51	0x19	D:\Smart-heart-rate-dector\Smart-heart-rate-dector\gagent\libgagent.a(httpgat.o)	#SHT_PROGBITS,SHF_ALLOC|SHF_MERGE|SHF_STRINGS,1
	0x4303db51		.L.str.40
.rodata.str1.1	0x4303db6a	0x2a	D:\Smart-heart-rate-dector\Smart-heart-rate-dector\gagent\libgagent.a(httpgat.o)	#SHT_PROGBITS,SHF_ALLOC|SHF_MERGE|SHF_STRINGS,1
	0x4303db6a		.L.str.46
.rodata.str1.1	0x4303db94	0x17	D:\Smart-heart-rate-dector\Smart-heart-rate-dector\gagent\libgagent.a(httpgat.o)	#SHT_PROGBITS,SHF_ALLOC|SHF_MERGE|SHF_STRINGS,1
	0x4303db94		.L__FUNCTION__.httpPostContextAdapter
.rodata.str1.1	0x4303dbab	0x10	D:\Smart-heart-rate-dector\Smart-heart-rate-dector\gagent\libgagent.a(httpgat.o)	#SHT_PROGBITS,SHF_ALLOC|SHF_MERGE|SHF_STRINGS,1
	0x4303dbab		.L__FUNCTION__.httpRecNodeInit
.rodata.str1.1	0x4303dbbb	0x22	D:\Smart-heart-rate-dector\Smart-heart-rate-dector\gagent\libgagent.a(httpgat.o)	#SHT_PROGBITS,SHF_ALLOC|SHF_MERGE|SHF_STRINGS,1
	0x4303dbbb		.L.str.47
.rodata.str1.1	0x4303dbdd	0x64	D:\Smart-heart-rate-dector\Smart-heart-rate-dector\gagent\libgagent.a(httpgat.o)	#SHT_PROGBITS,SHF_ALLOC|SHF_MERGE|SHF_STRINGS,1
	0x4303dbdd		.L.str.48
.rodata.str1.1	0x4303dc41	0x68	D:\Smart-heart-rate-dector\Smart-heart-rate-dector\gagent\libgagent.a(httpgat.o)	#SHT_PROGBITS,SHF_ALLOC|SHF_MERGE|SHF_STRINGS,1
	0x4303dc41		.L.str.49
.rodata.str1.1	0x4303dca9	0x68	D:\Smart-heart-rate-dector\Smart-heart-rate-dector\gagent\libgagent.a(httpgat.o)	#SHT_PROGBITS,SHF_ALLOC|SHF_MERGE|SHF_STRINGS,1
	0x4303dca9		.L.str.50
.rodata.str1.1	0x4303dd11	0x42	D:\Smart-heart-rate-dector\Smart-heart-rate-dector\gagent\libgagent.a(httpgat.o)	#SHT_PROGBITS,SHF_ALLOC|SHF_MERGE|SHF_STRINGS,1
	0x4303dd11		.L.str.51
.rodata.str1.1	0x4303dd53	0x45	D:\Smart-heart-rate-dector\Smart-heart-rate-dector\gagent\libgagent.a(httpgat.o)	#SHT_PROGBITS,SHF_ALLOC|SHF_MERGE|SHF_STRINGS,1
	0x4303dd53		.L.str.52
.rodata.str1.1	0x4303dd98	0x9	D:\Smart-heart-rate-dector\Smart-heart-rate-dector\gagent\libgagent.a(httpgat.o)	#SHT_PROGBITS,SHF_ALLOC|SHF_MERGE|SHF_STRINGS,1
	0x4303dd98		.L__FUNCTION__.httpBody
.rodata.str1.1	0x4303dda1	0x2c	D:\Smart-heart-rate-dector\Smart-heart-rate-dector\gagent\libgagent.a(httpgat.o)	#SHT_PROGBITS,SHF_ALLOC|SHF_MERGE|SHF_STRINGS,1
	0x4303dda1		.L.str.53
.rodata.str1.1	0x4303ddcd	0x25	D:\Smart-heart-rate-dector\Smart-heart-rate-dector\gagent\libgagent.a(httpgat.o)	#SHT_PROGBITS,SHF_ALLOC|SHF_MERGE|SHF_STRINGS,1
	0x4303ddcd		.L.str.54
.rodata.str1.1	0x4303ddf2	0x37	D:\Smart-heart-rate-dector\Smart-heart-rate-dector\gagent\libgagent.a(httpgat.o)	#SHT_PROGBITS,SHF_ALLOC|SHF_MERGE|SHF_STRINGS,1
	0x4303ddf2		.L.str.55
.rodata.str1.1	0x4303de29	0x2d	D:\Smart-heart-rate-dector\Smart-heart-rate-dector\gagent\libgagent.a(httpgat.o)	#SHT_PROGBITS,SHF_ALLOC|SHF_MERGE|SHF_STRINGS,1
	0x4303de29		.L.str.56
.rodata.str1.1	0x4303de56	0x31	D:\Smart-heart-rate-dector\Smart-heart-rate-dector\gagent\libgagent.a(httpgat.o)	#SHT_PROGBITS,SHF_ALLOC|SHF_MERGE|SHF_STRINGS,1
	0x4303de56		.L.str.57
.rodata.str1.1	0x4303de87	0x3f	D:\Smart-heart-rate-dector\Smart-heart-rate-dector\gagent\libgagent.a(httpgat.o)	#SHT_PROGBITS,SHF_ALLOC|SHF_MERGE|SHF_STRINGS,1
	0x4303de87		.L.str.58
.rodata.str1.1	0x4303dec6	0x27	D:\Smart-heart-rate-dector\Smart-heart-rate-dector\gagent\libgagent.a(httpgat.o)	#SHT_PROGBITS,SHF_ALLOC|SHF_MERGE|SHF_STRINGS,1
	0x4303dec6		.L.str.59
.rodata.str1.1	0x4303deed	0x25	D:\Smart-heart-rate-dector\Smart-heart-rate-dector\gagent\libgagent.a(httpgat.o)	#SHT_PROGBITS,SHF_ALLOC|SHF_MERGE|SHF_STRINGS,1
	0x4303deed		.L.str.60
.rodata.str1.1	0x4303df12	0x4b	D:\Smart-heart-rate-dector\Smart-heart-rate-dector\gagent\libgagent.a(httpgat.o)	#SHT_PROGBITS,SHF_ALLOC|SHF_MERGE|SHF_STRINGS,1
	0x4303df12		.L.str.61
.rodata.str1.1	0x4303df5d	0x25	D:\Smart-heart-rate-dector\Smart-heart-rate-dector\gagent\libgagent.a(httpgat.o)	#SHT_PROGBITS,SHF_ALLOC|SHF_MERGE|SHF_STRINGS,1
	0x4303df5d		.L.str.62
.rodata.str1.1	0x4303df82	0x26	D:\Smart-heart-rate-dector\Smart-heart-rate-dector\gagent\libgagent.a(httpgat.o)	#SHT_PROGBITS,SHF_ALLOC|SHF_MERGE|SHF_STRINGS,1
	0x4303df82		.L.str.63
.rodata.str1.1	0x4303dfa8	0xf	D:\Smart-heart-rate-dector\Smart-heart-rate-dector\gagent\libgagent.a(httpgat.o)	#SHT_PROGBITS,SHF_ALLOC|SHF_MERGE|SHF_STRINGS,1
	0x4303dfa8		.L__FUNCTION__.httpBodyUserCb
.rodata.str1.1	0x4303dfb7	0x22	D:\Smart-heart-rate-dector\Smart-heart-rate-dector\gagent\libgagent.a(httpgat.o)	#SHT_PROGBITS,SHF_ALLOC|SHF_MERGE|SHF_STRINGS,1
	0x4303dfb7		.L.str.64
.rodata.str1.1	0x4303dfd9	0x1a	D:\Smart-heart-rate-dector\Smart-heart-rate-dector\gagent\libgagent.a(httpgat.o)	#SHT_PROGBITS,SHF_ALLOC|SHF_MERGE|SHF_STRINGS,1
	0x4303dfd9		.L.str.65
.rodata.str1.1	0x4303dff3	0xe	D:\Smart-heart-rate-dector\Smart-heart-rate-dector\gagent\libgagent.a(httpgat.o)	#SHT_PROGBITS,SHF_ALLOC|SHF_MERGE|SHF_STRINGS,1
	0x4303dff3		.L__FUNCTION__.httpParseHead
.rodata.str1.1	0x4303e001	0x17	D:\Smart-heart-rate-dector\Smart-heart-rate-dector\gagent\libgagent.a(httpgat.o)	#SHT_PROGBITS,SHF_ALLOC|SHF_MERGE|SHF_STRINGS,1
	0x4303e001		.L.str.66
.rodata.str1.1	0x4303e018	0x13	D:\Smart-heart-rate-dector\Smart-heart-rate-dector\gagent\libgagent.a(httpgat.o)	#SHT_PROGBITS,SHF_ALLOC|SHF_MERGE|SHF_STRINGS,1
	0x4303e018		.L.str.67
.rodata.str1.1	0x4303e02b	0x10	D:\Smart-heart-rate-dector\Smart-heart-rate-dector\gagent\libgagent.a(httpgat.o)	#SHT_PROGBITS,SHF_ALLOC|SHF_MERGE|SHF_STRINGS,1
	0x4303e02b		.L.str.68
.rodata.str1.1	0x4303e03b	0x26	D:\Smart-heart-rate-dector\Smart-heart-rate-dector\gagent\libgagent.a(httpgat.o)	#SHT_PROGBITS,SHF_ALLOC|SHF_MERGE|SHF_STRINGS,1
	0x4303e03b		.L.str.69
.rodata.str1.1	0x4303e061	0x1a	D:\Smart-heart-rate-dector\Smart-heart-rate-dector\gagent\libgagent.a(httpgat.o)	#SHT_PROGBITS,SHF_ALLOC|SHF_MERGE|SHF_STRINGS,1
	0x4303e061		.L.str.70
.rodata.str1.1	0x4303e07b	0x26	D:\Smart-heart-rate-dector\Smart-heart-rate-dector\gagent\libgagent.a(httpgat.o)	#SHT_PROGBITS,SHF_ALLOC|SHF_MERGE|SHF_STRINGS,1
	0x4303e07b		.L.str.71
.rodata.str1.1	0x4303e0a1	0x25	D:\Smart-heart-rate-dector\Smart-heart-rate-dector\gagent\libgagent.a(httpgat.o)	#SHT_PROGBITS,SHF_ALLOC|SHF_MERGE|SHF_STRINGS,1
	0x4303e0a1		.L.str.72
.rodata.str1.1	0x4303e0c6	0x1b	D:\Smart-heart-rate-dector\Smart-heart-rate-dector\gagent\libgagent.a(httpgat.o)	#SHT_PROGBITS,SHF_ALLOC|SHF_MERGE|SHF_STRINGS,1
	0x4303e0c6		.L.str.73
.rodata.str1.1	0x4303e0e1	0x10	D:\Smart-heart-rate-dector\Smart-heart-rate-dector\gagent\libgagent.a(httpgat.o)	#SHT_PROGBITS,SHF_ALLOC|SHF_MERGE|SHF_STRINGS,1
	0x4303e0e1		.L__FUNCTION__.gatHTTPRecvTick
.rodata.str1.1	0x4303e0f1	0x1b	D:\Smart-heart-rate-dector\Smart-heart-rate-dector\gagent\libgagent.a(ioffile.o)	#SHT_PROGBITS,SHF_ALLOC|SHF_MERGE|SHF_STRINGS,1
	0x4303e0f1		.L.str.2
.rodata.str1.1	0x4303e10c	0xc	D:\Smart-heart-rate-dector\Smart-heart-rate-dector\gagent\libgagent.a(ioffile.o)	#SHT_PROGBITS,SHF_ALLOC|SHF_MERGE|SHF_STRINGS,1
	0x4303e10c		.L__FUNCTION__.iofFileOpen
.rodata.str1.1	0x4303e118	0x1a	D:\Smart-heart-rate-dector\Smart-heart-rate-dector\gagent\libgagent.a(ioffile.o)	#SHT_PROGBITS,SHF_ALLOC|SHF_MERGE|SHF_STRINGS,1
	0x4303e118		.L.str.3
.rodata.str1.1	0x4303e132	0x2b	D:\Smart-heart-rate-dector\Smart-heart-rate-dector\gagent\libgagent.a(ioffile.o)	#SHT_PROGBITS,SHF_ALLOC|SHF_MERGE|SHF_STRINGS,1
	0x4303e132		.L.str.4
.rodata.str1.1	0x4303e15d	0x20	D:\Smart-heart-rate-dector\Smart-heart-rate-dector\gagent\libgagent.a(ioffile.o)	#SHT_PROGBITS,SHF_ALLOC|SHF_MERGE|SHF_STRINGS,1
	0x4303e15d		.L.str.5
.rodata.str1.1	0x4303e17d	0x28	D:\Smart-heart-rate-dector\Smart-heart-rate-dector\gagent\libgagent.a(ioffile.o)	#SHT_PROGBITS,SHF_ALLOC|SHF_MERGE|SHF_STRINGS,1
	0x4303e17d		.L.str.6
.rodata.str1.1	0x4303e1a5	0xd	D:\Smart-heart-rate-dector\Smart-heart-rate-dector\gagent\libgagent.a(ioffile.o)	#SHT_PROGBITS,SHF_ALLOC|SHF_MERGE|SHF_STRINGS,1
	0x4303e1a5		.L__FUNCTION__.iofFileClose
.rodata.str1.1	0x4303e1b2	0xc	D:\Smart-heart-rate-dector\Smart-heart-rate-dector\gagent\libgagent.a(ioffile.o)	#SHT_PROGBITS,SHF_ALLOC|SHF_MERGE|SHF_STRINGS,1
	0x4303e1b2		.L__FUNCTION__.iofFileRead
.rodata.str1.1	0x4303e1be	0x20	D:\Smart-heart-rate-dector\Smart-heart-rate-dector\gagent\libgagent.a(ioffile.o)	#SHT_PROGBITS,SHF_ALLOC|SHF_MERGE|SHF_STRINGS,1
	0x4303e1be		.L.str.7
.rodata.str1.1	0x4303e1de	0xd	D:\Smart-heart-rate-dector\Smart-heart-rate-dector\gagent\libgagent.a(ioffile.o)	#SHT_PROGBITS,SHF_ALLOC|SHF_MERGE|SHF_STRINGS,1
	0x4303e1de		.L__FUNCTION__.iofFileWrite
.rodata.str1.1	0x4303e1eb	0x1d	D:\Smart-heart-rate-dector\Smart-heart-rate-dector\gagent\libgagent.a(ioffile.o)	#SHT_PROGBITS,SHF_ALLOC|SHF_MERGE|SHF_STRINGS,1
	0x4303e1eb		.L.str.9
.rodata.str1.1	0x4303e208	0x20	D:\Smart-heart-rate-dector\Smart-heart-rate-dector\gagent\libgagent.a(ioffile.o)	#SHT_PROGBITS,SHF_ALLOC|SHF_MERGE|SHF_STRINGS,1
	0x4303e208		.L.str.10
.rodata.str1.1	0x4303e228	0x14	D:\Smart-heart-rate-dector\Smart-heart-rate-dector\gagent\libgagent.a(ioffile.o)	#SHT_PROGBITS,SHF_ALLOC|SHF_MERGE|SHF_STRINGS,1
	0x4303e228		.L.str.11
.rodata.str1.1	0x4303e23c	0xd	D:\Smart-heart-rate-dector\Smart-heart-rate-dector\gagent\libgagent.a(ioffile.o)	#SHT_PROGBITS,SHF_ALLOC|SHF_MERGE|SHF_STRINGS,1
	0x4303e23c		.L__FUNCTION__.iofFileErase
.rodata.str1.1	0x4303e249	0x19	D:\Smart-heart-rate-dector\Smart-heart-rate-dector\gagent\libgagent.a(ioffile.o)	#SHT_PROGBITS,SHF_ALLOC|SHF_MERGE|SHF_STRINGS,1
	0x4303e249		.L.str.12
.rodata.str1.1	0x4303e262	0x21	D:\Smart-heart-rate-dector\Smart-heart-rate-dector\gagent\libgagent.a(ioffile.o)	#SHT_PROGBITS,SHF_ALLOC|SHF_MERGE|SHF_STRINGS,1
	0x4303e262		.L__FUNCTION__.iofFileProductInfoTransformation
.rodata.str1.1	0x4303e283	0x1e	D:\Smart-heart-rate-dector\Smart-heart-rate-dector\gagent\libgagent.a(ioffile.o)	#SHT_PROGBITS,SHF_ALLOC|SHF_MERGE|SHF_STRINGS,1
	0x4303e283		.L.str.13
.rodata.str1.1	0x4303e2a1	0x3	D:\Smart-heart-rate-dector\Smart-heart-rate-dector\gagent\libgagent.a(ioffile.o)	#SHT_PROGBITS,SHF_ALLOC|SHF_MERGE|SHF_STRINGS,1
	0x4303e2a1		.L.str.15
.rodata.str1.1	0x4303e2a4	0x27	D:\Smart-heart-rate-dector\Smart-heart-rate-dector\gagent\libgagent.a(ioffile.o)	#SHT_PROGBITS,SHF_ALLOC|SHF_MERGE|SHF_STRINGS,1
	0x4303e2a4		.L.str.16
.rodata.str1.1	0x4303e2cb	0x24	D:\Smart-heart-rate-dector\Smart-heart-rate-dector\gagent\libgagent.a(ioffile.o)	#SHT_PROGBITS,SHF_ALLOC|SHF_MERGE|SHF_STRINGS,1
	0x4303e2cb		.L.str.17
.rodata.str1.1	0x4303e2ef	0x2f	D:\Smart-heart-rate-dector\Smart-heart-rate-dector\gagent\libgagent.a(ioffile.o)	#SHT_PROGBITS,SHF_ALLOC|SHF_MERGE|SHF_STRINGS,1
	0x4303e2ef		.L.str.18
.rodata.str1.1	0x4303e31e	0x80	D:\Smart-heart-rate-dector\Smart-heart-rate-dector\gagent\libgagent.a(ioffile.o)	#SHT_PROGBITS,SHF_ALLOC|SHF_MERGE|SHF_STRINGS,1
	0x4303e31e		.L.str.19
.rodata.str1.1	0x4303e39e	0x20	D:\Smart-heart-rate-dector\Smart-heart-rate-dector\gagent\libgagent.a(ioffile.o)	#SHT_PROGBITS,SHF_ALLOC|SHF_MERGE|SHF_STRINGS,1
	0x4303e39e		.L.str.20
.rodata.str1.1	0x4303e3be	0x12	D:\Smart-heart-rate-dector\Smart-heart-rate-dector\gagent\libgagent.a(ioffile.o)	#SHT_PROGBITS,SHF_ALLOC|SHF_MERGE|SHF_STRINGS,1
	0x4303e3be		.L.str.21
.rodata.str1.1	0x4303e3d0	0x25	D:\Smart-heart-rate-dector\Smart-heart-rate-dector\gagent\libgagent.a(ioffile.o)	#SHT_PROGBITS,SHF_ALLOC|SHF_MERGE|SHF_STRINGS,1
	0x4303e3d0		.L.str.22
.rodata.str1.1	0x4303e3f5	0x1b	D:\Smart-heart-rate-dector\Smart-heart-rate-dector\gagent\libgagent.a(ioffile.o)	#SHT_PROGBITS,SHF_ALLOC|SHF_MERGE|SHF_STRINGS,1
	0x4303e3f5		.L.str.23
.rodata.str1.1	0x4303e410	0x44	D:\Smart-heart-rate-dector\Smart-heart-rate-dector\gagent\libgagent.a(ioffile.o)	#SHT_PROGBITS,SHF_ALLOC|SHF_MERGE|SHF_STRINGS,1
	0x4303e410		.L.str.24
.rodata.str1.1	0x4303e454	0x1b	D:\Smart-heart-rate-dector\Smart-heart-rate-dector\gagent\libgagent.a(ioffile.o)	#SHT_PROGBITS,SHF_ALLOC|SHF_MERGE|SHF_STRINGS,1
	0x4303e454		.L.str.25
.rodata.str1.1	0x4303e46f	0x8	D:\Smart-heart-rate-dector\Smart-heart-rate-dector\gagent\libgagent.a(ioffile.o)	#SHT_PROGBITS,SHF_ALLOC|SHF_MERGE|SHF_STRINGS,1
	0x4303e46f		.L.str.26
.rodata.str1.1	0x4303e477	0x6	D:\Smart-heart-rate-dector\Smart-heart-rate-dector\gagent\libgagent.a(iofnet.o)	#SHT_PROGBITS,SHF_ALLOC|SHF_MERGE|SHF_STRINGS,1
	0x4303e477		.L.str
.rodata.str1.1	0x4303e47d	0x9	D:\Smart-heart-rate-dector\Smart-heart-rate-dector\gagent\libgagent.a(iofnet.o)	#SHT_PROGBITS,SHF_ALLOC|SHF_MERGE|SHF_STRINGS,1
	0x4303e47d		.L.str.1
.rodata.str1.1	0x4303e486	0x19	D:\Smart-heart-rate-dector\Smart-heart-rate-dector\gagent\libgagent.a(iofnet.o)	#SHT_PROGBITS,SHF_ALLOC|SHF_MERGE|SHF_STRINGS,1
	0x4303e486		.L.str.4
.rodata.str1.1	0x4303e49f	0x12	D:\Smart-heart-rate-dector\Smart-heart-rate-dector\gagent\libgagent.a(iofnet.o)	#SHT_PROGBITS,SHF_ALLOC|SHF_MERGE|SHF_STRINGS,1
	0x4303e49f		.L__FUNCTION__.gatNetSoftApStart
.rodata.str1.1	0x4303e4b1	0x2b	D:\Smart-heart-rate-dector\Smart-heart-rate-dector\gagent\libgagent.a(iofnet.o)	#SHT_PROGBITS,SHF_ALLOC|SHF_MERGE|SHF_STRINGS,1
	0x4303e4b1		.L.str.5
.rodata.str1.1	0x4303e4dc	0x2b	D:\Smart-heart-rate-dector\Smart-heart-rate-dector\gagent\libgagent.a(iofnet.o)	#SHT_PROGBITS,SHF_ALLOC|SHF_MERGE|SHF_STRINGS,1
	0x4303e4dc		.L.str.8
.rodata.str1.1	0x4303e507	0x30	D:\Smart-heart-rate-dector\Smart-heart-rate-dector\gagent\libgagent.a(iofnet.o)	#SHT_PROGBITS,SHF_ALLOC|SHF_MERGE|SHF_STRINGS,1
	0x4303e507		.L.str.9
.rodata.str1.1	0x4303e537	0x24	D:\Smart-heart-rate-dector\Smart-heart-rate-dector\gagent\libgagent.a(iofnet.o)	#SHT_PROGBITS,SHF_ALLOC|SHF_MERGE|SHF_STRINGS,1
	0x4303e537		.L.str.10
.rodata.str1.1	0x4303e55b	0x15	D:\Smart-heart-rate-dector\Smart-heart-rate-dector\gagent\libgagent.a(iofnet.o)	#SHT_PROGBITS,SHF_ALLOC|SHF_MERGE|SHF_STRINGS,1
	0x4303e55b		.L.str.11
.rodata.str1.1	0x4303e570	0xe	D:\Smart-heart-rate-dector\Smart-heart-rate-dector\gagent\libgagent.a(iofnet.o)	#SHT_PROGBITS,SHF_ALLOC|SHF_MERGE|SHF_STRINGS,1
	0x4303e570		.L__FUNCTION__.gatIofNetInit
.rodata.str1.1	0x4303e57e	0x1a	D:\Smart-heart-rate-dector\Smart-heart-rate-dector\gagent\libgagent.a(iofnet.o)	#SHT_PROGBITS,SHF_ALLOC|SHF_MERGE|SHF_STRINGS,1
	0x4303e57e		.L.str.12
.rodata.str1.1	0x4303e598	0x17	D:\Smart-heart-rate-dector\Smart-heart-rate-dector\gagent\libgagent.a(iofnet.o)	#SHT_PROGBITS,SHF_ALLOC|SHF_MERGE|SHF_STRINGS,1
	0x4303e598		.L.str.13
.rodata.str1.1	0x4303e5af	0x12	D:\Smart-heart-rate-dector\Smart-heart-rate-dector\gagent\libgagent.a(iofnet.o)	#SHT_PROGBITS,SHF_ALLOC|SHF_MERGE|SHF_STRINGS,1
	0x4303e5af		.L.str.14
.rodata.str1.1	0x4303e5c1	0x11	D:\Smart-heart-rate-dector\Smart-heart-rate-dector\gagent\libgagent.a(iofnet.o)	#SHT_PROGBITS,SHF_ALLOC|SHF_MERGE|SHF_STRINGS,1
	0x4303e5c1		.L__FUNCTION__.gatIofNetGetRssi
.rodata.str1.1	0x4303e5d2	0x1d	D:\Smart-heart-rate-dector\Smart-heart-rate-dector\gagent\libgagent.a(iofnet.o)	#SHT_PROGBITS,SHF_ALLOC|SHF_MERGE|SHF_STRINGS,1
	0x4303e5d2		.L.str.15
.rodata.str1.1	0x4303e5ef	0xc	D:\Smart-heart-rate-dector\Smart-heart-rate-dector\gagent\libgagent.a(iofnet.o)	#SHT_PROGBITS,SHF_ALLOC|SHF_MERGE|SHF_STRINGS,1
	0x4303e5ef		.L__FUNCTION__.iofWifiScan
.rodata.str1.1	0x4303e5fb	0x20	D:\Smart-heart-rate-dector\Smart-heart-rate-dector\gagent\libgagent.a(iofnet.o)	#SHT_PROGBITS,SHF_ALLOC|SHF_MERGE|SHF_STRINGS,1
	0x4303e5fb		.L.str.17
.rodata.str1.1	0x4303e61b	0x10	D:\Smart-heart-rate-dector\Smart-heart-rate-dector\gagent\libgagent.a(iofnet.o)	#SHT_PROGBITS,SHF_ALLOC|SHF_MERGE|SHF_STRINGS,1
	0x4303e61b		.L__FUNCTION__.gatNetStartScan
.rodata.str1.1	0x4303e62b	0x24	D:\Smart-heart-rate-dector\Smart-heart-rate-dector\gagent\libgagent.a(iofnet.o)	#SHT_PROGBITS,SHF_ALLOC|SHF_MERGE|SHF_STRINGS,1
	0x4303e62b		.L.str.18
.rodata.str1.1	0x4303e64f	0x26	D:\Smart-heart-rate-dector\Smart-heart-rate-dector\gagent\libgagent.a(iofnet.o)	#SHT_PROGBITS,SHF_ALLOC|SHF_MERGE|SHF_STRINGS,1
	0x4303e64f		.L.str.19
.rodata.str1.1	0x4303e675	0x1e	D:\Smart-heart-rate-dector\Smart-heart-rate-dector\gagent\libgagent.a(iofnet.o)	#SHT_PROGBITS,SHF_ALLOC|SHF_MERGE|SHF_STRINGS,1
	0x4303e675		.L.str.20
.rodata.str1.1	0x4303e693	0x26	D:\Smart-heart-rate-dector\Smart-heart-rate-dector\gagent\libgagent.a(iofnet.o)	#SHT_PROGBITS,SHF_ALLOC|SHF_MERGE|SHF_STRINGS,1
	0x4303e693		.L.str.21
.rodata.str1.1	0x4303e6b9	0x11	D:\Smart-heart-rate-dector\Smart-heart-rate-dector\gagent\libgagent.a(iofnet.o)	#SHT_PROGBITS,SHF_ALLOC|SHF_MERGE|SHF_STRINGS,1
	0x4303e6b9		.L__FUNCTION__.iofGetHostByName
.rodata.str1.1	0x4303e6ca	0x1b	D:\Smart-heart-rate-dector\Smart-heart-rate-dector\gagent\libgagent.a(iofnet.o)	#SHT_PROGBITS,SHF_ALLOC|SHF_MERGE|SHF_STRINGS,1
	0x4303e6ca		.L.str.22
.rodata.str1.1	0x4303e6e5	0x14	D:\Smart-heart-rate-dector\Smart-heart-rate-dector\gagent\libgagent.a(iofnet.o)	#SHT_PROGBITS,SHF_ALLOC|SHF_MERGE|SHF_STRINGS,1
	0x4303e6e5		.L__FUNCTION__.iofGatGetHostByName
.rodata.str1.1	0x4303e6f9	0x8	D:\Smart-heart-rate-dector\Smart-heart-rate-dector\gagent\libgagent.a(iofnet.o)	#SHT_PROGBITS,SHF_ALLOC|SHF_MERGE|SHF_STRINGS,1
	0x4303e6f9		.L.str.23
.rodata.str1.1	0x4303e701	0x10	D:\Smart-heart-rate-dector\Smart-heart-rate-dector\gagent\libgagent.a(iofnet.o)	#SHT_PROGBITS,SHF_ALLOC|SHF_MERGE|SHF_STRINGS,1
	0x4303e701		.L__FUNCTION__.iofNetDnsHandle
.rodata.str1.1	0x4303e711	0x1e	D:\Smart-heart-rate-dector\Smart-heart-rate-dector\gagent\libgagent.a(iofnet.o)	#SHT_PROGBITS,SHF_ALLOC|SHF_MERGE|SHF_STRINGS,1
	0x4303e711		.L.str.24
.rodata.str1.1	0x4303e72f	0x16	D:\Smart-heart-rate-dector\Smart-heart-rate-dector\gagent\libgagent.a(iofnet.o)	#SHT_PROGBITS,SHF_ALLOC|SHF_MERGE|SHF_STRINGS,1
	0x4303e72f		.L.str.25
.rodata.str1.1	0x4303e745	0x17	D:\Smart-heart-rate-dector\Smart-heart-rate-dector\gagent\libgagent.a(iofnet.o)	#SHT_PROGBITS,SHF_ALLOC|SHF_MERGE|SHF_STRINGS,1
	0x4303e745		.L.str.26
.rodata.str1.1	0x4303e75c	0x33	D:\Smart-heart-rate-dector\Smart-heart-rate-dector\gagent\libgagent.a(iofnet.o)	#SHT_PROGBITS,SHF_ALLOC|SHF_MERGE|SHF_STRINGS,1
	0x4303e75c		.L.str.27
.rodata.str1.1	0x4303e78f	0x1e	D:\Smart-heart-rate-dector\Smart-heart-rate-dector\gagent\libgagent.a(iofnet.o)	#SHT_PROGBITS,SHF_ALLOC|SHF_MERGE|SHF_STRINGS,1
	0x4303e78f		.L.str.28
.rodata.str1.1	0x4303e7ad	0x34	D:\Smart-heart-rate-dector\Smart-heart-rate-dector\gagent\libgagent.a(iofnet.o)	#SHT_PROGBITS,SHF_ALLOC|SHF_MERGE|SHF_STRINGS,1
	0x4303e7ad		.L.str.29
.rodata.str1.1	0x4303e7e1	0xc	D:\Smart-heart-rate-dector\Smart-heart-rate-dector\gagent\libgagent.a(iofnet.o)	#SHT_PROGBITS,SHF_ALLOC|SHF_MERGE|SHF_STRINGS,1
	0x4303e7e1		.L.str.30
.rodata.str1.1	0x4303e7ed	0x22	D:\Smart-heart-rate-dector\Smart-heart-rate-dector\gagent\libgagent.a(iofnet.o)	#SHT_PROGBITS,SHF_ALLOC|SHF_MERGE|SHF_STRINGS,1
	0x4303e7ed		.L.str.31
.rodata.str1.1	0x4303e80f	0x1c	D:\Smart-heart-rate-dector\Smart-heart-rate-dector\gagent\libgagent.a(iofnet.o)	#SHT_PROGBITS,SHF_ALLOC|SHF_MERGE|SHF_STRINGS,1
	0x4303e80f		.L.str.32
.rodata.str1.1	0x4303e82b	0x2f	D:\Smart-heart-rate-dector\Smart-heart-rate-dector\gagent\libgagent.a(iofnet.o)	#SHT_PROGBITS,SHF_ALLOC|SHF_MERGE|SHF_STRINGS,1
	0x4303e82b		.L.str.33
.rodata.str1.1	0x4303e85a	0x15	D:\Smart-heart-rate-dector\Smart-heart-rate-dector\gagent\libgagent.a(iofnet.o)	#SHT_PROGBITS,SHF_ALLOC|SHF_MERGE|SHF_STRINGS,1
	0x4303e85a		.L.str.34
.rodata.str1.1	0x4303e86f	0x16	D:\Smart-heart-rate-dector\Smart-heart-rate-dector\gagent\libgagent.a(iofnet.o)	#SHT_PROGBITS,SHF_ALLOC|SHF_MERGE|SHF_STRINGS,1
	0x4303e86f		.L.str.35
.rodata.str1.1	0x4303e885	0x1a	D:\Smart-heart-rate-dector\Smart-heart-rate-dector\gagent\libgagent.a(iofnet.o)	#SHT_PROGBITS,SHF_ALLOC|SHF_MERGE|SHF_STRINGS,1
	0x4303e885		.L.str.36
.rodata.str1.1	0x4303e89f	0x19	D:\Smart-heart-rate-dector\Smart-heart-rate-dector\gagent\libgagent.a(iofnet.o)	#SHT_PROGBITS,SHF_ALLOC|SHF_MERGE|SHF_STRINGS,1
	0x4303e89f		.L.str.37
.rodata.str1.1	0x4303e8b8	0x24	D:\Smart-heart-rate-dector\Smart-heart-rate-dector\gagent\libgagent.a(iofnet.o)	#SHT_PROGBITS,SHF_ALLOC|SHF_MERGE|SHF_STRINGS,1
	0x4303e8b8		.L.str.38
.rodata.str1.1	0x4303e8dc	0x2a	D:\Smart-heart-rate-dector\Smart-heart-rate-dector\gagent\libgagent.a(iofnet.o)	#SHT_PROGBITS,SHF_ALLOC|SHF_MERGE|SHF_STRINGS,1
	0x4303e8dc		.L.str.40
.rodata.str1.1	0x4303e906	0x23	D:\Smart-heart-rate-dector\Smart-heart-rate-dector\gagent\libgagent.a(iofnet.o)	#SHT_PROGBITS,SHF_ALLOC|SHF_MERGE|SHF_STRINGS,1
	0x4303e906		.L.str.41
.rodata.str1.1	0x4303e929	0x2a	D:\Smart-heart-rate-dector\Smart-heart-rate-dector\gagent\libgagent.a(iofnet.o)	#SHT_PROGBITS,SHF_ALLOC|SHF_MERGE|SHF_STRINGS,1
	0x4303e929		.L.str.42
.rodata.str1.1	0x4303e953	0x20	D:\Smart-heart-rate-dector\Smart-heart-rate-dector\gagent\libgagent.a(iofnet.o)	#SHT_PROGBITS,SHF_ALLOC|SHF_MERGE|SHF_STRINGS,1
	0x4303e953		.L.str.43
.rodata.str1.1	0x4303e973	0x13	D:\Smart-heart-rate-dector\Smart-heart-rate-dector\gagent\libgagent.a(iofnet.o)	#SHT_PROGBITS,SHF_ALLOC|SHF_MERGE|SHF_STRINGS,1
	0x4303e973		.L__FUNCTION__.iofNetActiveHandle
.rodata.str1.1	0x4303e986	0x11	D:\Smart-heart-rate-dector\Smart-heart-rate-dector\gagent\libgagent.a(iofnet.o)	#SHT_PROGBITS,SHF_ALLOC|SHF_MERGE|SHF_STRINGS,1
	0x4303e986		.L.str.45
.rodata.str1.1	0x4303e997	0x25	D:\Smart-heart-rate-dector\Smart-heart-rate-dector\gagent\libgagent.a(iofnet.o)	#SHT_PROGBITS,SHF_ALLOC|SHF_MERGE|SHF_STRINGS,1
	0x4303e997		.L.str.46
.rodata.str1.1	0x4303e9bc	0x22	D:\Smart-heart-rate-dector\Smart-heart-rate-dector\gagent\libgagent.a(iofnet.o)	#SHT_PROGBITS,SHF_ALLOC|SHF_MERGE|SHF_STRINGS,1
	0x4303e9bc		.L.str.47
.rodata.str1.1	0x4303e9de	0x24	D:\Smart-heart-rate-dector\Smart-heart-rate-dector\gagent\libgagent.a(iofnet.o)	#SHT_PROGBITS,SHF_ALLOC|SHF_MERGE|SHF_STRINGS,1
	0x4303e9de		.L.str.48
.rodata.str1.1	0x4303ea02	0x20	D:\Smart-heart-rate-dector\Smart-heart-rate-dector\gagent\libgagent.a(iofnet.o)	#SHT_PROGBITS,SHF_ALLOC|SHF_MERGE|SHF_STRINGS,1
	0x4303ea02		.L.str.49
.rodata.str1.1	0x4303ea22	0x24	D:\Smart-heart-rate-dector\Smart-heart-rate-dector\gagent\libgagent.a(iofnet.o)	#SHT_PROGBITS,SHF_ALLOC|SHF_MERGE|SHF_STRINGS,1
	0x4303ea22		.L.str.50
.rodata.str1.1	0x4303ea46	0x21	D:\Smart-heart-rate-dector\Smart-heart-rate-dector\gagent\libgagent.a(iofnet.o)	#SHT_PROGBITS,SHF_ALLOC|SHF_MERGE|SHF_STRINGS,1
	0x4303ea46		.L.str.51
.rodata.str1.1	0x4303ea67	0x20	D:\Smart-heart-rate-dector\Smart-heart-rate-dector\gagent\libgagent.a(iofnet.o)	#SHT_PROGBITS,SHF_ALLOC|SHF_MERGE|SHF_STRINGS,1
	0x4303ea67		.L.str.52
.rodata.str1.1	0x4303ea87	0x21	D:\Smart-heart-rate-dector\Smart-heart-rate-dector\gagent\libgagent.a(iofnet.o)	#SHT_PROGBITS,SHF_ALLOC|SHF_MERGE|SHF_STRINGS,1
	0x4303ea87		.L.str.53
.rodata.str1.1	0x4303eaa8	0x15	D:\Smart-heart-rate-dector\Smart-heart-rate-dector\gagent\libgagent.a(iofnet.o)	#SHT_PROGBITS,SHF_ALLOC|SHF_MERGE|SHF_STRINGS,1
	0x4303eaa8		.L.str.54
.rodata.str1.1	0x4303eabd	0x31	D:\Smart-heart-rate-dector\Smart-heart-rate-dector\gagent\libgagent.a(iofnet.o)	#SHT_PROGBITS,SHF_ALLOC|SHF_MERGE|SHF_STRINGS,1
	0x4303eabd		.L.str.55
.rodata.str1.1	0x4303eaee	0x17	D:\Smart-heart-rate-dector\Smart-heart-rate-dector\gagent\libgagent.a(iofnet.o)	#SHT_PROGBITS,SHF_ALLOC|SHF_MERGE|SHF_STRINGS,1
	0x4303eaee		.L.str.56
.rodata.str1.1	0x4303eb05	0x11	D:\Smart-heart-rate-dector\Smart-heart-rate-dector\gagent\libgagent.a(iofnet.o)	#SHT_PROGBITS,SHF_ALLOC|SHF_MERGE|SHF_STRINGS,1
	0x4303eb05		.L.str.57
.rodata.str1.1	0x4303eb16	0x1a	D:\Smart-heart-rate-dector\Smart-heart-rate-dector\gagent\libgagent.a(iofnet.o)	#SHT_PROGBITS,SHF_ALLOC|SHF_MERGE|SHF_STRINGS,1
	0x4303eb16		.L.str.58
.rodata.str1.1	0x4303eb30	0x17	D:\Smart-heart-rate-dector\Smart-heart-rate-dector\gagent\libgagent.a(iofnet.o)	#SHT_PROGBITS,SHF_ALLOC|SHF_MERGE|SHF_STRINGS,1
	0x4303eb30		.L.str.59
.rodata.str1.1	0x4303eb47	0x2b	D:\Smart-heart-rate-dector\Smart-heart-rate-dector\gagent\libgagent.a(iofnet.o)	#SHT_PROGBITS,SHF_ALLOC|SHF_MERGE|SHF_STRINGS,1
	0x4303eb47		.L.str.60
.rodata.str1.1	0x4303eb72	0x1d	D:\Smart-heart-rate-dector\Smart-heart-rate-dector\gagent\libgagent.a(iofnet.o)	#SHT_PROGBITS,SHF_ALLOC|SHF_MERGE|SHF_STRINGS,1
	0x4303eb72		.L.str.61
.rodata.str1.1	0x4303eb8f	0x31	D:\Smart-heart-rate-dector\Smart-heart-rate-dector\gagent\libgagent.a(iofnet.o)	#SHT_PROGBITS,SHF_ALLOC|SHF_MERGE|SHF_STRINGS,1
	0x4303eb8f		.L.str.62
.rodata.str1.1	0x4303ebc0	0x2b	D:\Smart-heart-rate-dector\Smart-heart-rate-dector\gagent\libgagent.a(iofnet.o)	#SHT_PROGBITS,SHF_ALLOC|SHF_MERGE|SHF_STRINGS,1
	0x4303ebc0		.L.str.63
.rodata.str1.1	0x4303ebeb	0x24	D:\Smart-heart-rate-dector\Smart-heart-rate-dector\gagent\libgagent.a(iofnet.o)	#SHT_PROGBITS,SHF_ALLOC|SHF_MERGE|SHF_STRINGS,1
	0x4303ebeb		.L.str.64
.rodata.str1.1	0x4303ec0f	0x28	D:\Smart-heart-rate-dector\Smart-heart-rate-dector\gagent\libgagent.a(iofnet.o)	#SHT_PROGBITS,SHF_ALLOC|SHF_MERGE|SHF_STRINGS,1
	0x4303ec0f		.L.str.65
.rodata.str1.1	0x4303ec37	0x2b	D:\Smart-heart-rate-dector\Smart-heart-rate-dector\gagent\libgagent.a(iofnet.o)	#SHT_PROGBITS,SHF_ALLOC|SHF_MERGE|SHF_STRINGS,1
	0x4303ec37		.L.str.66
.rodata.str1.1	0x4303ec62	0x1c	D:\Smart-heart-rate-dector\Smart-heart-rate-dector\gagent\libgagent.a(iofnet.o)	#SHT_PROGBITS,SHF_ALLOC|SHF_MERGE|SHF_STRINGS,1
	0x4303ec62		.L.str.67
.rodata.str1.1	0x4303ec7e	0x1f	D:\Smart-heart-rate-dector\Smart-heart-rate-dector\gagent\libgagent.a(iofnet.o)	#SHT_PROGBITS,SHF_ALLOC|SHF_MERGE|SHF_STRINGS,1
	0x4303ec7e		.L.str.68
.rodata.str1.1	0x4303ec9d	0x2b	D:\Smart-heart-rate-dector\Smart-heart-rate-dector\gagent\libgagent.a(iofnet.o)	#SHT_PROGBITS,SHF_ALLOC|SHF_MERGE|SHF_STRINGS,1
	0x4303ec9d		.L.str.69
.rodata.str1.1	0x4303ecc8	0x2f	D:\Smart-heart-rate-dector\Smart-heart-rate-dector\gagent\libgagent.a(iofnet.o)	#SHT_PROGBITS,SHF_ALLOC|SHF_MERGE|SHF_STRINGS,1
	0x4303ecc8		.L.str.70
.rodata.str1.1	0x4303ecf7	0x2b	D:\Smart-heart-rate-dector\Smart-heart-rate-dector\gagent\libgagent.a(iofnet.o)	#SHT_PROGBITS,SHF_ALLOC|SHF_MERGE|SHF_STRINGS,1
	0x4303ecf7		.L.str.71
.rodata.str1.1	0x4303ed22	0x21	D:\Smart-heart-rate-dector\Smart-heart-rate-dector\gagent\libgagent.a(iofnet.o)	#SHT_PROGBITS,SHF_ALLOC|SHF_MERGE|SHF_STRINGS,1
	0x4303ed22		.L.str.72
.rodata.str1.1	0x4303ed43	0x1f	D:\Smart-heart-rate-dector\Smart-heart-rate-dector\gagent\libgagent.a(iofnet.o)	#SHT_PROGBITS,SHF_ALLOC|SHF_MERGE|SHF_STRINGS,1
	0x4303ed43		.L.str.73
.rodata.str1.1	0x4303ed62	0x1e	D:\Smart-heart-rate-dector\Smart-heart-rate-dector\gagent\libgagent.a(iofnet.o)	#SHT_PROGBITS,SHF_ALLOC|SHF_MERGE|SHF_STRINGS,1
	0x4303ed62		.L.str.74
.rodata.str1.8	0x4303ed80	0xf	D:\Smart-heart-rate-dector\Smart-heart-rate-dector\gagent\libgagent.a(iofnet.o)	#SHT_PROGBITS,SHF_ALLOC|SHF_MERGE|SHF_STRINGS,8
	0x4303ed80		.L.str.16
.rodata.str1.1	0x4303ed8f	0x1b	D:\Smart-heart-rate-dector\Smart-heart-rate-dector\gagent\libgagent.a(iofserial.o)	#SHT_PROGBITS,SHF_ALLOC|SHF_MERGE|SHF_STRINGS,1
	0x4303ed8f		.L.str.2
.rodata.str1.1	0x4303edaa	0x2f	D:\Smart-heart-rate-dector\Smart-heart-rate-dector\gagent\libgagent.a(iofserial.o)	#SHT_PROGBITS,SHF_ALLOC|SHF_MERGE|SHF_STRINGS,1
	0x4303edaa		.L.str.3
.rodata.str1.1	0x4303edd9	0x1d	D:\Smart-heart-rate-dector\Smart-heart-rate-dector\gagent\libgagent.a(iofserial.o)	#SHT_PROGBITS,SHF_ALLOC|SHF_MERGE|SHF_STRINGS,1
	0x4303edd9		.L.str.4
.rodata.str1.1	0x4303edf6	0x33	D:\Smart-heart-rate-dector\Smart-heart-rate-dector\gagent\libgagent.a(iofserial.o)	#SHT_PROGBITS,SHF_ALLOC|SHF_MERGE|SHF_STRINGS,1
	0x4303edf6		.L.str.5
.rodata.str1.1	0x4303ee29	0x19	D:\Smart-heart-rate-dector\Smart-heart-rate-dector\gagent\libgagent.a(iofserial.o)	#SHT_PROGBITS,SHF_ALLOC|SHF_MERGE|SHF_STRINGS,1
	0x4303ee29		.L.str.6
.rodata.str1.1	0x4303ee42	0xe	D:\Smart-heart-rate-dector\Smart-heart-rate-dector\gagent\libgagent.a(iofserial.o)	#SHT_PROGBITS,SHF_ALLOC|SHF_MERGE|SHF_STRINGS,1
	0x4303ee42		.L__FUNCTION__.iofSerialOpen
.rodata.str1.1	0x4303ee50	0x39	D:\Smart-heart-rate-dector\Smart-heart-rate-dector\gagent\libgagent.a(iofserial.o)	#SHT_PROGBITS,SHF_ALLOC|SHF_MERGE|SHF_STRINGS,1
	0x4303ee50		.L.str.7
.rodata.str1.1	0x4303ee89	0x18	D:\Smart-heart-rate-dector\Smart-heart-rate-dector\gagent\libgagent.a(iofserial.o)	#SHT_PROGBITS,SHF_ALLOC|SHF_MERGE|SHF_STRINGS,1
	0x4303ee89		.L.str.8
.rodata.str1.1	0x4303eea1	0xe	D:\Smart-heart-rate-dector\Smart-heart-rate-dector\gagent\libgagent.a(iofserial.o)	#SHT_PROGBITS,SHF_ALLOC|SHF_MERGE|SHF_STRINGS,1
	0x4303eea1		.L__FUNCTION__.iofSerialInit
.rodata.str1.1	0x4303eeaf	0x10	D:\Smart-heart-rate-dector\Smart-heart-rate-dector\gagent\libgagent.a(iofserial.o)	#SHT_PROGBITS,SHF_ALLOC|SHF_MERGE|SHF_STRINGS,1
	0x4303eeaf		.L__FUNCTION__.iofSerialSelect
.rodata.str1.1	0x4303eebf	0x15	D:\Smart-heart-rate-dector\Smart-heart-rate-dector\gagent\libgagent.a(iofserial.o)	#SHT_PROGBITS,SHF_ALLOC|SHF_MERGE|SHF_STRINGS,1
	0x4303eebf		.L.str.9
.rodata.str1.1	0x4303eed4	0x25	D:\Smart-heart-rate-dector\Smart-heart-rate-dector\gagent\libgagent.a(iofserial.o)	#SHT_PROGBITS,SHF_ALLOC|SHF_MERGE|SHF_STRINGS,1
	0x4303eed4		.L.str.14
.rodata.str1.1	0x4303eef9	0xe	D:\Smart-heart-rate-dector\Smart-heart-rate-dector\gagent\libgagent.a(iofserial.o)	#SHT_PROGBITS,SHF_ALLOC|SHF_MERGE|SHF_STRINGS,1
	0x4303eef9		.L__FUNCTION__.iofSerialSend
.rodata.str1.1	0x4303ef07	0x1c	D:\Smart-heart-rate-dector\Smart-heart-rate-dector\gagent\libgagent.a(iofserial.o)	#SHT_PROGBITS,SHF_ALLOC|SHF_MERGE|SHF_STRINGS,1
	0x4303ef07		.L.str.15
.rodata.str1.1	0x4303ef23	0xe	D:\Smart-heart-rate-dector\Smart-heart-rate-dector\gagent\libgagent.a(iofserial.o)	#SHT_PROGBITS,SHF_ALLOC|SHF_MERGE|SHF_STRINGS,1
	0x4303ef23		.L__FUNCTION__.iofSerialRead
.rodata.str1.1	0x4303ef31	0x1f	D:\Smart-heart-rate-dector\Smart-heart-rate-dector\gagent\libgagent.a(iofserial.o)	#SHT_PROGBITS,SHF_ALLOC|SHF_MERGE|SHF_STRINGS,1
	0x4303ef31		.L.str.16
.rodata.str1.1	0x4303ef50	0xb	D:\Smart-heart-rate-dector\Smart-heart-rate-dector\gagent\libgagent.a(iofserial.o)	#SHT_PROGBITS,SHF_ALLOC|SHF_MERGE|SHF_STRINGS,1
	0x4303ef50		.L__FUNCTION__.SerialRxCb
.rodata.str1.1	0x4303ef5b	0x16	D:\Smart-heart-rate-dector\Smart-heart-rate-dector\gagent\libgagent.a(iofserial.o)	#SHT_PROGBITS,SHF_ALLOC|SHF_MERGE|SHF_STRINGS,1
	0x4303ef5b		.L.str.17
.rodata.str1.1	0x4303ef71	0xb	D:\Smart-heart-rate-dector\Smart-heart-rate-dector\gagent\libgagent.a(iofserial.o)	#SHT_PROGBITS,SHF_ALLOC|SHF_MERGE|SHF_STRINGS,1
	0x4303ef71		.L__FUNCTION__.SerialTxCb
.rodata.str1.1	0x4303ef7c	0x15	D:\Smart-heart-rate-dector\Smart-heart-rate-dector\gagent\libgagent.a(iofsocket.o)	#SHT_PROGBITS,SHF_ALLOC|SHF_MERGE|SHF_STRINGS,1
	0x4303ef7c		.L.str.2
.rodata.str1.1	0x4303ef91	0x12	D:\Smart-heart-rate-dector\Smart-heart-rate-dector\gagent\libgagent.a(iofsocket.o)	#SHT_PROGBITS,SHF_ALLOC|SHF_MERGE|SHF_STRINGS,1
	0x4303ef91		.L__FUNCTION__.gatIofSocketClose
.rodata.str1.1	0x4303efa3	0x21	D:\Smart-heart-rate-dector\Smart-heart-rate-dector\gagent\libgagent.a(iofsocket.o)	#SHT_PROGBITS,SHF_ALLOC|SHF_MERGE|SHF_STRINGS,1
	0x4303efa3		.L.str.3
.rodata.str1.1	0x4303efc4	0x14	D:\Smart-heart-rate-dector\Smart-heart-rate-dector\gagent\libgagent.a(iofsocket.o)	#SHT_PROGBITS,SHF_ALLOC|SHF_MERGE|SHF_STRINGS,1
	0x4303efc4		.L__FUNCTION__.gatIofSocketConnect
.rodata.str1.1	0x4303efd8	0x1b	D:\Smart-heart-rate-dector\Smart-heart-rate-dector\gagent\libgagent.a(iofsocket.o)	#SHT_PROGBITS,SHF_ALLOC|SHF_MERGE|SHF_STRINGS,1
	0x4303efd8		.L.str.4
.rodata.str1.1	0x4303eff3	0x21	D:\Smart-heart-rate-dector\Smart-heart-rate-dector\gagent\libgagent.a(iofsocket.o)	#SHT_PROGBITS,SHF_ALLOC|SHF_MERGE|SHF_STRINGS,1
	0x4303eff3		.L.str.5
.rodata.str1.1	0x4303f014	0x32	D:\Smart-heart-rate-dector\Smart-heart-rate-dector\gagent\libgagent.a(iofsocket.o)	#SHT_PROGBITS,SHF_ALLOC|SHF_MERGE|SHF_STRINGS,1
	0x4303f014		.L.str.6
.rodata.str1.1	0x4303f046	0xe	D:\Smart-heart-rate-dector\Smart-heart-rate-dector\gagent\libgagent.a(iofsocket.o)	#SHT_PROGBITS,SHF_ALLOC|SHF_MERGE|SHF_STRINGS,1
	0x4303f046		.L__FUNCTION__.gatIofTcpSend
.rodata.str1.1	0x4303f054	0x2b	D:\Smart-heart-rate-dector\Smart-heart-rate-dector\gagent\libgagent.a(ioftime.o)	#SHT_PROGBITS,SHF_ALLOC|SHF_MERGE|SHF_STRINGS,1
	0x4303f054		.L.str.2
.rodata.str1.1	0x4303f07f	0x18	D:\Smart-heart-rate-dector\Smart-heart-rate-dector\gagent\libgagent.a(ioftime.o)	#SHT_PROGBITS,SHF_ALLOC|SHF_MERGE|SHF_STRINGS,1
	0x4303f07f		.L.str.3
.rodata.str1.1	0x4303f097	0xe	D:\Smart-heart-rate-dector\Smart-heart-rate-dector\gagent\libgagent.a(ioftime.o)	#SHT_PROGBITS,SHF_ALLOC|SHF_MERGE|SHF_STRINGS,1
	0x4303f097		.L__FUNCTION__.getDevTime_MS
.rodata.str1.1	0x4303f0a5	0x17	D:\Smart-heart-rate-dector\Smart-heart-rate-dector\gagent\libgagent.a(ioftime.o)	#SHT_PROGBITS,SHF_ALLOC|SHF_MERGE|SHF_STRINGS,1
	0x4303f0a5		.L.str.4
.rodata.str1.1	0x4303f0bc	0xd	D:\Smart-heart-rate-dector\Smart-heart-rate-dector\gagent\libgagent.a(ioftime.o)	#SHT_PROGBITS,SHF_ALLOC|SHF_MERGE|SHF_STRINGS,1
	0x4303f0bc		.L__FUNCTION__.getDevTime_S
.rodata.str1.1	0x4303f0c9	0x18	D:\Smart-heart-rate-dector\Smart-heart-rate-dector\gagent\libgagent.a(ioftime.o)	#SHT_PROGBITS,SHF_ALLOC|SHF_MERGE|SHF_STRINGS,1
	0x4303f0c9		.L.str.5
.rodata.str1.1	0x4303f0e1	0xd	D:\Smart-heart-rate-dector\Smart-heart-rate-dector\gagent\libgagent.a(ioftime.o)	#SHT_PROGBITS,SHF_ALLOC|SHF_MERGE|SHF_STRINGS,1
	0x4303f0e1		.L__FUNCTION__.iofTimerInit
.rodata.str1.1	0x4303f0ee	0xc	D:\Smart-heart-rate-dector\Smart-heart-rate-dector\gagent\libgagent.a(ioftime.o)	#SHT_PROGBITS,SHF_ALLOC|SHF_MERGE|SHF_STRINGS,1
	0x4303f0ee		.L.str.6
.rodata.str1.1	0x4303f0fa	0x35	D:\Smart-heart-rate-dector\Smart-heart-rate-dector\gagent\libgagent.a(ioftime.o)	#SHT_PROGBITS,SHF_ALLOC|SHF_MERGE|SHF_STRINGS,1
	0x4303f0fa		.L.str.7
.rodata.str1.1	0x4303f12f	0x15	D:\Smart-heart-rate-dector\Smart-heart-rate-dector\gagent\libgagent.a(ioftime.o)	#SHT_PROGBITS,SHF_ALLOC|SHF_MERGE|SHF_STRINGS,1
	0x4303f12f		.L__FUNCTION__.iofLocalTimerMSStart
.rodata.str1.1	0x4303f144	0xc	D:\Smart-heart-rate-dector\Smart-heart-rate-dector\gagent\libgagent.a(ioftime.o)	#SHT_PROGBITS,SHF_ALLOC|SHF_MERGE|SHF_STRINGS,1
	0x4303f144		.L.str.8
.rodata.str1.1	0x4303f150	0x37	D:\Smart-heart-rate-dector\Smart-heart-rate-dector\gagent\libgagent.a(ioftime.o)	#SHT_PROGBITS,SHF_ALLOC|SHF_MERGE|SHF_STRINGS,1
	0x4303f150		.L.str.9
.rodata.str1.1	0x4303f187	0x27	D:\Smart-heart-rate-dector\Smart-heart-rate-dector\gagent\libgagent.a(ioftime.o)	#SHT_PROGBITS,SHF_ALLOC|SHF_MERGE|SHF_STRINGS,1
	0x4303f187		.L.str.10
.rodata.str1.1	0x4303f1ae	0x1c	D:\Smart-heart-rate-dector\Smart-heart-rate-dector\gagent\libgagent.a(ioftime.o)	#SHT_PROGBITS,SHF_ALLOC|SHF_MERGE|SHF_STRINGS,1
	0x4303f1ae		.L.str.11
.rodata.str1.1	0x4303f1ca	0x14	D:\Smart-heart-rate-dector\Smart-heart-rate-dector\gagent\libgagent.a(ioftime.o)	#SHT_PROGBITS,SHF_ALLOC|SHF_MERGE|SHF_STRINGS,1
	0x4303f1ca		.L__FUNCTION__.iofLocalTimerMSStop
.rodata.str1.1	0x4303f1de	0x2f	D:\Smart-heart-rate-dector\Smart-heart-rate-dector\gagent\libgagent.a(ioftime.o)	#SHT_PROGBITS,SHF_ALLOC|SHF_MERGE|SHF_STRINGS,1
	0x4303f1de		.L.str.12
.rodata.str1.1	0x4303f20d	0x29	D:\Smart-heart-rate-dector\Smart-heart-rate-dector\gagent\libgagent.a(lanvirtual.o)	#SHT_PROGBITS,SHF_ALLOC|SHF_MERGE|SHF_STRINGS,1
	0x4303f20d		.L.str.2
.rodata.str1.1	0x4303f236	0xb	D:\Smart-heart-rate-dector\Smart-heart-rate-dector\gagent\libgagent.a(lanvirtual.o)	#SHT_PROGBITS,SHF_ALLOC|SHF_MERGE|SHF_STRINGS,1
	0x4303f236		.L__FUNCTION__.gatLanSend
.rodata.str1.1	0x4303f241	0x16	D:\Smart-heart-rate-dector\Smart-heart-rate-dector\gagent\libgagent.a(mqttgat.o)	#SHT_PROGBITS,SHF_ALLOC|SHF_MERGE|SHF_STRINGS,1
	0x4303f241		.L.str.2
.rodata.str1.1	0x4303f257	0x13	D:\Smart-heart-rate-dector\Smart-heart-rate-dector\gagent\libgagent.a(mqttgat.o)	#SHT_PROGBITS,SHF_ALLOC|SHF_MERGE|SHF_STRINGS,1
	0x4303f257		.L__FUNCTION__.mqttConnBrokerInit
.rodata.str1.1	0x4303f26a	0x15	D:\Smart-heart-rate-dector\Smart-heart-rate-dector\gagent\libgagent.a(mqttgat.o)	#SHT_PROGBITS,SHF_ALLOC|SHF_MERGE|SHF_STRINGS,1
	0x4303f26a		.L.str.3
.rodata.str1.1	0x4303f27f	0xd	D:\Smart-heart-rate-dector\Smart-heart-rate-dector\gagent\libgagent.a(mqttgat.o)	#SHT_PROGBITS,SHF_ALLOC|SHF_MERGE|SHF_STRINGS,1
	0x4303f27f		.L.str.4
.rodata.str1.1	0x4303f28c	0x10	D:\Smart-heart-rate-dector\Smart-heart-rate-dector\gagent\libgagent.a(mqttgat.o)	#SHT_PROGBITS,SHF_ALLOC|SHF_MERGE|SHF_STRINGS,1
	0x4303f28c		.L__FUNCTION__.mqttDoHeartBeat
.rodata.str1.1	0x4303f29c	0x2e	D:\Smart-heart-rate-dector\Smart-heart-rate-dector\gagent\libgagent.a(mqttgat.o)	#SHT_PROGBITS,SHF_ALLOC|SHF_MERGE|SHF_STRINGS,1
	0x4303f29c		.L.str.5
.rodata.str1.1	0x4303f2ca	0x38	D:\Smart-heart-rate-dector\Smart-heart-rate-dector\gagent\libgagent.a(mqttgat.o)	#SHT_PROGBITS,SHF_ALLOC|SHF_MERGE|SHF_STRINGS,1
	0x4303f2ca		.L.str.6
.rodata.str1.1	0x4303f302	0x30	D:\Smart-heart-rate-dector\Smart-heart-rate-dector\gagent\libgagent.a(mqttgat.o)	#SHT_PROGBITS,SHF_ALLOC|SHF_MERGE|SHF_STRINGS,1
	0x4303f302		.L.str.7
.rodata.str1.1	0x4303f332	0x1e	D:\Smart-heart-rate-dector\Smart-heart-rate-dector\gagent\libgagent.a(mqttgat.o)	#SHT_PROGBITS,SHF_ALLOC|SHF_MERGE|SHF_STRINGS,1
	0x4303f332		.L.str.8
.rodata.str1.1	0x4303f350	0x27	D:\Smart-heart-rate-dector\Smart-heart-rate-dector\gagent\libgagent.a(mqttgat.o)	#SHT_PROGBITS,SHF_ALLOC|SHF_MERGE|SHF_STRINGS,1
	0x4303f350		.L.str.9
.rodata.str1.1	0x4303f377	0x12	D:\Smart-heart-rate-dector\Smart-heart-rate-dector\gagent\libgagent.a(mqttgat.o)	#SHT_PROGBITS,SHF_ALLOC|SHF_MERGE|SHF_STRINGS,1
	0x4303f377		.L__FUNCTION__.mqttExtractPacket
.rodata.str1.1	0x4303f389	0x27	D:\Smart-heart-rate-dector\Smart-heart-rate-dector\gagent\libgagent.a(mqttgat.o)	#SHT_PROGBITS,SHF_ALLOC|SHF_MERGE|SHF_STRINGS,1
	0x4303f389		.L.str.11
.rodata.str1.1	0x4303f3b0	0x21	D:\Smart-heart-rate-dector\Smart-heart-rate-dector\gagent\libgagent.a(mqttgat.o)	#SHT_PROGBITS,SHF_ALLOC|SHF_MERGE|SHF_STRINGS,1
	0x4303f3b0		.L.str.12
.rodata.str1.1	0x4303f3d1	0x20	D:\Smart-heart-rate-dector\Smart-heart-rate-dector\gagent\libgagent.a(mqttgat.o)	#SHT_PROGBITS,SHF_ALLOC|SHF_MERGE|SHF_STRINGS,1
	0x4303f3d1		.L.str.13
.rodata.str1.1	0x4303f3f1	0x22	D:\Smart-heart-rate-dector\Smart-heart-rate-dector\gagent\libgagent.a(mqttgat.o)	#SHT_PROGBITS,SHF_ALLOC|SHF_MERGE|SHF_STRINGS,1
	0x4303f3f1		.L.str.14
.rodata.str1.1	0x4303f413	0x21	D:\Smart-heart-rate-dector\Smart-heart-rate-dector\gagent\libgagent.a(mqttgat.o)	#SHT_PROGBITS,SHF_ALLOC|SHF_MERGE|SHF_STRINGS,1
	0x4303f413		.L.str.15
.rodata.str1.1	0x4303f434	0x20	D:\Smart-heart-rate-dector\Smart-heart-rate-dector\gagent\libgagent.a(mqttgat.o)	#SHT_PROGBITS,SHF_ALLOC|SHF_MERGE|SHF_STRINGS,1
	0x4303f434		.L.str.16
.rodata.str1.1	0x4303f454	0x1b	D:\Smart-heart-rate-dector\Smart-heart-rate-dector\gagent\libgagent.a(mqttgat.o)	#SHT_PROGBITS,SHF_ALLOC|SHF_MERGE|SHF_STRINGS,1
	0x4303f454		.L.str.17
.rodata.str1.1	0x4303f46f	0x1f	D:\Smart-heart-rate-dector\Smart-heart-rate-dector\gagent\libgagent.a(mqttgat.o)	#SHT_PROGBITS,SHF_ALLOC|SHF_MERGE|SHF_STRINGS,1
	0x4303f46f		.L.str.18
.rodata.str1.1	0x4303f48e	0x2a	D:\Smart-heart-rate-dector\Smart-heart-rate-dector\gagent\libgagent.a(mqttgat.o)	#SHT_PROGBITS,SHF_ALLOC|SHF_MERGE|SHF_STRINGS,1
	0x4303f48e		.L.str.19
.rodata.str1.1	0x4303f4b8	0x2b	D:\Smart-heart-rate-dector\Smart-heart-rate-dector\gagent\libgagent.a(mqttgat.o)	#SHT_PROGBITS,SHF_ALLOC|SHF_MERGE|SHF_STRINGS,1
	0x4303f4b8		.L.str.20
.rodata.str1.1	0x4303f4e3	0x25	D:\Smart-heart-rate-dector\Smart-heart-rate-dector\gagent\libgagent.a(mqttgat.o)	#SHT_PROGBITS,SHF_ALLOC|SHF_MERGE|SHF_STRINGS,1
	0x4303f4e3		.L.str.23
.rodata.str1.1	0x4303f508	0x3d	D:\Smart-heart-rate-dector\Smart-heart-rate-dector\gagent\libgagent.a(mqttgat.o)	#SHT_PROGBITS,SHF_ALLOC|SHF_MERGE|SHF_STRINGS,1
	0x4303f508		.L.str.24
.rodata.str1.1	0x4303f545	0x23	D:\Smart-heart-rate-dector\Smart-heart-rate-dector\gagent\libgagent.a(mqttgat.o)	#SHT_PROGBITS,SHF_ALLOC|SHF_MERGE|SHF_STRINGS,1
	0x4303f545		.L.str.25
.rodata.str1.1	0x4303f568	0x1f	D:\Smart-heart-rate-dector\Smart-heart-rate-dector\gagent\libgagent.a(mqttgat.o)	#SHT_PROGBITS,SHF_ALLOC|SHF_MERGE|SHF_STRINGS,1
	0x4303f568		.L.str.26
.rodata.str1.1	0x4303f587	0x56	D:\Smart-heart-rate-dector\Smart-heart-rate-dector\gagent\libgagent.a(mqttgat.o)	#SHT_PROGBITS,SHF_ALLOC|SHF_MERGE|SHF_STRINGS,1
	0x4303f587		.L.str.27
.rodata.str1.1	0x4303f5dd	0x25	D:\Smart-heart-rate-dector\Smart-heart-rate-dector\gagent\libgagent.a(mqttgat.o)	#SHT_PROGBITS,SHF_ALLOC|SHF_MERGE|SHF_STRINGS,1
	0x4303f5dd		.L.str.28
.rodata.str1.1	0x4303f602	0x21	D:\Smart-heart-rate-dector\Smart-heart-rate-dector\gagent\libgagent.a(mqttgat.o)	#SHT_PROGBITS,SHF_ALLOC|SHF_MERGE|SHF_STRINGS,1
	0x4303f602		.L.str.29
.rodata.str1.1	0x4303f623	0x14	D:\Smart-heart-rate-dector\Smart-heart-rate-dector\gagent\libgagent.a(mqttgat.o)	#SHT_PROGBITS,SHF_ALLOC|SHF_MERGE|SHF_STRINGS,1
	0x4303f623		.L.str.30
.rodata.str1.1	0x4303f637	0xf	D:\Smart-heart-rate-dector\Smart-heart-rate-dector\gagent\libgagent.a(mqttgat.o)	#SHT_PROGBITS,SHF_ALLOC|SHF_MERGE|SHF_STRINGS,1
	0x4303f637		.L.str.31
.rodata.str1.1	0x4303f646	0xc	D:\Smart-heart-rate-dector\Smart-heart-rate-dector\gagent\libgagent.a(mqttgat.o)	#SHT_PROGBITS,SHF_ALLOC|SHF_MERGE|SHF_STRINGS,1
	0x4303f646		.L__FUNCTION__.gatMqttInit
.rodata.str1.1	0x4303f652	0xe	D:\Smart-heart-rate-dector\Smart-heart-rate-dector\gagent\libgagent.a(mqttgat.o)	#SHT_PROGBITS,SHF_ALLOC|SHF_MERGE|SHF_STRINGS,1
	0x4303f652		.L__FUNCTION__.gatMqttReInit
.rodata.str1.1	0x4303f660	0x1d	D:\Smart-heart-rate-dector\Smart-heart-rate-dector\gagent\libgagent.a(mqttgat.o)	#SHT_PROGBITS,SHF_ALLOC|SHF_MERGE|SHF_STRINGS,1
	0x4303f660		.L.str.33
.rodata.str1.1	0x4303f67d	0xf	D:\Smart-heart-rate-dector\Smart-heart-rate-dector\gagent\libgagent.a(mqttgat.o)	#SHT_PROGBITS,SHF_ALLOC|SHF_MERGE|SHF_STRINGS,1
	0x4303f67d		.L__FUNCTION__.mqttDataHandle
.rodata.str1.1	0x4303f68c	0x1a	D:\Smart-heart-rate-dector\Smart-heart-rate-dector\gagent\libgagent.a(mqttgat.o)	#SHT_PROGBITS,SHF_ALLOC|SHF_MERGE|SHF_STRINGS,1
	0x4303f68c		.L.str.34
.rodata.str1.1	0x4303f6a6	0x27	D:\Smart-heart-rate-dector\Smart-heart-rate-dector\gagent\libgagent.a(mqttgat.o)	#SHT_PROGBITS,SHF_ALLOC|SHF_MERGE|SHF_STRINGS,1
	0x4303f6a6		.L.str.35
.rodata.str1.1	0x4303f6cd	0x36	D:\Smart-heart-rate-dector\Smart-heart-rate-dector\gagent\libgagent.a(mqttgat.o)	#SHT_PROGBITS,SHF_ALLOC|SHF_MERGE|SHF_STRINGS,1
	0x4303f6cd		.L.str.36
.rodata.str1.1	0x4303f703	0x25	D:\Smart-heart-rate-dector\Smart-heart-rate-dector\gagent\libgagent.a(mqttgat.o)	#SHT_PROGBITS,SHF_ALLOC|SHF_MERGE|SHF_STRINGS,1
	0x4303f703		.L.str.37
.rodata.str1.1	0x4303f728	0x1e	D:\Smart-heart-rate-dector\Smart-heart-rate-dector\gagent\libgagent.a(mqttgat.o)	#SHT_PROGBITS,SHF_ALLOC|SHF_MERGE|SHF_STRINGS,1
	0x4303f728		.L.str.38
.rodata.str1.1	0x4303f746	0x1c	D:\Smart-heart-rate-dector\Smart-heart-rate-dector\gagent\libgagent.a(mqttgat.o)	#SHT_PROGBITS,SHF_ALLOC|SHF_MERGE|SHF_STRINGS,1
	0x4303f746		.L.str.39
.rodata.str1.1	0x4303f762	0x1e	D:\Smart-heart-rate-dector\Smart-heart-rate-dector\gagent\libgagent.a(mqttgat.o)	#SHT_PROGBITS,SHF_ALLOC|SHF_MERGE|SHF_STRINGS,1
	0x4303f762		.L.str.40
.rodata.str1.1	0x4303f780	0x11	D:\Smart-heart-rate-dector\Smart-heart-rate-dector\gagent\libgagent.a(mqttgat.o)	#SHT_PROGBITS,SHF_ALLOC|SHF_MERGE|SHF_STRINGS,1
	0x4303f780		.L.str.41
.rodata.str1.1	0x4303f791	0x15	D:\Smart-heart-rate-dector\Smart-heart-rate-dector\gagent\libgagent.a(mqttgat.o)	#SHT_PROGBITS,SHF_ALLOC|SHF_MERGE|SHF_STRINGS,1
	0x4303f791		.L__FUNCTION__.gatM2MHeartBeatStart
.rodata.str1.1	0x4303f7a6	0x12	D:\Smart-heart-rate-dector\Smart-heart-rate-dector\gagent\libgagent.a(mqttgat.o)	#SHT_PROGBITS,SHF_ALLOC|SHF_MERGE|SHF_STRINGS,1
	0x4303f7a6		.L.str.42
.rodata.str1.1	0x4303f7b8	0x14	D:\Smart-heart-rate-dector\Smart-heart-rate-dector\gagent\libgagent.a(mqttgat.o)	#SHT_PROGBITS,SHF_ALLOC|SHF_MERGE|SHF_STRINGS,1
	0x4303f7b8		.L__FUNCTION__.gatM2MHeartBeatStop
.rodata.str1.1	0x4303f7cc	0x15	D:\Smart-heart-rate-dector\Smart-heart-rate-dector\gagent\libgagent.a(mqttgat.o)	#SHT_PROGBITS,SHF_ALLOC|SHF_MERGE|SHF_STRINGS,1
	0x4303f7cc		.L__FUNCTION__.gatCleanMqttCacheBuf
.rodata.str1.1	0x4303f7e1	0x22	D:\Smart-heart-rate-dector\Smart-heart-rate-dector\gagent\libgagent.a(mqttgat.o)	#SHT_PROGBITS,SHF_ALLOC|SHF_MERGE|SHF_STRINGS,1
	0x4303f7e1		.L.str.43
.rodata.str1.1	0x4303f803	0x14	D:\Smart-heart-rate-dector\Smart-heart-rate-dector\gagent\libgagent.a(mqttgat.o)	#SHT_PROGBITS,SHF_ALLOC|SHF_MERGE|SHF_STRINGS,1
	0x4303f803		.L__FUNCTION__.gatCloudGizDataSend
.rodata.str1.1	0x4303f817	0x14	D:\Smart-heart-rate-dector\Smart-heart-rate-dector\gagent\libgagent.a(mqttgat.o)	#SHT_PROGBITS,SHF_ALLOC|SHF_MERGE|SHF_STRINGS,1
	0x4303f817		.L.str.44
.rodata.str1.1	0x4303f82b	0x1f	D:\Smart-heart-rate-dector\Smart-heart-rate-dector\gagent\libgagent.a(mqttgat.o)	#SHT_PROGBITS,SHF_ALLOC|SHF_MERGE|SHF_STRINGS,1
	0x4303f82b		.L.str.45
.rodata.str1.1	0x4303f84a	0x10	D:\Smart-heart-rate-dector\Smart-heart-rate-dector\gagent\libgagent.a(mqttgat.o)	#SHT_PROGBITS,SHF_ALLOC|SHF_MERGE|SHF_STRINGS,1
	0x4303f84a		.L__FUNCTION__.mqttNodeRecInit
.rodata.str1.1	0x4303f85a	0x20	D:\Smart-heart-rate-dector\Smart-heart-rate-dector\gagent\libgagent.a(mqttgat.o)	#SHT_PROGBITS,SHF_ALLOC|SHF_MERGE|SHF_STRINGS,1
	0x4303f85a		.L.str.46
.rodata.str1.1	0x4303f87a	0x1a	D:\Smart-heart-rate-dector\Smart-heart-rate-dector\gagent\libgagent.a(mqttlib.o)	#SHT_PROGBITS,SHF_ALLOC|SHF_MERGE|SHF_STRINGS,1
	0x4303f87a		.L.str.2
.rodata.str1.1	0x4303f894	0x1c	D:\Smart-heart-rate-dector\Smart-heart-rate-dector\gagent\libgagent.a(mqttlib.o)	#SHT_PROGBITS,SHF_ALLOC|SHF_MERGE|SHF_STRINGS,1
	0x4303f894		.L__FUNCTION__.mqtt_num_rem_len_bytes_safe
.rodata.str1.1	0x4303f8b0	0x15	D:\Smart-heart-rate-dector\Smart-heart-rate-dector\gagent\libgagent.a(mqttlib.o)	#SHT_PROGBITS,SHF_ALLOC|SHF_MERGE|SHF_STRINGS,1
	0x4303f8b0		.L.str.3
.rodata.str1.1	0x4303f8c5	0x18	D:\Smart-heart-rate-dector\Smart-heart-rate-dector\gagent\libgagent.a(mqttlib.o)	#SHT_PROGBITS,SHF_ALLOC|SHF_MERGE|SHF_STRINGS,1
	0x4303f8c5		.L.str.4
.rodata.str1.1	0x4303f8dd	0x6	D:\Smart-heart-rate-dector\Smart-heart-rate-dector\gagent\libgagent.a(mqttlib.o)	#SHT_PROGBITS,SHF_ALLOC|SHF_MERGE|SHF_STRINGS,1
.rodata.str1.1	0x4303f8e3	0xd	D:\Smart-heart-rate-dector\Smart-heart-rate-dector\gagent\libgagent.a(mqttlib.o)	#SHT_PROGBITS,SHF_ALLOC|SHF_MERGE|SHF_STRINGS,1
	0x4303f8e3		.L__FUNCTION__.mqtt_connect
.rodata.str1.1	0x4303f8f0	0x21	D:\Smart-heart-rate-dector\Smart-heart-rate-dector\gagent\libgagent.a(mqttlib.o)	#SHT_PROGBITS,SHF_ALLOC|SHF_MERGE|SHF_STRINGS,1
	0x4303f8f0		.L.str.8
.rodata.str1.1	0x4303f911	0x16	D:\Smart-heart-rate-dector\Smart-heart-rate-dector\gagent\libgagent.a(mqttlib.o)	#SHT_PROGBITS,SHF_ALLOC|SHF_MERGE|SHF_STRINGS,1
	0x4303f911		.L.str.13
.rodata.str1.1	0x4303f927	0x16	D:\Smart-heart-rate-dector\Smart-heart-rate-dector\gagent\libgagent.a(mqttlib.o)	#SHT_PROGBITS,SHF_ALLOC|SHF_MERGE|SHF_STRINGS,1
	0x4303f927		.L__FUNCTION__.mqtt_publish_with_qos
.rodata.str1.1	0x4303f93d	0x59	D:\Smart-heart-rate-dector\Smart-heart-rate-dector\gagent\libgagent.a(mqttlib.o)	#SHT_PROGBITS,SHF_ALLOC|SHF_MERGE|SHF_STRINGS,1
	0x4303f93d		.L.str.15
.rodata.str1.1	0x4303f996	0xe	D:\Smart-heart-rate-dector\Smart-heart-rate-dector\gagent\libgagent.a(mqttlib.o)	#SHT_PROGBITS,SHF_ALLOC|SHF_MERGE|SHF_STRINGS,1
	0x4303f996		.L.str.16
.rodata.str1.1	0x4303f9a4	0x10	D:\Smart-heart-rate-dector\Smart-heart-rate-dector\gagent\libgagent.a(mqttlib.o)	#SHT_PROGBITS,SHF_ALLOC|SHF_MERGE|SHF_STRINGS,1
	0x4303f9a4		.L__FUNCTION__.mqtt_subscribes
.rodata.str1.1	0x4303f9b4	0x29	D:\Smart-heart-rate-dector\Smart-heart-rate-dector\gagent\libgagent.a(mqttlib.o)	#SHT_PROGBITS,SHF_ALLOC|SHF_MERGE|SHF_STRINGS,1
	0x4303f9b4		.L.str.17
PADDING_ALIGNMENT	0x4303f9dd	0x3	0x0
.rodata	0x4303f9e0	0xc	D:\Smart-heart-rate-dector\Smart-heart-rate-dector\gagent\libgagent.a(mqttlib.o)	#SHT_PROGBITS,SHF_ALLOC,8
.rodata.str1.1	0x4303f9ec	0x24	D:\Smart-heart-rate-dector\Smart-heart-rate-dector\gagent\libgagent.a(otawan.o)	#SHT_PROGBITS,SHF_ALLOC|SHF_MERGE|SHF_STRINGS,1
	0x4303f9ec		.L.str.2
.rodata.str1.1	0x4303fa10	0x13	D:\Smart-heart-rate-dector\Smart-heart-rate-dector\gagent\libgagent.a(otawan.o)	#SHT_PROGBITS,SHF_ALLOC|SHF_MERGE|SHF_STRINGS,1
	0x4303fa10		.L__FUNCTION__.gatWanOtaStatusGet
.rodata.str1.1	0x4303fa23	0x36	D:\Smart-heart-rate-dector\Smart-heart-rate-dector\gagent\libgagent.a(otawan.o)	#SHT_PROGBITS,SHF_ALLOC|SHF_MERGE|SHF_STRINGS,1
	0x4303fa23		.L.str.3
.rodata.str1.1	0x4303fa59	0x12	D:\Smart-heart-rate-dector\Smart-heart-rate-dector\gagent\libgagent.a(otawan.o)	#SHT_PROGBITS,SHF_ALLOC|SHF_MERGE|SHF_STRINGS,1
	0x4303fa59		.L__FUNCTION__.gatOTAEventHandle
.rodata.str1.1	0x4303fa6b	0x10	D:\Smart-heart-rate-dector\Smart-heart-rate-dector\gagent\libgagent.a(otawan.o)	#SHT_PROGBITS,SHF_ALLOC|SHF_MERGE|SHF_STRINGS,1
	0x4303fa6b		.L.str.5
.rodata.str1.1	0x4303fa7b	0x7	D:\Smart-heart-rate-dector\Smart-heart-rate-dector\gagent\libgagent.a(otawan.o)	#SHT_PROGBITS,SHF_ALLOC|SHF_MERGE|SHF_STRINGS,1
	0x4303fa7b		.L.str.6
.rodata.str1.1	0x4303fa82	0x32	D:\Smart-heart-rate-dector\Smart-heart-rate-dector\gagent\libgagent.a(otawan.o)	#SHT_PROGBITS,SHF_ALLOC|SHF_MERGE|SHF_STRINGS,1
	0x4303fa82		.L.str.7
.rodata.str1.1	0x4303fab4	0xf	D:\Smart-heart-rate-dector\Smart-heart-rate-dector\gagent\libgagent.a(otawan.o)	#SHT_PROGBITS,SHF_ALLOC|SHF_MERGE|SHF_STRINGS,1
	0x4303fab4		.L.str.8
.rodata.str1.1	0x4303fac3	0x18	D:\Smart-heart-rate-dector\Smart-heart-rate-dector\gagent\libgagent.a(otawan.o)	#SHT_PROGBITS,SHF_ALLOC|SHF_MERGE|SHF_STRINGS,1
	0x4303fac3		.L.str.10
.rodata.str1.1	0x4303fadb	0xa	D:\Smart-heart-rate-dector\Smart-heart-rate-dector\gagent\libgagent.a(otawan.o)	#SHT_PROGBITS,SHF_ALLOC|SHF_MERGE|SHF_STRINGS,1
	0x4303fadb		.L.str.14
.rodata.str1.1	0x4303fae5	0x5	D:\Smart-heart-rate-dector\Smart-heart-rate-dector\gagent\libgagent.a(otawan.o)	#SHT_PROGBITS,SHF_ALLOC|SHF_MERGE|SHF_STRINGS,1
	0x4303fae5		.L.str.17
.rodata.str1.1	0x4303faea	0x26	D:\Smart-heart-rate-dector\Smart-heart-rate-dector\gagent\libgagent.a(otawan.o)	#SHT_PROGBITS,SHF_ALLOC|SHF_MERGE|SHF_STRINGS,1
	0x4303faea		.L.str.18
.rodata.str1.1	0x4303fb10	0x5	D:\Smart-heart-rate-dector\Smart-heart-rate-dector\gagent\libgagent.a(otawan.o)	#SHT_PROGBITS,SHF_ALLOC|SHF_MERGE|SHF_STRINGS,1
	0x4303fb10		.L.str.19
.rodata.str1.1	0x4303fb15	0x26	D:\Smart-heart-rate-dector\Smart-heart-rate-dector\gagent\libgagent.a(otawan.o)	#SHT_PROGBITS,SHF_ALLOC|SHF_MERGE|SHF_STRINGS,1
	0x4303fb15		.L.str.20
.rodata.str1.1	0x4303fb3b	0x42	D:\Smart-heart-rate-dector\Smart-heart-rate-dector\gagent\libgagent.a(otawan.o)	#SHT_PROGBITS,SHF_ALLOC|SHF_MERGE|SHF_STRINGS,1
	0x4303fb3b		.L.str.21
.rodata.str1.1	0x4303fb7d	0x1f	D:\Smart-heart-rate-dector\Smart-heart-rate-dector\gagent\libgagent.a(otawan.o)	#SHT_PROGBITS,SHF_ALLOC|SHF_MERGE|SHF_STRINGS,1
	0x4303fb7d		.L.str.22
.rodata.str1.1	0x4303fb9c	0x12	D:\Smart-heart-rate-dector\Smart-heart-rate-dector\gagent\libgagent.a(otawan.o)	#SHT_PROGBITS,SHF_ALLOC|SHF_MERGE|SHF_STRINGS,1
	0x4303fb9c		.L__FUNCTION__.gatReqLastVersion
.rodata.str1.1	0x4303fbae	0x28	D:\Smart-heart-rate-dector\Smart-heart-rate-dector\gagent\libgagent.a(otawan.o)	#SHT_PROGBITS,SHF_ALLOC|SHF_MERGE|SHF_STRINGS,1
	0x4303fbae		.L.str.23
.rodata.str1.1	0x4303fbd6	0x6	D:\Smart-heart-rate-dector\Smart-heart-rate-dector\gagent\libgagent.a(otawan.o)	#SHT_PROGBITS,SHF_ALLOC|SHF_MERGE|SHF_STRINGS,1
	0x4303fbd6		.L.str.24
.rodata.str1.1	0x4303fbdc	0x5c	D:\Smart-heart-rate-dector\Smart-heart-rate-dector\gagent\libgagent.a(otawan.o)	#SHT_PROGBITS,SHF_ALLOC|SHF_MERGE|SHF_STRINGS,1
	0x4303fbdc		.L.str.25
.rodata.str1.1	0x4303fc38	0xd	D:\Smart-heart-rate-dector\Smart-heart-rate-dector\gagent\libgagent.a(otawan.o)	#SHT_PROGBITS,SHF_ALLOC|SHF_MERGE|SHF_STRINGS,1
	0x4303fc38		.L.str.26
.rodata.str1.1	0x4303fc45	0xc	D:\Smart-heart-rate-dector\Smart-heart-rate-dector\gagent\libgagent.a(otawan.o)	#SHT_PROGBITS,SHF_ALLOC|SHF_MERGE|SHF_STRINGS,1
	0x4303fc45		.L.str.27
.rodata.str1.1	0x4303fc51	0x24	D:\Smart-heart-rate-dector\Smart-heart-rate-dector\gagent\libgagent.a(otawan.o)	#SHT_PROGBITS,SHF_ALLOC|SHF_MERGE|SHF_STRINGS,1
	0x4303fc51		.L.str.30
.rodata.str1.1	0x4303fc75	0x14	D:\Smart-heart-rate-dector\Smart-heart-rate-dector\gagent\libgagent.a(otawan.o)	#SHT_PROGBITS,SHF_ALLOC|SHF_MERGE|SHF_STRINGS,1
	0x4303fc75		.L__FUNCTION__.gatReqLastVersionCb
.rodata.str1.1	0x4303fc89	0x2c	D:\Smart-heart-rate-dector\Smart-heart-rate-dector\gagent\libgagent.a(otawan.o)	#SHT_PROGBITS,SHF_ALLOC|SHF_MERGE|SHF_STRINGS,1
	0x4303fc89		.L.str.31
.rodata.str1.1	0x4303fcb5	0x29	D:\Smart-heart-rate-dector\Smart-heart-rate-dector\gagent\libgagent.a(otawan.o)	#SHT_PROGBITS,SHF_ALLOC|SHF_MERGE|SHF_STRINGS,1
	0x4303fcb5		.L.str.32
.rodata.str1.1	0x4303fcde	0x1d	D:\Smart-heart-rate-dector\Smart-heart-rate-dector\gagent\libgagent.a(otawan.o)	#SHT_PROGBITS,SHF_ALLOC|SHF_MERGE|SHF_STRINGS,1
	0x4303fcde		.L.str.33
.rodata.str1.1	0x4303fcfb	0x1a	D:\Smart-heart-rate-dector\Smart-heart-rate-dector\gagent\libgagent.a(otawan.o)	#SHT_PROGBITS,SHF_ALLOC|SHF_MERGE|SHF_STRINGS,1
	0x4303fcfb		.L.str.35
.rodata.str1.1	0x4303fd15	0x15	D:\Smart-heart-rate-dector\Smart-heart-rate-dector\gagent\libgagent.a(otawan.o)	#SHT_PROGBITS,SHF_ALLOC|SHF_MERGE|SHF_STRINGS,1
	0x4303fd15		.L.str.36
.rodata.str1.1	0x4303fd2a	0x14	D:\Smart-heart-rate-dector\Smart-heart-rate-dector\gagent\libgagent.a(otawan.o)	#SHT_PROGBITS,SHF_ALLOC|SHF_MERGE|SHF_STRINGS,1
	0x4303fd2a		.L.str.37
.rodata.str1.1	0x4303fd3e	0x15	D:\Smart-heart-rate-dector\Smart-heart-rate-dector\gagent\libgagent.a(otawan.o)	#SHT_PROGBITS,SHF_ALLOC|SHF_MERGE|SHF_STRINGS,1
	0x4303fd3e		.L.str.38
.rodata.str1.1	0x4303fd53	0x18	D:\Smart-heart-rate-dector\Smart-heart-rate-dector\gagent\libgagent.a(otawan.o)	#SHT_PROGBITS,SHF_ALLOC|SHF_MERGE|SHF_STRINGS,1
	0x4303fd53		.L.str.39
.rodata.str1.1	0x4303fd6b	0x18	D:\Smart-heart-rate-dector\Smart-heart-rate-dector\gagent\libgagent.a(otawan.o)	#SHT_PROGBITS,SHF_ALLOC|SHF_MERGE|SHF_STRINGS,1
	0x4303fd6b		.L.str.40
.rodata.str1.1	0x4303fd83	0x18	D:\Smart-heart-rate-dector\Smart-heart-rate-dector\gagent\libgagent.a(otawan.o)	#SHT_PROGBITS,SHF_ALLOC|SHF_MERGE|SHF_STRINGS,1
	0x4303fd83		.L.str.41
.rodata.str1.1	0x4303fd9b	0x20	D:\Smart-heart-rate-dector\Smart-heart-rate-dector\gagent\libgagent.a(otawan.o)	#SHT_PROGBITS,SHF_ALLOC|SHF_MERGE|SHF_STRINGS,1
	0x4303fd9b		.L.str.42
.rodata.str1.1	0x4303fdbb	0x11	D:\Smart-heart-rate-dector\Smart-heart-rate-dector\gagent\libgagent.a(otawan.o)	#SHT_PROGBITS,SHF_ALLOC|SHF_MERGE|SHF_STRINGS,1
	0x4303fdbb		.L__FUNCTION__.gatOtaSoftVerify
.rodata.str1.1	0x4303fdcc	0x9	D:\Smart-heart-rate-dector\Smart-heart-rate-dector\gagent\libgagent.a(otawan.o)	#SHT_PROGBITS,SHF_ALLOC|SHF_MERGE|SHF_STRINGS,1
	0x4303fdcc		.L.str.43
.rodata.str1.1	0x4303fdd5	0x22	D:\Smart-heart-rate-dector\Smart-heart-rate-dector\gagent\libgagent.a(otawan.o)	#SHT_PROGBITS,SHF_ALLOC|SHF_MERGE|SHF_STRINGS,1
	0x4303fdd5		.L.str.44
.rodata.str1.1	0x4303fdf7	0x1d	D:\Smart-heart-rate-dector\Smart-heart-rate-dector\gagent\libgagent.a(otawan.o)	#SHT_PROGBITS,SHF_ALLOC|SHF_MERGE|SHF_STRINGS,1
	0x4303fdf7		.L.str.45
.rodata.str1.1	0x4303fe14	0xd	D:\Smart-heart-rate-dector\Smart-heart-rate-dector\gagent\libgagent.a(otawan.o)	#SHT_PROGBITS,SHF_ALLOC|SHF_MERGE|SHF_STRINGS,1
	0x4303fe14		.L.str.46
.rodata.str1.1	0x4303fe21	0x8	D:\Smart-heart-rate-dector\Smart-heart-rate-dector\gagent\libgagent.a(otawan.o)	#SHT_PROGBITS,SHF_ALLOC|SHF_MERGE|SHF_STRINGS,1
	0x4303fe21		.L.str.47
.rodata.str1.1	0x4303fe29	0x37	D:\Smart-heart-rate-dector\Smart-heart-rate-dector\gagent\libgagent.a(otawan.o)	#SHT_PROGBITS,SHF_ALLOC|SHF_MERGE|SHF_STRINGS,1
	0x4303fe29		.L.str.50
.rodata.str1.1	0x4303fe60	0x2c	D:\Smart-heart-rate-dector\Smart-heart-rate-dector\gagent\libgagent.a(otawan.o)	#SHT_PROGBITS,SHF_ALLOC|SHF_MERGE|SHF_STRINGS,1
	0x4303fe60		.L.str.52
.rodata.str1.1	0x4303fe8c	0x13	D:\Smart-heart-rate-dector\Smart-heart-rate-dector\gagent\libgagent.a(otawan.o)	#SHT_PROGBITS,SHF_ALLOC|SHF_MERGE|SHF_STRINGS,1
	0x4303fe8c		.L.str.53
.rodata.str1.1	0x4303fe9f	0x34	D:\Smart-heart-rate-dector\Smart-heart-rate-dector\gagent\libgagent.a(otawan.o)	#SHT_PROGBITS,SHF_ALLOC|SHF_MERGE|SHF_STRINGS,1
	0x4303fe9f		.L.str.54
.rodata.str1.1	0x4303fed3	0x13	D:\Smart-heart-rate-dector\Smart-heart-rate-dector\gagent\libgagent.a(otawan.o)	#SHT_PROGBITS,SHF_ALLOC|SHF_MERGE|SHF_STRINGS,1
	0x4303fed3		.L__FUNCTION__.gatWanOtaStatusSet
.rodata.str1.1	0x4303fee6	0x26	D:\Smart-heart-rate-dector\Smart-heart-rate-dector\gagent\libgagent.a(otawan.o)	#SHT_PROGBITS,SHF_ALLOC|SHF_MERGE|SHF_STRINGS,1
	0x4303fee6		.L.str.55
.rodata.str1.1	0x4303ff0c	0x16	D:\Smart-heart-rate-dector\Smart-heart-rate-dector\gagent\libgagent.a(otawan.o)	#SHT_PROGBITS,SHF_ALLOC|SHF_MERGE|SHF_STRINGS,1
	0x4303ff0c		.L__FUNCTION__.gatDownLoadFirmwareCb
.rodata.str1.1	0x4303ff22	0x1a	D:\Smart-heart-rate-dector\Smart-heart-rate-dector\gagent\libgagent.a(otawan.o)	#SHT_PROGBITS,SHF_ALLOC|SHF_MERGE|SHF_STRINGS,1
	0x4303ff22		.L.str.56
.rodata.str1.1	0x4303ff3c	0x38	D:\Smart-heart-rate-dector\Smart-heart-rate-dector\gagent\libgagent.a(otawan.o)	#SHT_PROGBITS,SHF_ALLOC|SHF_MERGE|SHF_STRINGS,1
	0x4303ff3c		.L.str.57
.rodata.str1.1	0x4303ff74	0x35	D:\Smart-heart-rate-dector\Smart-heart-rate-dector\gagent\libgagent.a(otawan.o)	#SHT_PROGBITS,SHF_ALLOC|SHF_MERGE|SHF_STRINGS,1
	0x4303ff74		.L.str.58
.rodata.str1.1	0x4303ffa9	0x1a	D:\Smart-heart-rate-dector\Smart-heart-rate-dector\gagent\libgagent.a(otawan.o)	#SHT_PROGBITS,SHF_ALLOC|SHF_MERGE|SHF_STRINGS,1
	0x4303ffa9		.L.str.59
.rodata.str1.1	0x4303ffc3	0x1a	D:\Smart-heart-rate-dector\Smart-heart-rate-dector\gagent\libgagent.a(otawan.o)	#SHT_PROGBITS,SHF_ALLOC|SHF_MERGE|SHF_STRINGS,1
	0x4303ffc3		.L.str.60
.rodata.str1.1	0x4303ffdd	0x1a	D:\Smart-heart-rate-dector\Smart-heart-rate-dector\gagent\libgagent.a(otawan.o)	#SHT_PROGBITS,SHF_ALLOC|SHF_MERGE|SHF_STRINGS,1
	0x4303ffdd		.L.str.61
.rodata.str1.1	0x4303fff7	0x1a	D:\Smart-heart-rate-dector\Smart-heart-rate-dector\gagent\libgagent.a(otawan.o)	#SHT_PROGBITS,SHF_ALLOC|SHF_MERGE|SHF_STRINGS,1
	0x4303fff7		.L.str.62
.rodata.str1.1	0x43040011	0x12	D:\Smart-heart-rate-dector\Smart-heart-rate-dector\gagent\libgagent.a(otawan.o)	#SHT_PROGBITS,SHF_ALLOC|SHF_MERGE|SHF_STRINGS,1
	0x43040011		.L.str.63
.rodata.str1.1	0x43040023	0x1a	D:\Smart-heart-rate-dector\Smart-heart-rate-dector\gagent\libgagent.a(otawan.o)	#SHT_PROGBITS,SHF_ALLOC|SHF_MERGE|SHF_STRINGS,1
	0x43040023		.L.str.64
.rodata.str1.1	0x4304003d	0x11	D:\Smart-heart-rate-dector\Smart-heart-rate-dector\gagent\libgagent.a(otawan.o)	#SHT_PROGBITS,SHF_ALLOC|SHF_MERGE|SHF_STRINGS,1
	0x4304003d		.L.str.65
.rodata.str1.1	0x4304004e	0x14	D:\Smart-heart-rate-dector\Smart-heart-rate-dector\gagent\libgagent.a(otawan.o)	#SHT_PROGBITS,SHF_ALLOC|SHF_MERGE|SHF_STRINGS,1
	0x4304004e		.L.str.67
.rodata.str1.1	0x43040062	0x13	D:\Smart-heart-rate-dector\Smart-heart-rate-dector\gagent\libgagent.a(otawan.o)	#SHT_PROGBITS,SHF_ALLOC|SHF_MERGE|SHF_STRINGS,1
	0x43040062		.L.str.68
.rodata.str1.1	0x43040075	0x17	D:\Smart-heart-rate-dector\Smart-heart-rate-dector\gagent\libgagent.a(otawan.o)	#SHT_PROGBITS,SHF_ALLOC|SHF_MERGE|SHF_STRINGS,1
	0x43040075		.L.str.69
.rodata.str1.1	0x4304008c	0x29	D:\Smart-heart-rate-dector\Smart-heart-rate-dector\gagent\libgagent.a(otawan.o)	#SHT_PROGBITS,SHF_ALLOC|SHF_MERGE|SHF_STRINGS,1
	0x4304008c		.L.str.70
.rodata.str1.1	0x430400b5	0x15	D:\Smart-heart-rate-dector\Smart-heart-rate-dector\gagent\libgagent.a(otawan.o)	#SHT_PROGBITS,SHF_ALLOC|SHF_MERGE|SHF_STRINGS,1
	0x430400b5		.L.str.71
.rodata.str1.1	0x430400ca	0x12	D:\Smart-heart-rate-dector\Smart-heart-rate-dector\gagent\libgagent.a(otawan.o)	#SHT_PROGBITS,SHF_ALLOC|SHF_MERGE|SHF_STRINGS,1
	0x430400ca		.L.str.72
.rodata.str1.1	0x430400dc	0x5c	D:\Smart-heart-rate-dector\Smart-heart-rate-dector\gagent\libgagent.a(otawan.o)	#SHT_PROGBITS,SHF_ALLOC|SHF_MERGE|SHF_STRINGS,1
	0x430400dc		.L.str.73
.rodata.str1.1	0x43040138	0x1e	D:\Smart-heart-rate-dector\Smart-heart-rate-dector\gagent\libgagent.a(otawan.o)	#SHT_PROGBITS,SHF_ALLOC|SHF_MERGE|SHF_STRINGS,1
	0x43040138		.L.str.74
.rodata.str1.1	0x43040156	0x20	D:\Smart-heart-rate-dector\Smart-heart-rate-dector\gagent\libgagent.a(otawan.o)	#SHT_PROGBITS,SHF_ALLOC|SHF_MERGE|SHF_STRINGS,1
	0x43040156		.L.str.75
.rodata.str1.1	0x43040176	0x21	D:\Smart-heart-rate-dector\Smart-heart-rate-dector\gagent\libgagent.a(otawan.o)	#SHT_PROGBITS,SHF_ALLOC|SHF_MERGE|SHF_STRINGS,1
	0x43040176		.L.str.76
.rodata.str1.1	0x43040197	0x31	D:\Smart-heart-rate-dector\Smart-heart-rate-dector\gagent\libgagent.a(otawan.o)	#SHT_PROGBITS,SHF_ALLOC|SHF_MERGE|SHF_STRINGS,1
	0x43040197		.L.str.77
.rodata.str1.1	0x430401c8	0x20	D:\Smart-heart-rate-dector\Smart-heart-rate-dector\gagent\libgagent.a(otawan.o)	#SHT_PROGBITS,SHF_ALLOC|SHF_MERGE|SHF_STRINGS,1
	0x430401c8		.L.str.78
.rodata.str1.1	0x430401e8	0x23	D:\Smart-heart-rate-dector\Smart-heart-rate-dector\gagent\libgagent.a(otawan.o)	#SHT_PROGBITS,SHF_ALLOC|SHF_MERGE|SHF_STRINGS,1
	0x430401e8		.L.str.79
.rodata.str1.1	0x4304020b	0x4d	D:\Smart-heart-rate-dector\Smart-heart-rate-dector\gagent\libgagent.a(otawan.o)	#SHT_PROGBITS,SHF_ALLOC|SHF_MERGE|SHF_STRINGS,1
	0x4304020b		.L.str.80
.rodata.str1.1	0x43040258	0x39	D:\Smart-heart-rate-dector\Smart-heart-rate-dector\gagent\libgagent.a(otawan.o)	#SHT_PROGBITS,SHF_ALLOC|SHF_MERGE|SHF_STRINGS,1
	0x43040258		.L.str.81
.rodata.str1.1	0x43040291	0x12	D:\Smart-heart-rate-dector\Smart-heart-rate-dector\gagent\libgagent.a(otawan.o)	#SHT_PROGBITS,SHF_ALLOC|SHF_MERGE|SHF_STRINGS,1
	0x43040291		.L.str.82
.rodata.str1.1	0x430402a3	0x15	D:\Smart-heart-rate-dector\Smart-heart-rate-dector\gagent\libgagent.a(otawan.o)	#SHT_PROGBITS,SHF_ALLOC|SHF_MERGE|SHF_STRINGS,1
	0x430402a3		.L__FUNCTION__.gatReDownloadTimerCb
.rodata.str1.1	0x430402b8	0x1e	D:\Smart-heart-rate-dector\Smart-heart-rate-dector\gagent\libgagent.a(simulator.o)	#SHT_PROGBITS,SHF_ALLOC|SHF_MERGE|SHF_STRINGS,1
	0x430402b8		.L__FUNCTION__.simulatorLogOutCloudTimeOutCb
.rodata.str1.1	0x430402d6	0x28	D:\Smart-heart-rate-dector\Smart-heart-rate-dector\gagent\libgagent.a(simulator.o)	#SHT_PROGBITS,SHF_ALLOC|SHF_MERGE|SHF_STRINGS,1
	0x430402d6		.L.str.3
.rodata.str1.1	0x430402fe	0x13	D:\Smart-heart-rate-dector\Smart-heart-rate-dector\gagent\libgagent.a(simulator.o)	#SHT_PROGBITS,SHF_ALLOC|SHF_MERGE|SHF_STRINGS,1
	0x430402fe		.L__FUNCTION__.onSimulatorLoginCb
.rodata.str1.1	0x43040311	0x17	D:\Smart-heart-rate-dector\Smart-heart-rate-dector\gagent\libgagent.a(simulator.o)	#SHT_PROGBITS,SHF_ALLOC|SHF_MERGE|SHF_STRINGS,1
	0x43040311		.L.str.9
.rodata.str1.1	0x43040328	0x38	D:\Smart-heart-rate-dector\Smart-heart-rate-dector\gagent\libgagent.a(simulator.o)	#SHT_PROGBITS,SHF_ALLOC|SHF_MERGE|SHF_STRINGS,1
	0x43040328		.L.str.10
.rodata.str1.1	0x43040360	0x22	D:\Smart-heart-rate-dector\Smart-heart-rate-dector\gagent\libgagent.a(simulator.o)	#SHT_PROGBITS,SHF_ALLOC|SHF_MERGE|SHF_STRINGS,1
	0x43040360		.L.str.11
.rodata.str1.1	0x43040382	0x10	D:\Smart-heart-rate-dector\Smart-heart-rate-dector\gagent\libgagent.a(simulator.o)	#SHT_PROGBITS,SHF_ALLOC|SHF_MERGE|SHF_STRINGS,1
	0x43040382		.L.str.14
.rodata.str1.1	0x43040392	0x15	D:\Smart-heart-rate-dector\Smart-heart-rate-dector\gagent\libgagent.a(simulator.o)	#SHT_PROGBITS,SHF_ALLOC|SHF_MERGE|SHF_STRINGS,1
	0x43040392		.L__FUNCTION__.onSimulatorSignOutCb
.rodata.str1.1	0x430403a7	0x1a	D:\Smart-heart-rate-dector\Smart-heart-rate-dector\gagent\libgagent.a(simulator.o)	#SHT_PROGBITS,SHF_ALLOC|SHF_MERGE|SHF_STRINGS,1
	0x430403a7		.L.str.15
.rodata.str1.1	0x430403c1	0x24	D:\Smart-heart-rate-dector\Smart-heart-rate-dector\gagent\libgagent.a(simulator.o)	#SHT_PROGBITS,SHF_ALLOC|SHF_MERGE|SHF_STRINGS,1
	0x430403c1		.L.str.16
.rodata.str1.1	0x430403e5	0x25	D:\Smart-heart-rate-dector\Smart-heart-rate-dector\gagent\libgagent.a(simulator.o)	#SHT_PROGBITS,SHF_ALLOC|SHF_MERGE|SHF_STRINGS,1
	0x430403e5		.L.str.17
.rodata.str1.1	0x4304040a	0x14	D:\Smart-heart-rate-dector\Smart-heart-rate-dector\gagent\libgagent.a(simulator.o)	#SHT_PROGBITS,SHF_ALLOC|SHF_MERGE|SHF_STRINGS,1
	0x4304040a		.L.str.18
.rodata.str1.1	0x4304041e	0x15	D:\Smart-heart-rate-dector\Smart-heart-rate-dector\gagent\libgagent.a(simulator.o)	#SHT_PROGBITS,SHF_ALLOC|SHF_MERGE|SHF_STRINGS,1
	0x4304041e		.L__FUNCTION__.gatSubDevsRegisterCb
.rodata.str1.1	0x43040433	0x2b	D:\Smart-heart-rate-dector\Smart-heart-rate-dector\gagent\libgagent.a(simulator.o)	#SHT_PROGBITS,SHF_ALLOC|SHF_MERGE|SHF_STRINGS,1
	0x43040433		.L.str.19
.rodata.str1.1	0x4304045e	0x14	D:\Smart-heart-rate-dector\Smart-heart-rate-dector\gagent\libgagent.a(simulator.o)	#SHT_PROGBITS,SHF_ALLOC|SHF_MERGE|SHF_STRINGS,1
	0x4304045e		.L.str.20
.rodata.str1.1	0x43040472	0x12	D:\Smart-heart-rate-dector\Smart-heart-rate-dector\gagent\libgagent.a(simulator.o)	#SHT_PROGBITS,SHF_ALLOC|SHF_MERGE|SHF_STRINGS,1
	0x43040472		.L__FUNCTION__.gagentconnect2M2M
.rodata.str1.1	0x43040484	0x21	D:\Smart-heart-rate-dector\Smart-heart-rate-dector\gagent\libgagent.a(simulator.o)	#SHT_PROGBITS,SHF_ALLOC|SHF_MERGE|SHF_STRINGS,1
	0x43040484		.L.str.21
.rodata.str1.1	0x430404a5	0x24	D:\Smart-heart-rate-dector\Smart-heart-rate-dector\gagent\libgagent.a(simulator.o)	#SHT_PROGBITS,SHF_ALLOC|SHF_MERGE|SHF_STRINGS,1
	0x430404a5		.L.str.22
.rodata.str1.1	0x430404c9	0x1d	D:\Smart-heart-rate-dector\Smart-heart-rate-dector\gagent\libgagent.a(simulator.o)	#SHT_PROGBITS,SHF_ALLOC|SHF_MERGE|SHF_STRINGS,1
	0x430404c9		.L.str.23
.rodata.str1.1	0x430404e6	0x11	D:\Smart-heart-rate-dector\Smart-heart-rate-dector\gagent\libgagent.a(simulator.o)	#SHT_PROGBITS,SHF_ALLOC|SHF_MERGE|SHF_STRINGS,1
	0x430404e6		.L.str.24
.rodata.str1.1	0x430404f7	0x3f	D:\Smart-heart-rate-dector\Smart-heart-rate-dector\gagent\libgagent.a(simulator.o)	#SHT_PROGBITS,SHF_ALLOC|SHF_MERGE|SHF_STRINGS,1
	0x430404f7		.L.str.25
.rodata.str1.1	0x43040536	0x29	D:\Smart-heart-rate-dector\Smart-heart-rate-dector\gagent\libgagent.a(simulator.o)	#SHT_PROGBITS,SHF_ALLOC|SHF_MERGE|SHF_STRINGS,1
	0x43040536		.L.str.26
.rodata.str1.1	0x4304055f	0x14	D:\Smart-heart-rate-dector\Smart-heart-rate-dector\gagent\libgagent.a(simulator.o)	#SHT_PROGBITS,SHF_ALLOC|SHF_MERGE|SHF_STRINGS,1
	0x4304055f		.L__FUNCTION__.gagentDisconnectM2M
.rodata.str1.1	0x43040573	0x1c	D:\Smart-heart-rate-dector\Smart-heart-rate-dector\gagent\libgagent.a(simulator.o)	#SHT_PROGBITS,SHF_ALLOC|SHF_MERGE|SHF_STRINGS,1
	0x43040573		.L.str.27
.rodata.str1.1	0x4304058f	0xc	D:\Smart-heart-rate-dector\Smart-heart-rate-dector\gagent\libgagent.a(simulator.o)	#SHT_PROGBITS,SHF_ALLOC|SHF_MERGE|SHF_STRINGS,1
	0x4304058f		.L.str.28
.rodata.str1.1	0x4304059b	0x32	D:\Smart-heart-rate-dector\Smart-heart-rate-dector\gagent\libgagent.a(simulator.o)	#SHT_PROGBITS,SHF_ALLOC|SHF_MERGE|SHF_STRINGS,1
	0x4304059b		.L.str.29
.rodata.str1.1	0x430405cd	0x19	D:\Smart-heart-rate-dector\Smart-heart-rate-dector\gagent\libgagent.a(simulator.o)	#SHT_PROGBITS,SHF_ALLOC|SHF_MERGE|SHF_STRINGS,1
	0x430405cd		.L.str.30
.rodata.str1.1	0x430405e6	0x5b	D:\Smart-heart-rate-dector\Smart-heart-rate-dector\gagent\libgagent.a(simulator.o)	#SHT_PROGBITS,SHF_ALLOC|SHF_MERGE|SHF_STRINGS,1
	0x430405e6		.L.str.31
.rodata.str1.1	0x43040641	0x15	D:\Smart-heart-rate-dector\Smart-heart-rate-dector\gagent\libgagent.a(simulator.o)	#SHT_PROGBITS,SHF_ALLOC|SHF_MERGE|SHF_STRINGS,1
	0x43040641		.L__FUNCTION__.gagentResetSimulator
.rodata.str1.1	0x43040656	0x44	D:\Smart-heart-rate-dector\Smart-heart-rate-dector\gagent\libgagent.a(simulator.o)	#SHT_PROGBITS,SHF_ALLOC|SHF_MERGE|SHF_STRINGS,1
	0x43040656		.L.str.32
.rodata.str1.1	0x4304069a	0x2c	D:\Smart-heart-rate-dector\Smart-heart-rate-dector\gagent\libgagent.a(simulator.o)	#SHT_PROGBITS,SHF_ALLOC|SHF_MERGE|SHF_STRINGS,1
	0x4304069a		.L.str.33
.rodata.str1.1	0x430406c6	0xe	D:\Smart-heart-rate-dector\Smart-heart-rate-dector\gagent\libgagent.a(simulator.o)	#SHT_PROGBITS,SHF_ALLOC|SHF_MERGE|SHF_STRINGS,1
	0x430406c6		.L.str.34
.rodata.str1.1	0x430406d4	0x25	D:\Smart-heart-rate-dector\Smart-heart-rate-dector\gagent\libgagent.a(simulator.o)	#SHT_PROGBITS,SHF_ALLOC|SHF_MERGE|SHF_STRINGS,1
	0x430406d4		.L.str.35
.rodata.str1.1	0x430406f9	0x24	D:\Smart-heart-rate-dector\Smart-heart-rate-dector\gagent\libgagent.a(simulator.o)	#SHT_PROGBITS,SHF_ALLOC|SHF_MERGE|SHF_STRINGS,1
	0x430406f9		.L.str.36
.rodata.str1.1	0x4304071d	0x25	D:\Smart-heart-rate-dector\Smart-heart-rate-dector\gagent\libgagent.a(simulator.o)	#SHT_PROGBITS,SHF_ALLOC|SHF_MERGE|SHF_STRINGS,1
	0x4304071d		.L.str.37
.rodata.str1.1	0x43040742	0x28	D:\Smart-heart-rate-dector\Smart-heart-rate-dector\gagent\libgagent.a(simulator.o)	#SHT_PROGBITS,SHF_ALLOC|SHF_MERGE|SHF_STRINGS,1
	0x43040742		.L.str.38
.rodata.str1.1	0x4304076a	0x23	D:\Smart-heart-rate-dector\Smart-heart-rate-dector\gagent\libgagent.a(simulator.o)	#SHT_PROGBITS,SHF_ALLOC|SHF_MERGE|SHF_STRINGS,1
	0x4304076a		.L.str.39
.rodata.str1.1	0x4304078d	0x13	D:\Smart-heart-rate-dector\Smart-heart-rate-dector\gagent\libgagent.a(simulator.o)	#SHT_PROGBITS,SHF_ALLOC|SHF_MERGE|SHF_STRINGS,1
	0x4304078d		.L__FUNCTION__.gagentDevsRegister
.rodata.str1.1	0x430407a0	0x24	D:\Smart-heart-rate-dector\Smart-heart-rate-dector\gagent\libgagent.a(simulator.o)	#SHT_PROGBITS,SHF_ALLOC|SHF_MERGE|SHF_STRINGS,1
	0x430407a0		.L.str.40
.rodata.str1.1	0x430407c4	0x24	D:\Smart-heart-rate-dector\Smart-heart-rate-dector\gagent\libgagent.a(simulator.o)	#SHT_PROGBITS,SHF_ALLOC|SHF_MERGE|SHF_STRINGS,1
	0x430407c4		.L.str.41
.rodata.str1.1	0x430407e8	0x27	D:\Smart-heart-rate-dector\Smart-heart-rate-dector\gagent\libgagent.a(simulator.o)	#SHT_PROGBITS,SHF_ALLOC|SHF_MERGE|SHF_STRINGS,1
	0x430407e8		.L.str.42
.rodata.str1.1	0x4304080f	0x45	D:\Smart-heart-rate-dector\Smart-heart-rate-dector\gagent\libgagent.a(simulator.o)	#SHT_PROGBITS,SHF_ALLOC|SHF_MERGE|SHF_STRINGS,1
	0x4304080f		.L.str.43
.rodata.str1.1	0x43040854	0x3c	D:\Smart-heart-rate-dector\Smart-heart-rate-dector\gagent\libgagent.a(simulator.o)	#SHT_PROGBITS,SHF_ALLOC|SHF_MERGE|SHF_STRINGS,1
	0x43040854		.L.str.44
.rodata.str1.1	0x43040890	0x2d	D:\Smart-heart-rate-dector\Smart-heart-rate-dector\gagent\libgagent.a(simulator.o)	#SHT_PROGBITS,SHF_ALLOC|SHF_MERGE|SHF_STRINGS,1
	0x43040890		.L.str.45
.rodata.str1.1	0x430408bd	0x41	D:\Smart-heart-rate-dector\Smart-heart-rate-dector\gagent\libgagent.a(simulator.o)	#SHT_PROGBITS,SHF_ALLOC|SHF_MERGE|SHF_STRINGS,1
	0x430408bd		.L.str.46
.rodata.str1.1	0x430408fe	0x40	D:\Smart-heart-rate-dector\Smart-heart-rate-dector\gagent\libgagent.a(simulator.o)	#SHT_PROGBITS,SHF_ALLOC|SHF_MERGE|SHF_STRINGS,1
	0x430408fe		.L.str.47
.rodata.str1.1	0x4304093e	0x10	D:\Smart-heart-rate-dector\Smart-heart-rate-dector\gagent\libgagent.a(simulator.o)	#SHT_PROGBITS,SHF_ALLOC|SHF_MERGE|SHF_STRINGS,1
	0x4304093e		.L.str.48
.rodata.str1.1	0x4304094e	0x1c	D:\Smart-heart-rate-dector\Smart-heart-rate-dector\gagent\libgagent.a(simulator.o)	#SHT_PROGBITS,SHF_ALLOC|SHF_MERGE|SHF_STRINGS,1
	0x4304094e		.L.str.49
.rodata.str1.1	0x4304096a	0x20	D:\Smart-heart-rate-dector\Smart-heart-rate-dector\gagent\libgagent.a(simulator.o)	#SHT_PROGBITS,SHF_ALLOC|SHF_MERGE|SHF_STRINGS,1
	0x4304096a		.L.str.50
.rodata.str1.1	0x4304098a	0x1e	D:\Smart-heart-rate-dector\Smart-heart-rate-dector\gagent\libgagent.a(simulator.o)	#SHT_PROGBITS,SHF_ALLOC|SHF_MERGE|SHF_STRINGS,1
	0x4304098a		.L.str.51
.rodata.str1.1	0x430409a8	0xb	D:\Smart-heart-rate-dector\Smart-heart-rate-dector\gagent\libgagent.a(simulator.o)	#SHT_PROGBITS,SHF_ALLOC|SHF_MERGE|SHF_STRINGS,1
	0x430409a8		.L.str.53
.rodata.str1.1	0x430409b3	0xf	D:\Smart-heart-rate-dector\Smart-heart-rate-dector\gagent\libgagent.a(simulator.o)	#SHT_PROGBITS,SHF_ALLOC|SHF_MERGE|SHF_STRINGS,1
	0x430409b3		.L.str.54
.rodata.str1.1	0x430409c2	0x16	D:\Smart-heart-rate-dector\Smart-heart-rate-dector\gagent\libgagent.a(simulator.o)	#SHT_PROGBITS,SHF_ALLOC|SHF_MERGE|SHF_STRINGS,1
	0x430409c2		.L.str.55
.rodata.str1.1	0x430409d8	0x6	D:\Smart-heart-rate-dector\Smart-heart-rate-dector\gagent\libgagent.a(simulator.o)	#SHT_PROGBITS,SHF_ALLOC|SHF_MERGE|SHF_STRINGS,1
.rodata.str1.1	0x430409de	0xd	D:\Smart-heart-rate-dector\Smart-heart-rate-dector\gagent\libgagent.a(simulator.o)	#SHT_PROGBITS,SHF_ALLOC|SHF_MERGE|SHF_STRINGS,1
	0x430409de		.L.str.57
.rodata.str1.1	0x430409eb	0xc	D:\Smart-heart-rate-dector\Smart-heart-rate-dector\gagent\libgagent.a(simulator.o)	#SHT_PROGBITS,SHF_ALLOC|SHF_MERGE|SHF_STRINGS,1
	0x430409eb		.L.str.58
.rodata.str1.1	0x430409f7	0x14	D:\Smart-heart-rate-dector\Smart-heart-rate-dector\gagent\libgagent.a(simulator.o)	#SHT_PROGBITS,SHF_ALLOC|SHF_MERGE|SHF_STRINGS,1
	0x430409f7		.L.str.59
.rodata.str1.1	0x43040a0b	0x1e	D:\Smart-heart-rate-dector\Smart-heart-rate-dector\gagent\libgagent.a(simulator.o)	#SHT_PROGBITS,SHF_ALLOC|SHF_MERGE|SHF_STRINGS,1
	0x43040a0b		.L.str.60
.rodata.str1.1	0x43040a29	0x20	D:\Smart-heart-rate-dector\Smart-heart-rate-dector\gagent\libgagent.a(simulator.o)	#SHT_PROGBITS,SHF_ALLOC|SHF_MERGE|SHF_STRINGS,1
	0x43040a29		.L.str.61
.rodata.str1.1	0x43040a49	0x2a	D:\Smart-heart-rate-dector\Smart-heart-rate-dector\gagent\libgagent.a(simulator.o)	#SHT_PROGBITS,SHF_ALLOC|SHF_MERGE|SHF_STRINGS,1
	0x43040a49		.L.str.62
.rodata.str1.1	0x43040a73	0x23	D:\Smart-heart-rate-dector\Smart-heart-rate-dector\gagent\libgagent.a(simulator.o)	#SHT_PROGBITS,SHF_ALLOC|SHF_MERGE|SHF_STRINGS,1
	0x43040a73		.L.str.63
.rodata.str1.1	0x43040a96	0x22	D:\Smart-heart-rate-dector\Smart-heart-rate-dector\gagent\libgagent.a(simulator.o)	#SHT_PROGBITS,SHF_ALLOC|SHF_MERGE|SHF_STRINGS,1
	0x43040a96		.L.str.64
.rodata.str1.1	0x43040ab8	0x23	D:\Smart-heart-rate-dector\Smart-heart-rate-dector\gagent\libgagent.a(simulator.o)	#SHT_PROGBITS,SHF_ALLOC|SHF_MERGE|SHF_STRINGS,1
	0x43040ab8		.L.str.68
.rodata.str1.1	0x43040adb	0x26	D:\Smart-heart-rate-dector\Smart-heart-rate-dector\gagent\libgagent.a(simulator.o)	#SHT_PROGBITS,SHF_ALLOC|SHF_MERGE|SHF_STRINGS,1
	0x43040adb		.L.str.69
.rodata.str1.1	0x43040b01	0x1c	D:\Smart-heart-rate-dector\Smart-heart-rate-dector\gagent\libgagent.a(simulator.o)	#SHT_PROGBITS,SHF_ALLOC|SHF_MERGE|SHF_STRINGS,1
	0x43040b01		.L__FUNCTION__.simulatorDevsLoginTimeOutCb
.rodata.str1.1	0x43040b1d	0x20	D:\Smart-heart-rate-dector\Smart-heart-rate-dector\gagent\libgagent.a(simulator.o)	#SHT_PROGBITS,SHF_ALLOC|SHF_MERGE|SHF_STRINGS,1
	0x43040b1d		.L.str.70
.rodata.str1.1	0x43040b3d	0x10	D:\Smart-heart-rate-dector\Smart-heart-rate-dector\gagent\libgagent.a(simulator.o)	#SHT_PROGBITS,SHF_ALLOC|SHF_MERGE|SHF_STRINGS,1
	0x43040b3d		.L__FUNCTION__.gagentDevsLogin
.rodata.str1.1	0x43040b4d	0x1e	D:\Smart-heart-rate-dector\Smart-heart-rate-dector\gagent\libgagent.a(simulator.o)	#SHT_PROGBITS,SHF_ALLOC|SHF_MERGE|SHF_STRINGS,1
	0x43040b4d		.L.str.71
.rodata.str1.1	0x43040b6b	0x43	D:\Smart-heart-rate-dector\Smart-heart-rate-dector\gagent\libgagent.a(simulator.o)	#SHT_PROGBITS,SHF_ALLOC|SHF_MERGE|SHF_STRINGS,1
	0x43040b6b		.L.str.72
.rodata.str1.1	0x43040bae	0x17	D:\Smart-heart-rate-dector\Smart-heart-rate-dector\gagent\libgagent.a(simulator.o)	#SHT_PROGBITS,SHF_ALLOC|SHF_MERGE|SHF_STRINGS,1
	0x43040bae		.L.str.73
.rodata.str1.1	0x43040bc5	0x11	D:\Smart-heart-rate-dector\Smart-heart-rate-dector\gagent\libgagent.a(simulator.o)	#SHT_PROGBITS,SHF_ALLOC|SHF_MERGE|SHF_STRINGS,1
	0x43040bc5		.L.str.75
.rodata.str1.1	0x43040bd6	0x21	D:\Smart-heart-rate-dector\Smart-heart-rate-dector\gagent\libgagent.a(simulator.o)	#SHT_PROGBITS,SHF_ALLOC|SHF_MERGE|SHF_STRINGS,1
	0x43040bd6		.L.str.76
.rodata.str1.1	0x43040bf7	0x1c	D:\Smart-heart-rate-dector\Smart-heart-rate-dector\gagent\libgagent.a(simulator.o)	#SHT_PROGBITS,SHF_ALLOC|SHF_MERGE|SHF_STRINGS,1
	0x43040bf7		.L__FUNCTION__.simulatorM2MSignOutSocketCb
.rodata.str1.1	0x43040c13	0x47	D:\Smart-heart-rate-dector\Smart-heart-rate-dector\gagent\libgagent.a(simulator.o)	#SHT_PROGBITS,SHF_ALLOC|SHF_MERGE|SHF_STRINGS,1
	0x43040c13		.L.str.77
.rodata.str1.1	0x43040c5a	0x1c	D:\Smart-heart-rate-dector\Smart-heart-rate-dector\gagent\libgagent.a(simulator.o)	#SHT_PROGBITS,SHF_ALLOC|SHF_MERGE|SHF_STRINGS,1
	0x43040c5a		.L__FUNCTION__.simulatorGServerResetRec_Cb
.rodata.str1.1	0x43040c76	0x30	D:\Smart-heart-rate-dector\Smart-heart-rate-dector\gagent\libgagent.a(simulator.o)	#SHT_PROGBITS,SHF_ALLOC|SHF_MERGE|SHF_STRINGS,1
	0x43040c76		.L.str.78
.rodata.str1.1	0x43040ca6	0x33	D:\Smart-heart-rate-dector\Smart-heart-rate-dector\gagent\libgagent.a(simulator.o)	#SHT_PROGBITS,SHF_ALLOC|SHF_MERGE|SHF_STRINGS,1
	0x43040ca6		.L.str.79
.rodata.str1.1	0x43040cd9	0x1e	D:\Smart-heart-rate-dector\Smart-heart-rate-dector\gagent\libgagent.a(simulator.o)	#SHT_PROGBITS,SHF_ALLOC|SHF_MERGE|SHF_STRINGS,1
	0x43040cd9		.L.str.80
.rodata.str1.1	0x43040cf7	0x17	D:\Smart-heart-rate-dector\Smart-heart-rate-dector\gagent\libgagent.a(simulator.o)	#SHT_PROGBITS,SHF_ALLOC|SHF_MERGE|SHF_STRINGS,1
	0x43040cf7		.L.str.81
.rodata.str1.1	0x43040d0e	0x1b	D:\Smart-heart-rate-dector\Smart-heart-rate-dector\gagent\libgagent.a(simulator.o)	#SHT_PROGBITS,SHF_ALLOC|SHF_MERGE|SHF_STRINGS,1
	0x43040d0e		.L.str.83
.rodata.str1.1	0x43040d29	0x19	D:\Smart-heart-rate-dector\Smart-heart-rate-dector\gagent\libgagent.a(simulator.o)	#SHT_PROGBITS,SHF_ALLOC|SHF_MERGE|SHF_STRINGS,1
	0x43040d29		.L.str.84
.rodata.str1.1	0x43040d42	0x16	D:\Smart-heart-rate-dector\Smart-heart-rate-dector\gagent\libgagent.a(simulator.o)	#SHT_PROGBITS,SHF_ALLOC|SHF_MERGE|SHF_STRINGS,1
	0x43040d42		.L.str.85
.rodata.str1.1	0x43040d58	0x1a	D:\Smart-heart-rate-dector\Smart-heart-rate-dector\gagent\libgagent.a(simulator.o)	#SHT_PROGBITS,SHF_ALLOC|SHF_MERGE|SHF_STRINGS,1
	0x43040d58		.L__FUNCTION__.simulatorGServerRecHandle
.rodata.str1.1	0x43040d72	0x47	D:\Smart-heart-rate-dector\Smart-heart-rate-dector\gagent\libgagent.a(simulator.o)	#SHT_PROGBITS,SHF_ALLOC|SHF_MERGE|SHF_STRINGS,1
	0x43040d72		.L.str.87
.rodata.str1.1	0x43040db9	0x40	D:\Smart-heart-rate-dector\Smart-heart-rate-dector\gagent\libgagent.a(simulator.o)	#SHT_PROGBITS,SHF_ALLOC|SHF_MERGE|SHF_STRINGS,1
	0x43040db9		.L.str.88
.rodata.str1.1	0x43040df9	0x26	D:\Smart-heart-rate-dector\Smart-heart-rate-dector\gagent\libgagent.a(simulator.o)	#SHT_PROGBITS,SHF_ALLOC|SHF_MERGE|SHF_STRINGS,1
	0x43040df9		.L.str.89
.rodata.str1.1	0x43040e1f	0x18	D:\Smart-heart-rate-dector\Smart-heart-rate-dector\gagent\libgagent.a(simulator.o)	#SHT_PROGBITS,SHF_ALLOC|SHF_MERGE|SHF_STRINGS,1
	0x43040e1f		.L.str.90
.rodata.str1.1	0x43040e37	0x29	D:\Smart-heart-rate-dector\Smart-heart-rate-dector\gagent\libgagent.a(simulator.o)	#SHT_PROGBITS,SHF_ALLOC|SHF_MERGE|SHF_STRINGS,1
	0x43040e37		.L.str.91
.rodata.str1.1	0x43040e60	0x37	D:\Smart-heart-rate-dector\Smart-heart-rate-dector\gagent\libgagent.a(simulator.o)	#SHT_PROGBITS,SHF_ALLOC|SHF_MERGE|SHF_STRINGS,1
	0x43040e60		.L.str.94
.rodata.str1.1	0x43040e97	0x26	D:\Smart-heart-rate-dector\Smart-heart-rate-dector\gagent\libgagent.a(simulator.o)	#SHT_PROGBITS,SHF_ALLOC|SHF_MERGE|SHF_STRINGS,1
	0x43040e97		.L.str.95
.rodata.str1.1	0x43040ebd	0x2d	D:\Smart-heart-rate-dector\Smart-heart-rate-dector\gagent\libgagent.a(simulator.o)	#SHT_PROGBITS,SHF_ALLOC|SHF_MERGE|SHF_STRINGS,1
	0x43040ebd		.L.str.96
.rodata.str1.1	0x43040eea	0x2d	D:\Smart-heart-rate-dector\Smart-heart-rate-dector\gagent\libgagent.a(simulator.o)	#SHT_PROGBITS,SHF_ALLOC|SHF_MERGE|SHF_STRINGS,1
	0x43040eea		.L.str.97
.rodata.str1.1	0x43040f17	0x18	D:\Smart-heart-rate-dector\Smart-heart-rate-dector\gagent\libgagent.a(simulator.o)	#SHT_PROGBITS,SHF_ALLOC|SHF_MERGE|SHF_STRINGS,1
	0x43040f17		.L.str.98
.rodata.str1.1	0x43040f2f	0x30	D:\Smart-heart-rate-dector\Smart-heart-rate-dector\gagent\libgagent.a(simulator.o)	#SHT_PROGBITS,SHF_ALLOC|SHF_MERGE|SHF_STRINGS,1
	0x43040f2f		.L.str.99
.rodata.str1.1	0x43040f5f	0x35	D:\Smart-heart-rate-dector\Smart-heart-rate-dector\gagent\libgagent.a(simulator.o)	#SHT_PROGBITS,SHF_ALLOC|SHF_MERGE|SHF_STRINGS,1
	0x43040f5f		.L.str.100
.rodata.str1.1	0x43040f94	0x32	D:\Smart-heart-rate-dector\Smart-heart-rate-dector\gagent\libgagent.a(simulator.o)	#SHT_PROGBITS,SHF_ALLOC|SHF_MERGE|SHF_STRINGS,1
	0x43040f94		.L.str.101
.rodata.str1.1	0x43040fc6	0x2f	D:\Smart-heart-rate-dector\Smart-heart-rate-dector\gagent\libgagent.a(simulator.o)	#SHT_PROGBITS,SHF_ALLOC|SHF_MERGE|SHF_STRINGS,1
	0x43040fc6		.L.str.102
.rodata.str1.1	0x43040ff5	0x31	D:\Smart-heart-rate-dector\Smart-heart-rate-dector\gagent\libgagent.a(simulator.o)	#SHT_PROGBITS,SHF_ALLOC|SHF_MERGE|SHF_STRINGS,1
	0x43040ff5		.L.str.103
.rodata.str1.1	0x43041026	0x3b	D:\Smart-heart-rate-dector\Smart-heart-rate-dector\gagent\libgagent.a(simulator.o)	#SHT_PROGBITS,SHF_ALLOC|SHF_MERGE|SHF_STRINGS,1
	0x43041026		.L.str.104
.rodata.str1.1	0x43041061	0x50	D:\Smart-heart-rate-dector\Smart-heart-rate-dector\gagent\libgagent.a(simulator.o)	#SHT_PROGBITS,SHF_ALLOC|SHF_MERGE|SHF_STRINGS,1
	0x43041061		.L.str.105
.rodata.str1.1	0x430410b1	0x3f	D:\Smart-heart-rate-dector\Smart-heart-rate-dector\gagent\libgagent.a(simulator.o)	#SHT_PROGBITS,SHF_ALLOC|SHF_MERGE|SHF_STRINGS,1
	0x430410b1		.L.str.106
.rodata.str1.1	0x430410f0	0x2f	D:\Smart-heart-rate-dector\Smart-heart-rate-dector\gagent\libgagent.a(simulator.o)	#SHT_PROGBITS,SHF_ALLOC|SHF_MERGE|SHF_STRINGS,1
	0x430410f0		.L.str.107
.rodata.str1.1	0x4304111f	0x36	D:\Smart-heart-rate-dector\Smart-heart-rate-dector\gagent\libgagent.a(simulator.o)	#SHT_PROGBITS,SHF_ALLOC|SHF_MERGE|SHF_STRINGS,1
	0x4304111f		.L.str.108
.rodata.str1.1	0x43041155	0x2c	D:\Smart-heart-rate-dector\Smart-heart-rate-dector\gagent\libgagent.a(simulator.o)	#SHT_PROGBITS,SHF_ALLOC|SHF_MERGE|SHF_STRINGS,1
	0x43041155		.L.str.109
.rodata.str1.1	0x43041181	0x14	D:\Smart-heart-rate-dector\Smart-heart-rate-dector\gagent\libgagent.a(simulator.o)	#SHT_PROGBITS,SHF_ALLOC|SHF_MERGE|SHF_STRINGS,1
	0x43041181		.L__FUNCTION__.gatRegsiterSubRecCb
.rodata.str1.1	0x43041195	0x3b	D:\Smart-heart-rate-dector\Smart-heart-rate-dector\gagent\libgagent.a(simulator.o)	#SHT_PROGBITS,SHF_ALLOC|SHF_MERGE|SHF_STRINGS,1
	0x43041195		.L.str.111
.rodata.str1.1	0x430411d0	0x33	D:\Smart-heart-rate-dector\Smart-heart-rate-dector\gagent\libgagent.a(simulator.o)	#SHT_PROGBITS,SHF_ALLOC|SHF_MERGE|SHF_STRINGS,1
	0x430411d0		.L.str.112
.rodata.str1.1	0x43041203	0x21	D:\Smart-heart-rate-dector\Smart-heart-rate-dector\gagent\libgagent.a(simulator.o)	#SHT_PROGBITS,SHF_ALLOC|SHF_MERGE|SHF_STRINGS,1
	0x43041203		.L.str.113
.rodata.str1.1	0x43041224	0x1e	D:\Smart-heart-rate-dector\Smart-heart-rate-dector\gagent\libgagent.a(simulator.o)	#SHT_PROGBITS,SHF_ALLOC|SHF_MERGE|SHF_STRINGS,1
	0x43041224		.L.str.116
.rodata.str1.1	0x43041242	0x2a	D:\Smart-heart-rate-dector\Smart-heart-rate-dector\gagent\libgagent.a(simulator.o)	#SHT_PROGBITS,SHF_ALLOC|SHF_MERGE|SHF_STRINGS,1
	0x43041242		.L.str.118
.rodata.str1.1	0x4304126c	0x15	D:\Smart-heart-rate-dector\Smart-heart-rate-dector\gagent\libgagent.a(simulator.o)	#SHT_PROGBITS,SHF_ALLOC|SHF_MERGE|SHF_STRINGS,1
	0x4304126c		.L.str.119
.rodata.str1.1	0x43041281	0x22	D:\Smart-heart-rate-dector\Smart-heart-rate-dector\gagent\libgagent.a(simulator.o)	#SHT_PROGBITS,SHF_ALLOC|SHF_MERGE|SHF_STRINGS,1
	0x43041281		.L.str.120
.rodata.str1.1	0x430412a3	0x1f	D:\Smart-heart-rate-dector\Smart-heart-rate-dector\gagent\libgagent.a(simulator.o)	#SHT_PROGBITS,SHF_ALLOC|SHF_MERGE|SHF_STRINGS,1
	0x430412a3		.L.str.121
.rodata.str1.1	0x430412c2	0x4	D:\Smart-heart-rate-dector\Smart-heart-rate-dector\gagent\libgagent.a(simulator.o)	#SHT_PROGBITS,SHF_ALLOC|SHF_MERGE|SHF_STRINGS,1
	0x430412c2		.L.str.122
.rodata.str1.1	0x430412c6	0x1e	D:\Smart-heart-rate-dector\Smart-heart-rate-dector\gagent\libgagent.a(simulator.o)	#SHT_PROGBITS,SHF_ALLOC|SHF_MERGE|SHF_STRINGS,1
	0x430412c6		.L.str.123
.rodata.str1.1	0x430412e4	0x27	D:\Smart-heart-rate-dector\Smart-heart-rate-dector\gagent\libgagent.a(simulator.o)	#SHT_PROGBITS,SHF_ALLOC|SHF_MERGE|SHF_STRINGS,1
	0x430412e4		.L.str.124
.rodata.str1.1	0x4304130b	0x22	D:\Smart-heart-rate-dector\Smart-heart-rate-dector\gagent\libgagent.a(simulator.o)	#SHT_PROGBITS,SHF_ALLOC|SHF_MERGE|SHF_STRINGS,1
	0x4304130b		.L.str.125
.rodata.str1.1	0x4304132d	0x40	D:\Smart-heart-rate-dector\Smart-heart-rate-dector\gagent\libgagent.a(simulator.o)	#SHT_PROGBITS,SHF_ALLOC|SHF_MERGE|SHF_STRINGS,1
	0x4304132d		.L.str.126
PADDING_ALIGNMENT	0x4304136d	0x3	0x0
.rodata.str1.8	0x43041370	0xd	D:\Smart-heart-rate-dector\Smart-heart-rate-dector\gagent\libgagent.a(simulator.o)	#SHT_PROGBITS,SHF_ALLOC|SHF_MERGE|SHF_STRINGS,8
	0x43041370		.L.str.52
.rodata.str1.1	0x4304137d	0x12	sdk\libs\timer_dam_lib.lib(qapi_timer_user.o)	#SHT_PROGBITS,SHF_ALLOC|SHF_MERGE|SHF_STRINGS,1
	0x4304137d		.L.str
.rodata.cst32	0x4304138f	0x20	D:\4.0.3\armv7m-none-eabi\libc\lib/libc.a(malloc.o)	#SHT_PROGBITS,SHF_ALLOC|SHF_MERGE,1
	0x4304138f		a_ctz_64.debruijn32
.rodata.str1.1	0x430413af	0x7	D:\4.0.3\armv7m-none-eabi\libc\lib/libc.a(vfprintf.o)	#SHT_PROGBITS,SHF_ALLOC|SHF_MERGE|SHF_STRINGS,1
.rodata.str1.1	0x430413b6	0xa	D:\4.0.3\armv7m-none-eabi\libc\lib/libc.a(vfprintf.o)	#SHT_PROGBITS,SHF_ALLOC|SHF_MERGE|SHF_STRINGS,1
.rodata.states	0x430413c0	0x1d0	D:\4.0.3\armv7m-none-eabi\libc\lib/libc.a(vfprintf.o)	#SHT_PROGBITS,SHF_ALLOC,1
	0x430413c0		states
.rodata.cst16	0x43041590	0x10	D:\4.0.3\armv7m-none-eabi\libc\lib/libc.a(vfprintf.o)	#SHT_PROGBITS,SHF_ALLOC|SHF_MERGE,1
	0x43041590		xdigits
.rodata.str1.4	0x430415a0	0x14	D:\4.0.3\armv7m-none-eabi\libc\lib/libc.a(vfprintf.o)	#SHT_PROGBITS,SHF_ALLOC|SHF_MERGE|SHF_STRINGS,4
	0x430415a0		$d
PADDING_ALIGNMENT	0x430415b4	0x4	0x0
.rodata..Lvsnprintf_full.f	0x430415b8	0x90	D:\4.0.3\armv7m-none-eabi\libc\lib/libc.a(vsnprintf.o)	#SHT_PROGBITS,SHF_ALLOC,8
	0x430415b8		$d
.rodata.str1.1	0x43041648	0x58	D:\4.0.3\armv7m-none-eabi\libc\lib/libc.a(strerror.o)	#SHT_PROGBITS,SHF_ALLOC|SHF_MERGE|SHF_STRINGS,1
	0x43041648		errid
.rodata.errmsg	0x430416a0	0x70c	D:\4.0.3\armv7m-none-eabi\libc\lib/libc.a(strerror.o)	#SHT_PROGBITS,SHF_ALLOC,1
	0x430416a0		errmsg
.rodata.table	0x43041dac	0x101	D:\4.0.3\armv7m-none-eabi\libc\lib/libc.a(intscan.o)	#SHT_PROGBITS,SHF_ALLOC,1
	0x43041dac		table
.rodata..L.str	0x43041ead	0x9	D:\4.0.3\armv7m-none-eabi\libc\lib/libc.a(intscan.o)	#SHT_PROGBITS,SHF_ALLOC,1
PADDING_ALIGNMENT	0x43041eb6	0x2	0x0
	Image$$ER_RO$$Limit(0x43041ef4) = .( 0x43041ef4 );
Image$$ER_RO$$Length(0x41ef4) = Image$$ER_RO$$Limit( 0x43041ef4 ) - Image$$ER_RO$$Base( 0x43000000 );

ER_RW	0x43041f00	0xa4c # Offset: 0x41f60, LMA: 0x43041f00
	Image$$ER_RW$$Base(0x43041f00) = .( 0x43041f00 );
KEEP (*(.data .data.* ))
.data	0x43041f00	0x8	D:\Smart-heart-rate-dector\Smart-heart-rate-dector\objs\adc.o	#SHT_PROGBITS,SHF_ALLOC|SHF_WRITE,4
	0x43041f00		Channel_Name_ADC0
	0x43041f04		Channel_Name_ADC1
.data	0x43041f08	0xe7	D:\Smart-heart-rate-dector\Smart-heart-rate-dector\objs\gpio.o	#SHT_PROGBITS,SHF_ALLOC|SHF_WRITE,4
	0x43041f08		gpio_map_tbl
	0x43041fe8		motor_pin_num
	0x43041fec		led_pin_num_motion
	0x43041fed		led_pin_num_Pulsesensor
	0x43041fee		led_pin_num_pressure
PADDING_ALIGNMENT	0x43041fef	0x1	0x0
.data	0x43041ff0	0x20	D:\Smart-heart-rate-dector\Smart-heart-rate-dector\objs\plusensor.o	#SHT_PROGBITS,SHF_ALLOC|SHF_WRITE,16
	0x43041ff0		Pulse
	0x43041ff1		QS
	0x43041ff2		firstBeat
	0x43041ff3		secondBeat
	0x43041ff4		IBI
	0x43041ff8		sampleCounter
	0x43041ffc		lastBeatTime
	0x43042000		P
	0x43042004		T
	0x43042008		thresh
	0x4304200c		amp
.data	0x43042010	0x4	D:\Smart-heart-rate-dector\Smart-heart-rate-dector\gagent\libgagent.a(iofdev.o)	#SHT_PROGBITS,SHF_ALLOC|SHF_WRITE,4
	0x43042010		__stack_chk_guard
.data	0x43042014	0xb0	D:\Smart-heart-rate-dector\Smart-heart-rate-dector\gagent\libgagent.a(iofpthread.o)	#SHT_PROGBITS,SHF_ALLOC|SHF_WRITE,4
	0x43042014		gatThreadGroup
.data	0x430420c4	0x1	D:\Smart-heart-rate-dector\Smart-heart-rate-dector\gagent\libgagent.a(localprotocol.o)	#SHT_PROGBITS,SHF_ALLOC|SHF_WRITE,1
	0x430420c4		newLocalSn.g_SN
PADDING_ALIGNMENT	0x430420c5	0x3	0x0
.data	0x430420c8	0xe4	D:\Smart-heart-rate-dector\Smart-heart-rate-dector\gagent\libgagent.a(productinfo.o)	#SHT_PROGBITS,SHF_ALLOC|SHF_WRITE,4
	0x430420c8		configData
.data	0x430421ac	0x4	D:\Smart-heart-rate-dector\Smart-heart-rate-dector\gagent\libgagent.a(aes.o)	#SHT_PROGBITS,SHF_ALLOC|SHF_WRITE,1
	0x430421ac		R
.data	0x430421b0	0x4	D:\Smart-heart-rate-dector\Smart-heart-rate-dector\gagent\libgagent.a(dp.o)	#SHT_PROGBITS,SHF_ALLOC|SHF_WRITE,4
	0x430421b0		cpCurMode
.data	0x430421b4	0x8	D:\Smart-heart-rate-dector\Smart-heart-rate-dector\gagent\libgagent.a(iofnet.o)	#SHT_PROGBITS,SHF_ALLOC|SHF_WRITE,4
	0x430421b4		tcp_netctl_lib_status
	0x430421b5		tcp_datacall_status
	0x430421b8		tcp_dss_handle
.data	0x430421bc	0x4	D:\Smart-heart-rate-dector\Smart-heart-rate-dector\gagent\libgagent.a(mqttgat.o)	#SHT_PROGBITS,SHF_ALLOC|SHF_WRITE,4
	0x430421bc		mqttDoHeartBeat.dCloudTime
.data	0x430421c0	0x4	D:\Smart-heart-rate-dector\Smart-heart-rate-dector\gagent\libgagent.a(otawan.o)	#SHT_PROGBITS,SHF_ALLOC|SHF_WRITE,4
	0x430421c0		gatDownLoadFirmwareCb.fd
.data	0x430421c4	0x300	D:\Smart-heart-rate-dector\Smart-heart-rate-dector\gagent\libgagent.a(cmdtable.o)	#SHT_PROGBITS,SHF_ALLOC|SHF_WRITE,4
	0x430421c4		lanCmds
	0x43042284		wanCmds
	0x43042320		devCmds
	0x430424ac		protCmdTab
.data	0x430424c4	0x40	D:\Smart-heart-rate-dector\Smart-heart-rate-dector\gagent\libgagent.a(gagent_md5.o)	#SHT_PROGBITS,SHF_ALLOC|SHF_WRITE,1
	0x430424c4		PADDING
PADDING_ALIGNMENT	0x43042504	0x4	0x0
.data.mal	0x43042508	0x410	D:\4.0.3\armv7m-none-eabi\libc\lib/libc.a(malloc.o)	#SHT_PROGBITS,SHF_ALLOC|SHF_WRITE,8
	0x43042508		mal
	0x43042508		$d
.data..L_MergedGlobals	0x43042918	0xc	D:\4.0.3\armv7m-none-eabi\libc\lib/libc.a(malloc.o)	#SHT_PROGBITS,SHF_ALLOC|SHF_WRITE,4
	0x43042918		$d
	0x43042918		expand_heap.end
	0x4304291c		expand_heap.heap_lock
PADDING_ALIGNMENT	0x43042924	0x4	0x0
.data.seed	0x43042928	0x8	D:\4.0.3\armv7m-none-eabi\libc\lib/libc.a(rand.o)	#SHT_PROGBITS,SHF_ALLOC|SHF_WRITE,8
	0x43042928		seed
	0x43042928		$d
.data.__progname	0x43042930	0x4	D:\4.0.3\armv7m-none-eabi\libc\lib/libc.a(libc.o)	#SHT_PROGBITS,SHF_ALLOC|SHF_WRITE,4
	0x43042930		$d
	0x43042930		__progname
	0x43042930		program_invocation_short_name
.data.__progname_full	0x43042934	0x4	D:\4.0.3\armv7m-none-eabi\libc\lib/libc.a(libc.o)	#SHT_PROGBITS,SHF_ALLOC|SHF_WRITE,4
	0x43042934		$d
	0x43042934		__progname_full
	0x43042934		program_invocation_name
.data.__expand_heap.brk	0x43042938	0x4	D:\4.0.3\armv7m-none-eabi\libc\lib/libc.a(expand_heap.o)	#SHT_PROGBITS,SHF_ALLOC|SHF_WRITE,4
	0x43042938		__expand_heap.brk
	0x43042938		$d
.data.__heap_base	0x4304293c	0x4	D:\4.0.3\armv7m-none-eabi\libc\lib/libc.a(__brk.o)	#SHT_PROGBITS,SHF_ALLOC|SHF_WRITE,4
	0x4304293c		$d
	0x4304293c		__heap_base
.data.__heap_limit	0x43042940	0x4	D:\4.0.3\armv7m-none-eabi\libc\lib/libc.a(__brk.o)	#SHT_PROGBITS,SHF_ALLOC|SHF_WRITE,4
	0x43042940		$d
	0x43042940		__heap_limit
.data.dummy_file	0x43042944	0x4	D:\4.0.3\armv7m-none-eabi\libc\lib/libc.a(__stdio_exit.o)	#SHT_PROGBITS,SHF_ALLOC|SHF_WRITE,4
	0x43042944		dummy_file
	0x43042944		$d
	0x43042944		__stdin_used
	0x43042944		__stdout_used
	0x43042944		__stderr_used
.data.ofl_head	0x43042948	0x4	D:\4.0.3\armv7m-none-eabi\libc\lib/libc.a(ofl.o)	#SHT_PROGBITS,SHF_ALLOC|SHF_WRITE,4
	0x43042948		ofl_head
	0x43042948		$d
	Image$$ER_RW$$Limit(0x4304294c) = .( 0x4304294c );
Image$$ER_RW$$Length(0xa4c) = Image$$ER_RW$$Limit( 0x4304294c ) - Image$$ER_RW$$Base( 0x43041f00 );

ER_ZI	0x43042950	0x686f0 # Offset: 0x429ac, LMA: 0x43042950
	Image$$ER_ZI$$Base(0x43042950) = .( 0x43042950 );
*(.bss* .bss.* .common COMMON )
	0x43042950	0x8	D:\Smart-heart-rate-dector\Smart-heart-rate-dector\objs\adc.o	#SHT_NOBITS,SHF_ALLOC|SHF_WRITE,16
	0x43042950		Properties_ADC1
	0x43042958	0x4	D:\Smart-heart-rate-dector\Smart-heart-rate-dector\objs\adc.o	#SHT_NOBITS,SHF_ALLOC|SHF_WRITE,16
	0x43042958		adc_handle
	0x4304295c	0x16	D:\Smart-heart-rate-dector\Smart-heart-rate-dector\objs\gizwits_product.o	#SHT_NOBITS,SHF_ALLOC|SHF_WRITE,16
	0x4304295c		currentDataPoint
	0x43042972	0x20000	D:\Smart-heart-rate-dector\Smart-heart-rate-dector\objs\gizwits_protocol.o	#SHT_NOBITS,SHF_ALLOC|SHF_WRITE,16
	0x43042972		free_memory_task
	0x43062972	0x4000	D:\Smart-heart-rate-dector\Smart-heart-rate-dector\objs\gizwits_protocol.o	#SHT_NOBITS,SHF_ALLOC|SHF_WRITE,16
	0x43062972		gizTaskStack
	0x43066972	0x3de	D:\Smart-heart-rate-dector\Smart-heart-rate-dector\objs\gizwits_protocol.o	#SHT_NOBITS,SHF_ALLOC|SHF_WRITE,16
	0x43066972		gizwitsProtocol
	0x43066d50	0x4	D:\Smart-heart-rate-dector\Smart-heart-rate-dector\objs\gizwits_protocol.o	#SHT_NOBITS,SHF_ALLOC|SHF_WRITE,16
	0x43066d50		byte_pool_task
	0x43066d54	0x4	D:\Smart-heart-rate-dector\Smart-heart-rate-dector\objs\gizwits_protocol.o	#SHT_NOBITS,SHF_ALLOC|SHF_WRITE,16
	0x43066d54		gizTaskHandle
	0x43066d58	0x10	D:\Smart-heart-rate-dector\Smart-heart-rate-dector\objs\gizwits_protocol.o	#SHT_NOBITS,SHF_ALLOC|SHF_WRITE,16
	0x43066d58		timer_def_attr
	0x43066d68	0x4	D:\Smart-heart-rate-dector\Smart-heart-rate-dector\objs\gizwits_protocol.o	#SHT_NOBITS,SHF_ALLOC|SHF_WRITE,16
	0x43066d68		timer_handle
PADDING_ALIGNMENT	0x43066d6c	0x4	0x0
	0x43066d70	0x18	D:\Smart-heart-rate-dector\Smart-heart-rate-dector\objs\gizwits_protocol.o	#SHT_NOBITS,SHF_ALLOC|SHF_WRITE,16
	0x43066d70		timer_set_attr
	0x43066d88	0x1c	D:\Smart-heart-rate-dector\Smart-heart-rate-dector\objs\gpio.o	#SHT_NOBITS,SHF_ALLOC|SHF_WRITE,16
	0x43066d88		gpio_id_tbl
	0x43066da4	0x118	D:\Smart-heart-rate-dector\Smart-heart-rate-dector\objs\gpio.o	#SHT_NOBITS,SHF_ALLOC|SHF_WRITE,16
	0x43066da4		tlmm_config
	0x43066ebc	0x4	D:\Smart-heart-rate-dector\Smart-heart-rate-dector\objs\main.o	#SHT_NOBITS,SHF_ALLOC|SHF_WRITE,16
	0x43066ebc		userTimer
	0x43066ec0	0x4	D:\Smart-heart-rate-dector\Smart-heart-rate-dector\objs\plusensor.o	#SHT_NOBITS,SHF_ALLOC|SHF_WRITE,16
	0x43066ec0		BPM
	0x43066ec4	0x4	D:\Smart-heart-rate-dector\Smart-heart-rate-dector\objs\plusensor.o	#SHT_NOBITS,SHF_ALLOC|SHF_WRITE,16
	0x43066ec4		Num
	0x43066ec8	0x4	D:\Smart-heart-rate-dector\Smart-heart-rate-dector\objs\plusensor.o	#SHT_NOBITS,SHF_ALLOC|SHF_WRITE,16
	0x43066ec8		Signal
	0x43066ecc	0x28	D:\Smart-heart-rate-dector\Smart-heart-rate-dector\objs\plusensor.o	#SHT_NOBITS,SHF_ALLOC|SHF_WRITE,16
	0x43066ecc		rate
	0x43066ef4	0x40000	D:\Smart-heart-rate-dector\Smart-heart-rate-dector\gagent\libgagent.a(gagentThread.o)	#SHT_NOBITS,SHF_ALLOC|SHF_WRITE,16
	0x43066ef4		free_memory_gagent
	0x430a6ef4	0x4	D:\Smart-heart-rate-dector\Smart-heart-rate-dector\gagent\libgagent.a(gagentThread.o)	#SHT_NOBITS,SHF_ALLOC|SHF_WRITE,16
	0x430a6ef4		byte_pool_gagent
	0x430a6ef8	0x4	D:\Smart-heart-rate-dector\Smart-heart-rate-dector\gagent\libgagent.a(gagentThread.o)	#SHT_NOBITS,SHF_ALLOC|SHF_WRITE,16
	0x430a6ef8		gatThread_Handle
	0x430a6efc	0x4	D:\Smart-heart-rate-dector\Smart-heart-rate-dector\gagent\libgagent.a(gagentThread.o)	#SHT_NOBITS,SHF_ALLOC|SHF_WRITE,16
	0x430a6efc		gatapp_stack
	0x430a6f00	0x100	D:\Smart-heart-rate-dector\Smart-heart-rate-dector\gagent\libgagent.a(gatnet.o)	#SHT_NOBITS,SHF_ALLOC|SHF_WRITE,16
	0x430a6f00		netConPara
	0x430a7000	0x14	D:\Smart-heart-rate-dector\Smart-heart-rate-dector\gagent\libgagent.a(httpgat.o)	#SHT_NOBITS,SHF_ALLOC|SHF_WRITE,16
	0x430a7000		httpRecCore
	0x430a7014	0x14	D:\Smart-heart-rate-dector\Smart-heart-rate-dector\gagent\libgagent.a(httpgat.o)	#SHT_NOBITS,SHF_ALLOC|SHF_WRITE,16
	0x430a7014		httpSendCore
	0x430a7028	0x4	D:\Smart-heart-rate-dector\Smart-heart-rate-dector\gagent\libgagent.a(iofipc.o)	#SHT_NOBITS,SHF_ALLOC|SHF_WRITE,16
	0x430a7028		gatQueue
	0x430a702c	0x4	D:\Smart-heart-rate-dector\Smart-heart-rate-dector\gagent\libgagent.a(iofnet.o)	#SHT_NOBITS,SHF_ALLOC|SHF_WRITE,16
	0x430a702c		tcp_signal_handle
	0x430a7030	0x4	D:\Smart-heart-rate-dector\Smart-heart-rate-dector\gagent\libgagent.a(iofpthread.o)	#SHT_NOBITS,SHF_ALLOC|SHF_WRITE,16
	0x430a7030		gatDnsTid
	0x430a7034	0x4	D:\Smart-heart-rate-dector\Smart-heart-rate-dector\gagent\libgagent.a(iofpthread.o)	#SHT_NOBITS,SHF_ALLOC|SHF_WRITE,16
	0x430a7034		gatNetTid
	0x430a7038	0x4	D:\Smart-heart-rate-dector\Smart-heart-rate-dector\gagent\libgagent.a(iofpthread.o)	#SHT_NOBITS,SHF_ALLOC|SHF_WRITE,16
	0x430a7038		gatSerialRecTid
	0x430a703c	0x4	D:\Smart-heart-rate-dector\Smart-heart-rate-dector\gagent\libgagent.a(iofpthread.o)	#SHT_NOBITS,SHF_ALLOC|SHF_WRITE,16
	0x430a703c		gatSerialSendTid
	0x430a7040	0x4	D:\Smart-heart-rate-dector\Smart-heart-rate-dector\gagent\libgagent.a(iofpthread.o)	#SHT_NOBITS,SHF_ALLOC|SHF_WRITE,16
	0x430a7040		gatTaskProcessTid
	0x430a7044	0x4	D:\Smart-heart-rate-dector\Smart-heart-rate-dector\gagent\libgagent.a(iofpthread.o)	#SHT_NOBITS,SHF_ALLOC|SHF_WRITE,16
	0x430a7044		gatTcpDataRecTid
	0x430a7048	0x4	D:\Smart-heart-rate-dector\Smart-heart-rate-dector\gagent\libgagent.a(iofpthread.o)	#SHT_NOBITS,SHF_ALLOC|SHF_WRITE,16
	0x430a7048		gatTcpDataSendTid
	0x430a704c	0x4	D:\Smart-heart-rate-dector\Smart-heart-rate-dector\gagent\libgagent.a(iofpthread.o)	#SHT_NOBITS,SHF_ALLOC|SHF_WRITE,16
	0x430a704c		gatTcpServerTid
	0x430a7050	0x4	D:\Smart-heart-rate-dector\Smart-heart-rate-dector\gagent\libgagent.a(iofpthread.o)	#SHT_NOBITS,SHF_ALLOC|SHF_WRITE,16
	0x430a7050		gatUdpRecTid
	0x430a7054	0x4	D:\Smart-heart-rate-dector\Smart-heart-rate-dector\gagent\libgagent.a(iofpthread.o)	#SHT_NOBITS,SHF_ALLOC|SHF_WRITE,16
	0x430a7054		gatUdpSendTid
	0x430a7058	0x4	D:\Smart-heart-rate-dector\Smart-heart-rate-dector\gagent\libgagent.a(iofserial.o)	#SHT_NOBITS,SHF_ALLOC|SHF_WRITE,16
	0x430a7058		fdList
	0x430a705c	0x1c	D:\Smart-heart-rate-dector\Smart-heart-rate-dector\gagent\libgagent.a(qlog.o)	#SHT_NOBITS,SHF_ALLOC|SHF_WRITE,16
	0x430a705c		uart_conf
	0x430a7078	0x54	D:\Smart-heart-rate-dector\Smart-heart-rate-dector\gagent\libgagent.a(tcp.o)	#SHT_NOBITS,SHF_ALLOC|SHF_WRITE,16
	0x430a7078		tcpChListNr
	0x430a70cc	0x14	D:\Smart-heart-rate-dector\Smart-heart-rate-dector\gagent\libgagent.a(tcp.o)	#SHT_NOBITS,SHF_ALLOC|SHF_WRITE,16
	0x430a70cc		tcpDataNodeNr
	0x430a70e0	0x1c	D:\Smart-heart-rate-dector\Smart-heart-rate-dector\gagent\libgagent.a(tcp.o)	#SHT_NOBITS,SHF_ALLOC|SHF_WRITE,16
	0x430a70e0		tcpSendNr
	0x430a70fc	0x14	D:\Smart-heart-rate-dector\Smart-heart-rate-dector\gagent\libgagent.a(timer_subsystem.o)	#SHT_NOBITS,SHF_ALLOC|SHF_WRITE,16
	0x430a70fc		gatTimerCore
	0x430a7110	0x1000	sdk\libs\timer_dam_lib.lib(qapi_timer_user.o)	#SHT_NOBITS,SHF_ALLOC|SHF_WRITE,16
	0x430a7110		timer_client_stack
	0x430a8110	0x4	sdk\libs\timer_dam_lib.lib(qapi_timer_user.o)	#SHT_NOBITS,SHF_ALLOC|SHF_WRITE,16
	0x430a8110		timer_client_module_thread
	0x430a8114	0x4	sdk\libs\timer_dam_lib.lib(qapi_timer_user.o)	#SHT_NOBITS,SHF_ALLOC|SHF_WRITE,16
	0x430a8114		timer_thread_state
	0x430a8118	0x4	sdk\libs\timer_dam_lib.lib(qapi_timer_user.o)	#SHT_NOBITS,SHF_ALLOC|SHF_WRITE,16
	0x430a8118		timer_user_handle
	0x430a811c	0x4	sdk\libs\txm_lib.lib(txm_module_thread_shell_entry.o)	#SHT_NOBITS,SHF_ALLOC|SHF_WRITE,16
	0x430a811c		_txm_module_entry_info
	0x430a8120	0x4	sdk\libs\txm_lib.lib(txm_module_thread_shell_entry.o)	#SHT_NOBITS,SHF_ALLOC|SHF_WRITE,16
	0x430a8120		_txm_module_instance_ptr
	0x430a8124	0x4	sdk\libs\txm_lib.lib(txm_module_thread_shell_entry.o)	#SHT_NOBITS,SHF_ALLOC|SHF_WRITE,16
	0x430a8124		_txm_module_kernel_call_dispatcher
	0x430a8128	0x40	D:\4.0.3\armv7m-none-eabi\libc\lib/libc.a(libc.o)	#SHT_NOBITS,SHF_ALLOC|SHF_WRITE,16
	0x430a8128		__libc
.bss	0x430a8168	0x14	D:\Smart-heart-rate-dector\Smart-heart-rate-dector\objs\gizwits_protocol.o	#SHT_NOBITS,SHF_ALLOC|SHF_WRITE,4
	0x430a8168		gizTimerFunc.repCtime
	0x430a816c		gizCheckReport.lastReportTime
	0x430a8170		gizWiFiStatus.lastStatus.0
	0x430a8174		gizQueue
	0x430a8178		task_comm
.bss	0x430a817c	0x2	D:\Smart-heart-rate-dector\Smart-heart-rate-dector\objs\main.o	#SHT_NOBITS,SHF_ALLOC|SHF_WRITE,4
	0x430a817c		userTimerCB.ctime
	0x430a817d		userTimerCB.ccount
PADDING_ALIGNMENT	0x430a817e	0x2	0x0
.bss	0x430a8180	0x4	D:\Smart-heart-rate-dector\Smart-heart-rate-dector\gagent\libgagent.a(gagentThread.o)	#SHT_NOBITS,SHF_ALLOC|SHF_WRITE,4
	0x430a8180		tcpSendSem
.bss	0x430a8184	0x204	D:\Smart-heart-rate-dector\Smart-heart-rate-dector\gagent\libgagent.a(iofdev.o)	#SHT_NOBITS,SHF_ALLOC|SHF_WRITE,4
	0x430a8184		iofPrintf.str_tmp
	0x430a8384		logLock
.bss	0x430a8388	0x4	D:\Smart-heart-rate-dector\Smart-heart-rate-dector\gagent\libgagent.a(iofpthread.o)	#SHT_NOBITS,SHF_ALLOC|SHF_WRITE,4
	0x430a8388		iofPthreadCreate.entry_input
.bss	0x430a838c	0x4	D:\Smart-heart-rate-dector\Smart-heart-rate-dector\gagent\libgagent.a(iofstring.o)	#SHT_NOBITS,SHF_ALLOC|SHF_WRITE,4
	0x430a838c		objMemAllocated
.bss	0x430a8390	0x83	D:\Smart-heart-rate-dector\Smart-heart-rate-dector\gagent\libgagent.a(local.o)	#SHT_NOBITS,SHF_ALLOC|SHF_WRITE,16
	0x430a8390		LocalStatusSync
	0x430a83a0		GAgentInfoGet.szPassCode
	0x430a83ab		GAgentInfoGet.szTzs
	0x430a83bf		GAgentInfoGet.szDid
	0x430a83d6		GAgentInfoGet.szGServerDomain
PADDING_ALIGNMENT	0x430a8413	0xd	0x0
.bss	0x430a8420	0xa2	D:\Smart-heart-rate-dector\Smart-heart-rate-dector\gagent\libgagent.a(localcomm.o)	#SHT_NOBITS,SHF_ALLOC|SHF_WRITE,16
	0x430a8420		localWriteAdapter
	0x430a8424		gatLocalSignalCheckTick.signal_last
	0x430a8428		SignalTick
	0x430a8438		bindTimer
	0x430a8450		mcuInfo
PADDING_ALIGNMENT	0x430a84c2	0xe	0x0
.bss	0x430a84d0	0x64	D:\Smart-heart-rate-dector\Smart-heart-rate-dector\gagent\libgagent.a(localio.o)	#SHT_NOBITS,SHF_ALLOC|SHF_WRITE,16
	0x430a84d0		localInfo
	0x430a84d8		localRecvList
	0x430a84ec		localSendList
	0x430a8500		localChannelOpenList
PADDING_ALIGNMENT	0x430a8534	0xc	0x0
.bss	0x430a8540	0x54	D:\Smart-heart-rate-dector\Smart-heart-rate-dector\gagent\libgagent.a(nwk_manage.o)	#SHT_NOBITS,SHF_ALLOC|SHF_WRITE,16
	0x430a8540		halNwkStatus
	0x430a8544		nwkEventCb
PADDING_ALIGNMENT	0x430a8594	0xc	0x0
.bss	0x430a85a0	0x27e	D:\Smart-heart-rate-dector\Smart-heart-rate-dector\gagent\libgagent.a(productinfo.o)	#SHT_NOBITS,SHF_ALLOC|SHF_WRITE,16
	0x430a85a0		gatProductInfo
	0x430a86e0		gatProDefaultInfo
	0x430a87bc		configDataLock
	0x430a87c0		gatFlag
	0x430a87c5		gatRebootReason
	0x430a87ca		szTzSec
	0x430a87de		gatApn
.bss	0x430a881e	0x2000	D:\Smart-heart-rate-dector\Smart-heart-rate-dector\gagent\libgagent.a(qlog.o)	#SHT_NOBITS,SHF_ALLOC|SHF_WRITE,1
	0x430a881e		tx_buff
	0x430a981e		rx_buff
PADDING_ALIGNMENT	0x430aa81e	0x2	0x0
.bss	0x430aa820	0x39	D:\Smart-heart-rate-dector\Smart-heart-rate-dector\gagent\libgagent.a(simulatorcomm.o)	#SHT_NOBITS,SHF_ALLOC|SHF_WRITE,4
	0x430aa820		devUploadData
	0x430aa858		simulatorUploadDtatCb.uploadResult
PADDING_ALIGNMENT	0x430aa859	0x3	0x0
.bss	0x430aa85c	0x8	D:\Smart-heart-rate-dector\Smart-heart-rate-dector\gagent\libgagent.a(tcp.o)	#SHT_NOBITS,SHF_ALLOC|SHF_WRITE,4
	0x430aa85c		tcpSemId
	0x430aa860		gatTcpReceiveHandle.recBuf
.bss	0x430aa864	0x8	D:\Smart-heart-rate-dector\Smart-heart-rate-dector\gagent\libgagent.a(aes.o)	#SHT_NOBITS,SHF_ALLOC|SHF_WRITE,4
	0x430aa864		inv_s_box
	0x430aa868		s_box
.bss	0x430aa86c	0x14	D:\Smart-heart-rate-dector\Smart-heart-rate-dector\gagent\libgagent.a(authorization.o)	#SHT_NOBITS,SHF_ALLOC|SHF_WRITE,4
	0x430aa86c		authFunCb
	0x430aa870		authTimer
.bss	0x430aa880	0x84	D:\Smart-heart-rate-dector\Smart-heart-rate-dector\gagent\libgagent.a(gagent.o)	#SHT_NOBITS,SHF_ALLOC|SHF_WRITE,16
	0x430aa880		gatGetSoftVer.szGatSoftVer
	0x430aa88c		gatMsgIdValue
	0x430aa890		gatRunTimeData
	0x430aa8f0		gatReBootTimerStart.flag
	0x430aa8f4		rebootTimer
PADDING_ALIGNMENT	0x430aa904	0x4	0x0
.bss	0x430aa908	0x108	D:\Smart-heart-rate-dector\Smart-heart-rate-dector\gagent\libgagent.a(gatm2m.o)	#SHT_NOBITS,SHF_ALLOC|SHF_WRITE,8
	0x430aa908		m2mInfo
.bss	0x430aaa10	0x28	D:\Smart-heart-rate-dector\Smart-heart-rate-dector\gagent\libgagent.a(gatnet.o)	#SHT_NOBITS,SHF_ALLOC|SHF_WRITE,4
	0x430aaa10		gatRouterConnTimeout.failCount
	0x430aaa14		testModeTimer
	0x430aaa24		gatTestModeTick.cnt
	0x430aaa28		routerTimer
.bss	0x430aaa38	0xe8	D:\Smart-heart-rate-dector\Smart-heart-rate-dector\gagent\libgagent.a(gdns.o)	#SHT_NOBITS,SHF_ALLOC|SHF_WRITE,4
	0x430aaa38		dnsReq
	0x430aab10		dnsReqTimer
.bss	0x430aab20	0x34	D:\Smart-heart-rate-dector\Smart-heart-rate-dector\gagent\libgagent.a(gserver.o)	#SHT_NOBITS,SHF_ALLOC|SHF_WRITE,16
	0x430aab20		gatRegsiterTimer.cnt
	0x430aab24		gserverExcepTimeoutTimer
	0x430aab40		gatProvisionRecCb.failCont
	0x430aab44		gserverReConnectTimer
.bss	0x430aab54	0x62	D:\Smart-heart-rate-dector\Smart-heart-rate-dector\gagent\libgagent.a(iofnet.o)	#SHT_NOBITS,SHF_ALLOC|SHF_WRITE,4
	0x430aab54		gatNetLocalIp.ipaddr
	0x430aab86		gatNetMACGet.szIMEI
	0x430aab98		gS_APList
	0x430aaba0		dnsData
	0x430aabb4		gatNetReadyFlag
	0x430aabb5		gatNetActiveFlag
PADDING_ALIGNMENT	0x430aabb6	0x2	0x0
.bss	0x430aabb8	0x54	D:\Smart-heart-rate-dector\Smart-heart-rate-dector\gagent\libgagent.a(iofserial.o)	#SHT_NOBITS,SHF_ALLOC|SHF_WRITE,4
	0x430aabb8		Serial_rfds
	0x430aabfc		hdlr
	0x430aac00		localRecvSem
	0x430aac04		gatserialRecVal
PADDING_ALIGNMENT	0x430aac0c	0x4	0x0
.bss	0x430aac10	0x34	D:\Smart-heart-rate-dector\Smart-heart-rate-dector\gagent\libgagent.a(mqttgat.o)	#SHT_NOBITS,SHF_ALLOC|SHF_WRITE,16
	0x430aac10		mqttExtractPacket.headPos
	0x430aac11		mqttExtractPacket.tempBuf
	0x430aac18		mqttRecNodeList
PADDING_ALIGNMENT	0x430aac44	0xc	0x0
.bss	0x430aac50	0x21c	D:\Smart-heart-rate-dector\Smart-heart-rate-dector\gagent\libgagent.a(otawan.o)	#SHT_NOBITS,SHF_ALLOC|SHF_WRITE,16
	0x430aac50		gatWanOta
	0x430aadec		DownloadStatus
	0x430aadf0		gatDownLoadFirmwareCb.downloadCnt
	0x430aadf4		gatDownLoadFirmwareCb.MD5
	0x430aae04		gatReDownloadTick
	0x430aae14		gatDownLoadFirmwareCb.ctx
PADDING_ALIGNMENT	0x430aae6c	0x4	0x0
.bss	0x430aae70	0x1cc	D:\Smart-heart-rate-dector\Smart-heart-rate-dector\gagent\libgagent.a(simulator.o)	#SHT_NOBITS,SHF_ALLOC|SHF_WRITE,16
	0x430aae70		devDisConData
	0x430aaea0		devsConData
	0x430aaee8		devConnData
	0x430aaf48		devResetData
	0x430ab000		gatRegsiterSubRecCb.recvLen
	0x430ab004		gatRegsiterSubRecCb.recvBuf
	0x430ab008		devsRegData
.bss.qapi_timer_user_initialized	0x430ab03c	0x4	sdk\libs\timer_dam_lib.lib(qapi_timer_user.o)	#SHT_NOBITS,SHF_ALLOC|SHF_WRITE,4
	0x430ab03c		qapi_timer_user_initialized
	Image$$ER_ZI$$Limit(0x430ab040) = .( 0x430ab040 );
Image$$ER_ZI$$ZI$$Length(0x686f0) = Image$$ER_ZI$$Limit( 0x430ab040 ) - Image$$ER_ZI$$Base( 0x43042950 );

.debug	0x0	0x0 # Offset: 0x0

.line	0x0	0x0 # Offset: 0x0

.debug_srcinfo	0x0	0x0 # Offset: 0x0

.debug_sfnames	0x0	0x0 # Offset: 0x0

.debug_aranges	0x0	0x0 # Offset: 0x0

.debug_pubnames	0x429ac	0x3b7 # Offset: 0x429ac
*(.debug_pubnames )
.debug_pubnames	0x429ac	0x18a	sdk\libs\timer_dam_lib.lib(qapi_timer_user.o)	#SHT_PROGBITS,,1
.debug_pubnames	0x42b36	0xa2	sdk\libs\txm_lib.lib(txm_module_thread_shell_entry.o)	#SHT_PROGBITS,,1
.debug_pubnames	0x42bd8	0x40	sdk\libs\txm_lib.lib(txm_module_callback_request_thread_entry.o)	#SHT_PROGBITS,,1
.debug_pubnames	0x42c18	0x30	sdk\libs\txm_lib.lib(txm_module_system_call11.o)	#SHT_PROGBITS,,1
.debug_pubnames	0x42c48	0x30	sdk\libs\txm_lib.lib(txm_module_system_call12.o)	#SHT_PROGBITS,,1
.debug_pubnames	0x42c78	0x2f	sdk\libs\txm_lib.lib(txm_module_system_call4.o)	#SHT_PROGBITS,,1
.debug_pubnames	0x42ca7	0x2f	sdk\libs\txm_lib.lib(txm_module_system_call5.o)	#SHT_PROGBITS,,1
.debug_pubnames	0x42cd6	0x2f	sdk\libs\txm_lib.lib(txm_module_system_call6.o)	#SHT_PROGBITS,,1
.debug_pubnames	0x42d05	0x2f	sdk\libs\txm_lib.lib(txm_module_system_call7.o)	#SHT_PROGBITS,,1
.debug_pubnames	0x42d34	0x2f	sdk\libs\txm_lib.lib(txm_module_system_call8.o)	#SHT_PROGBITS,,1

.debug_info	0x42d63	0x2f01 # Offset: 0x42d63
*(.debug_info .gnu.linkonce.wi.* )
.debug_info	0x42d63	0xb01	sdk\libs\timer_dam_lib.lib(qapi_timer_user.o)	#SHT_PROGBITS,,1
.debug_info	0x43864	0xcd5	sdk\libs\txm_lib.lib(txm_module_thread_shell_entry.o)	#SHT_PROGBITS,,1
.debug_info	0x44539	0x1019	sdk\libs\txm_lib.lib(txm_module_callback_request_thread_entry.o)	#SHT_PROGBITS,,1
.debug_info	0x45552	0x136	sdk\libs\txm_lib.lib(txm_module_system_call11.o)	#SHT_PROGBITS,,1
.debug_info	0x45688	0x145	sdk\libs\txm_lib.lib(txm_module_system_call12.o)	#SHT_PROGBITS,,1
.debug_info	0x457cd	0xcd	sdk\libs\txm_lib.lib(txm_module_system_call4.o)	#SHT_PROGBITS,,1
.debug_info	0x4589a	0xdc	sdk\libs\txm_lib.lib(txm_module_system_call5.o)	#SHT_PROGBITS,,1
.debug_info	0x45976	0xeb	sdk\libs\txm_lib.lib(txm_module_system_call6.o)	#SHT_PROGBITS,,1
.debug_info	0x45a61	0xfa	sdk\libs\txm_lib.lib(txm_module_system_call7.o)	#SHT_PROGBITS,,1
.debug_info	0x45b5b	0x109	sdk\libs\txm_lib.lib(txm_module_system_call8.o)	#SHT_PROGBITS,,1

.debug_abbrev	0x45c64	0x742 # Offset: 0x45c64
*(.debug_abbrev )
.debug_abbrev	0x45c64	0x19a	sdk\libs\timer_dam_lib.lib(qapi_timer_user.o)	#SHT_PROGBITS,,1
.debug_abbrev	0x45dfe	0xe2	sdk\libs\txm_lib.lib(txm_module_thread_shell_entry.o)	#SHT_PROGBITS,,1
.debug_abbrev	0x45ee0	0xeb	sdk\libs\txm_lib.lib(txm_module_callback_request_thread_entry.o)	#SHT_PROGBITS,,1
.debug_abbrev	0x45fcb	0x8d	sdk\libs\txm_lib.lib(txm_module_system_call11.o)	#SHT_PROGBITS,,1
.debug_abbrev	0x46058	0x8d	sdk\libs\txm_lib.lib(txm_module_system_call12.o)	#SHT_PROGBITS,,1
.debug_abbrev	0x460e5	0x8d	sdk\libs\txm_lib.lib(txm_module_system_call4.o)	#SHT_PROGBITS,,1
.debug_abbrev	0x46172	0x8d	sdk\libs\txm_lib.lib(txm_module_system_call5.o)	#SHT_PROGBITS,,1
.debug_abbrev	0x461ff	0x8d	sdk\libs\txm_lib.lib(txm_module_system_call6.o)	#SHT_PROGBITS,,1
.debug_abbrev	0x4628c	0x8d	sdk\libs\txm_lib.lib(txm_module_system_call7.o)	#SHT_PROGBITS,,1
.debug_abbrev	0x46319	0x8d	sdk\libs\txm_lib.lib(txm_module_system_call8.o)	#SHT_PROGBITS,,1

.debug_line	0x463a6	0x1321 # Offset: 0x463a6
*(.debug_line )
.debug_line	0x463a6	0x4d4	sdk\libs\timer_dam_lib.lib(qapi_timer_user.o)	#SHT_PROGBITS,,1
.debug_line	0x4687a	0x1c2	sdk\libs\txm_lib.lib(txm_module_thread_shell_entry.o)	#SHT_PROGBITS,,1
.debug_line	0x46a3c	0x27c	sdk\libs\txm_lib.lib(txm_module_callback_request_thread_entry.o)	#SHT_PROGBITS,,1
.debug_line	0x46cb8	0x174	sdk\libs\txm_lib.lib(txm_module_system_call11.o)	#SHT_PROGBITS,,1
.debug_line	0x46e2c	0x175	sdk\libs\txm_lib.lib(txm_module_system_call12.o)	#SHT_PROGBITS,,1
.debug_line	0x46fa1	0x16c	sdk\libs\txm_lib.lib(txm_module_system_call4.o)	#SHT_PROGBITS,,1
.debug_line	0x4710d	0x16d	sdk\libs\txm_lib.lib(txm_module_system_call5.o)	#SHT_PROGBITS,,1
.debug_line	0x4727a	0x16e	sdk\libs\txm_lib.lib(txm_module_system_call6.o)	#SHT_PROGBITS,,1
.debug_line	0x473e8	0x16f	sdk\libs\txm_lib.lib(txm_module_system_call7.o)	#SHT_PROGBITS,,1
.debug_line	0x47557	0x170	sdk\libs\txm_lib.lib(txm_module_system_call8.o)	#SHT_PROGBITS,,1

.debug_frame	0x476c7	0x2bc # Offset: 0x476c7
*(.debug_frame )
.debug_frame	0x476c7	0x134	sdk\libs\timer_dam_lib.lib(qapi_timer_user.o)	#SHT_PROGBITS,,4
.debug_frame	0x477fb	0x2c	sdk\libs\txm_lib.lib(txm_module_thread_shell_entry.o)	#SHT_PROGBITS,,4
.debug_frame	0x47827	0x3c	sdk\libs\txm_lib.lib(txm_module_callback_request_thread_entry.o)	#SHT_PROGBITS,,4
.debug_frame	0x47863	0x2c	sdk\libs\txm_lib.lib(txm_module_system_call11.o)	#SHT_PROGBITS,,4
.debug_frame	0x4788f	0x2c	sdk\libs\txm_lib.lib(txm_module_system_call12.o)	#SHT_PROGBITS,,4
.debug_frame	0x478bb	0x28	sdk\libs\txm_lib.lib(txm_module_system_call4.o)	#SHT_PROGBITS,,4
.debug_frame	0x478e3	0x28	sdk\libs\txm_lib.lib(txm_module_system_call5.o)	#SHT_PROGBITS,,4
.debug_frame	0x4790b	0x28	sdk\libs\txm_lib.lib(txm_module_system_call6.o)	#SHT_PROGBITS,,4
.debug_frame	0x47933	0x28	sdk\libs\txm_lib.lib(txm_module_system_call7.o)	#SHT_PROGBITS,,4
.debug_frame	0x4795b	0x28	sdk\libs\txm_lib.lib(txm_module_system_call8.o)	#SHT_PROGBITS,,4

.debug_str	0x47983	0x2de1 # Offset: 0x47983
*(.debug_str )
.debug_str	0x47983	0x3c	sdk\libs\timer_dam_lib.lib(qapi_timer_user.o)	#SHT_PROGBITS,SHF_MERGE|SHF_STRINGS,1
	0x0		
.debug_str	0x479bf	0x8b	sdk\libs\timer_dam_lib.lib(qapi_timer_user.o)	#SHT_PROGBITS,SHF_MERGE|SHF_STRINGS,1
	0x3c		
.debug_str	0x47a4a	0x66	sdk\libs\timer_dam_lib.lib(qapi_timer_user.o)	#SHT_PROGBITS,SHF_MERGE|SHF_STRINGS,1
	0xc7		
.debug_str	0x47ab0	0x1c	sdk\libs\timer_dam_lib.lib(qapi_timer_user.o)	#SHT_PROGBITS,SHF_MERGE|SHF_STRINGS,1
	0x12d		
.debug_str	0x47acc	0xd	sdk\libs\timer_dam_lib.lib(qapi_timer_user.o)	#SHT_PROGBITS,SHF_MERGE|SHF_STRINGS,1
	0x149		
.debug_str	0x47ad9	0x9	sdk\libs\timer_dam_lib.lib(qapi_timer_user.o)	#SHT_PROGBITS,SHF_MERGE|SHF_STRINGS,1
	0x156		
.debug_str	0x47ae2	0xe	sdk\libs\timer_dam_lib.lib(qapi_timer_user.o)	#SHT_PROGBITS,SHF_MERGE|SHF_STRINGS,1
	0x15f		
.debug_str	0x47af0	0x13	sdk\libs\timer_dam_lib.lib(qapi_timer_user.o)	#SHT_PROGBITS,SHF_MERGE|SHF_STRINGS,1
	0x16d		
.debug_str	0x47b03	0x13	sdk\libs\timer_dam_lib.lib(qapi_timer_user.o)	#SHT_PROGBITS,SHF_MERGE|SHF_STRINGS,1
	0x180		
.debug_str	0x47b16	0x14	sdk\libs\timer_dam_lib.lib(qapi_timer_user.o)	#SHT_PROGBITS,SHF_MERGE|SHF_STRINGS,1
	0x193		
.debug_str	0x47b2a	0x15	sdk\libs\timer_dam_lib.lib(qapi_timer_user.o)	#SHT_PROGBITS,SHF_MERGE|SHF_STRINGS,1
	0x1a7		
.debug_str	0x47b3f	0x18	sdk\libs\timer_dam_lib.lib(qapi_timer_user.o)	#SHT_PROGBITS,SHF_MERGE|SHF_STRINGS,1
	0x1bc		
.debug_str	0x47b57	0x15	sdk\libs\timer_dam_lib.lib(qapi_timer_user.o)	#SHT_PROGBITS,SHF_MERGE|SHF_STRINGS,1
	0x1d4		
.debug_str	0x47b6c	0x12	sdk\libs\timer_dam_lib.lib(qapi_timer_user.o)	#SHT_PROGBITS,SHF_MERGE|SHF_STRINGS,1
	0x1e9		
.debug_str	0x47b7e	0x1a	sdk\libs\timer_dam_lib.lib(qapi_timer_user.o)	#SHT_PROGBITS,SHF_MERGE|SHF_STRINGS,1
	0x1fb		
.debug_str	0x47b98	0x1f	sdk\libs\timer_dam_lib.lib(qapi_timer_user.o)	#SHT_PROGBITS,SHF_MERGE|SHF_STRINGS,1
	0x215		
.debug_str	0x47bb7	0x1b	sdk\libs\timer_dam_lib.lib(qapi_timer_user.o)	#SHT_PROGBITS,SHF_MERGE|SHF_STRINGS,1
	0x234		
.debug_str	0x47bd2	0xd	sdk\libs\timer_dam_lib.lib(qapi_timer_user.o)	#SHT_PROGBITS,SHF_MERGE|SHF_STRINGS,1
	0x24f		
.debug_str	0x47bdf	0x12	sdk\libs\timer_dam_lib.lib(qapi_timer_user.o)	#SHT_PROGBITS,SHF_MERGE|SHF_STRINGS,1
	0x25c		
.debug_str	0x47bf1	0x6	sdk\libs\timer_dam_lib.lib(qapi_timer_user.o)	#SHT_PROGBITS,SHF_MERGE|SHF_STRINGS,1
	0x26e		
.debug_str	0x47bf7	0x14	sdk\libs\timer_dam_lib.lib(qapi_timer_user.o)	#SHT_PROGBITS,SHF_MERGE|SHF_STRINGS,1
	0x274		
.debug_str	0x47c0b	0x14	sdk\libs\timer_dam_lib.lib(qapi_timer_user.o)	#SHT_PROGBITS,SHF_MERGE|SHF_STRINGS,1
	0x288		
.debug_str	0x47c1f	0x16	sdk\libs\timer_dam_lib.lib(qapi_timer_user.o)	#SHT_PROGBITS,SHF_MERGE|SHF_STRINGS,1
	0x29c		
.debug_str	0x47c35	0x14	sdk\libs\timer_dam_lib.lib(qapi_timer_user.o)	#SHT_PROGBITS,SHF_MERGE|SHF_STRINGS,1
	0x2b2		
.debug_str	0x47c49	0x15	sdk\libs\timer_dam_lib.lib(qapi_timer_user.o)	#SHT_PROGBITS,SHF_MERGE|SHF_STRINGS,1
	0x2c6		
.debug_str	0x47c5e	0x15	sdk\libs\timer_dam_lib.lib(qapi_timer_user.o)	#SHT_PROGBITS,SHF_MERGE|SHF_STRINGS,1
	0x2db		
.debug_str	0x47c73	0x19	sdk\libs\timer_dam_lib.lib(qapi_timer_user.o)	#SHT_PROGBITS,SHF_MERGE|SHF_STRINGS,1
	0x2f0		
.debug_str	0x47c8c	0x15	sdk\libs\timer_dam_lib.lib(qapi_timer_user.o)	#SHT_PROGBITS,SHF_MERGE|SHF_STRINGS,1
	0x309		
.debug_str	0x47ca1	0x19	sdk\libs\timer_dam_lib.lib(qapi_timer_user.o)	#SHT_PROGBITS,SHF_MERGE|SHF_STRINGS,1
	0x31e		
.debug_str	0x47cba	0xf	sdk\libs\timer_dam_lib.lib(qapi_timer_user.o)	#SHT_PROGBITS,SHF_MERGE|SHF_STRINGS,1
	0x337		
.debug_str	0x47cc9	0x5	sdk\libs\timer_dam_lib.lib(qapi_timer_user.o)	#SHT_PROGBITS,SHF_MERGE|SHF_STRINGS,1
	0x346		
.debug_str	0x47cce	0x5	sdk\libs\timer_dam_lib.lib(qapi_timer_user.o)	#SHT_PROGBITS,SHF_MERGE|SHF_STRINGS,1
	0x34b		
.debug_str	0x47cd3	0x13	sdk\libs\timer_dam_lib.lib(qapi_timer_user.o)	#SHT_PROGBITS,SHF_MERGE|SHF_STRINGS,1
	0x350		
.debug_str	0x47ce6	0x5	sdk\libs\timer_dam_lib.lib(qapi_timer_user.o)	#SHT_PROGBITS,SHF_MERGE|SHF_STRINGS,1
	0x363		
.debug_str	0x47ceb	0x10	sdk\libs\timer_dam_lib.lib(qapi_timer_user.o)	#SHT_PROGBITS,SHF_MERGE|SHF_STRINGS,1
	0x368		
.debug_str	0x47cfb	0x1a	sdk\libs\timer_dam_lib.lib(qapi_timer_user.o)	#SHT_PROGBITS,SHF_MERGE|SHF_STRINGS,1
	0x378		
.debug_str	0x47d15	0x15	sdk\libs\timer_dam_lib.lib(qapi_timer_user.o)	#SHT_PROGBITS,SHF_MERGE|SHF_STRINGS,1
	0x392		
.debug_str	0x47d2a	0x1c	sdk\libs\timer_dam_lib.lib(qapi_timer_user.o)	#SHT_PROGBITS,SHF_MERGE|SHF_STRINGS,1
	0x3a7		
.debug_str	0x47d46	0x18	sdk\libs\timer_dam_lib.lib(qapi_timer_user.o)	#SHT_PROGBITS,SHF_MERGE|SHF_STRINGS,1
	0x3c3		
.debug_str	0x47d5e	0x10	sdk\libs\timer_dam_lib.lib(qapi_timer_user.o)	#SHT_PROGBITS,SHF_MERGE|SHF_STRINGS,1
	0x3db		
.debug_str	0x47d6e	0x1a	sdk\libs\timer_dam_lib.lib(qapi_timer_user.o)	#SHT_PROGBITS,SHF_MERGE|SHF_STRINGS,1
	0x3eb		
.debug_str	0x47d88	0x10	sdk\libs\timer_dam_lib.lib(qapi_timer_user.o)	#SHT_PROGBITS,SHF_MERGE|SHF_STRINGS,1
	0x405		
.debug_str	0x47d98	0x22	sdk\libs\timer_dam_lib.lib(qapi_timer_user.o)	#SHT_PROGBITS,SHF_MERGE|SHF_STRINGS,1
	0x415		
.debug_str	0x47dba	0x26	sdk\libs\timer_dam_lib.lib(qapi_timer_user.o)	#SHT_PROGBITS,SHF_MERGE|SHF_STRINGS,1
	0x437		
.debug_str	0x47de0	0x23	sdk\libs\timer_dam_lib.lib(qapi_timer_user.o)	#SHT_PROGBITS,SHF_MERGE|SHF_STRINGS,1
	0x45d		
.debug_str	0x47e03	0x20	sdk\libs\timer_dam_lib.lib(qapi_timer_user.o)	#SHT_PROGBITS,SHF_MERGE|SHF_STRINGS,1
	0x480		
.debug_str	0x47e23	0x1e	sdk\libs\timer_dam_lib.lib(qapi_timer_user.o)	#SHT_PROGBITS,SHF_MERGE|SHF_STRINGS,1
	0x4a0		
.debug_str	0x47e41	0x22	sdk\libs\timer_dam_lib.lib(qapi_timer_user.o)	#SHT_PROGBITS,SHF_MERGE|SHF_STRINGS,1
	0x4be		
.debug_str	0x47e63	0x1c	sdk\libs\timer_dam_lib.lib(qapi_timer_user.o)	#SHT_PROGBITS,SHF_MERGE|SHF_STRINGS,1
	0x4e0		
.debug_str	0x47e7f	0x19	sdk\libs\timer_dam_lib.lib(qapi_timer_user.o)	#SHT_PROGBITS,SHF_MERGE|SHF_STRINGS,1
	0x4fc		
.debug_str	0x47e98	0x12	sdk\libs\timer_dam_lib.lib(qapi_timer_user.o)	#SHT_PROGBITS,SHF_MERGE|SHF_STRINGS,1
	0x515		
.debug_str	0x47eaa	0x1a	sdk\libs\timer_dam_lib.lib(qapi_timer_user.o)	#SHT_PROGBITS,SHF_MERGE|SHF_STRINGS,1
	0x527		
.debug_str	0x47ec4	0x20	sdk\libs\timer_dam_lib.lib(qapi_timer_user.o)	#SHT_PROGBITS,SHF_MERGE|SHF_STRINGS,1
	0x541		
.debug_str	0x47ee4	0x19	sdk\libs\timer_dam_lib.lib(qapi_timer_user.o)	#SHT_PROGBITS,SHF_MERGE|SHF_STRINGS,1
	0x561		
.debug_str	0x47efd	0x1d	sdk\libs\timer_dam_lib.lib(qapi_timer_user.o)	#SHT_PROGBITS,SHF_MERGE|SHF_STRINGS,1
	0x57a		
.debug_str	0x47f1a	0x17	sdk\libs\timer_dam_lib.lib(qapi_timer_user.o)	#SHT_PROGBITS,SHF_MERGE|SHF_STRINGS,1
	0x597		
.debug_str	0x47f31	0x22	sdk\libs\timer_dam_lib.lib(qapi_timer_user.o)	#SHT_PROGBITS,SHF_MERGE|SHF_STRINGS,1
	0x5ae		
.debug_str	0x47f53	0x19	sdk\libs\timer_dam_lib.lib(qapi_timer_user.o)	#SHT_PROGBITS,SHF_MERGE|SHF_STRINGS,1
	0x5d0		
.debug_str	0x47f6c	0x19	sdk\libs\timer_dam_lib.lib(qapi_timer_user.o)	#SHT_PROGBITS,SHF_MERGE|SHF_STRINGS,1
	0x5e9		
.debug_str	0x47f85	0x17	sdk\libs\timer_dam_lib.lib(qapi_timer_user.o)	#SHT_PROGBITS,SHF_MERGE|SHF_STRINGS,1
	0x602		
.debug_str	0x47f9c	0x1b	sdk\libs\timer_dam_lib.lib(qapi_timer_user.o)	#SHT_PROGBITS,SHF_MERGE|SHF_STRINGS,1
	0x619		
.debug_str	0x47fb7	0x15	sdk\libs\timer_dam_lib.lib(qapi_timer_user.o)	#SHT_PROGBITS,SHF_MERGE|SHF_STRINGS,1
	0x634		
.debug_str	0x47fcc	0x1e	sdk\libs\timer_dam_lib.lib(qapi_timer_user.o)	#SHT_PROGBITS,SHF_MERGE|SHF_STRINGS,1
	0x649		
.debug_str	0x47fea	0x20	sdk\libs\timer_dam_lib.lib(qapi_timer_user.o)	#SHT_PROGBITS,SHF_MERGE|SHF_STRINGS,1
	0x667		
.debug_str	0x4800a	0x23	sdk\libs\timer_dam_lib.lib(qapi_timer_user.o)	#SHT_PROGBITS,SHF_MERGE|SHF_STRINGS,1
	0x687		
.debug_str	0x4802d	0x1b	sdk\libs\timer_dam_lib.lib(qapi_timer_user.o)	#SHT_PROGBITS,SHF_MERGE|SHF_STRINGS,1
	0x6aa		
.debug_str	0x48048	0x1d	sdk\libs\timer_dam_lib.lib(qapi_timer_user.o)	#SHT_PROGBITS,SHF_MERGE|SHF_STRINGS,1
	0x6c5		
.debug_str	0x48065	0x18	sdk\libs\timer_dam_lib.lib(qapi_timer_user.o)	#SHT_PROGBITS,SHF_MERGE|SHF_STRINGS,1
	0x6e2		
.debug_str	0x4807d	0x21	sdk\libs\timer_dam_lib.lib(qapi_timer_user.o)	#SHT_PROGBITS,SHF_MERGE|SHF_STRINGS,1
	0x6fa		
.debug_str	0x4809e	0x1b	sdk\libs\timer_dam_lib.lib(qapi_timer_user.o)	#SHT_PROGBITS,SHF_MERGE|SHF_STRINGS,1
	0x71b		
.debug_str	0x480b9	0x1c	sdk\libs\timer_dam_lib.lib(qapi_timer_user.o)	#SHT_PROGBITS,SHF_MERGE|SHF_STRINGS,1
	0x736		
.debug_str	0x480d5	0x1b	sdk\libs\timer_dam_lib.lib(qapi_timer_user.o)	#SHT_PROGBITS,SHF_MERGE|SHF_STRINGS,1
	0x752		
.debug_str	0x480f0	0xc	sdk\libs\timer_dam_lib.lib(qapi_timer_user.o)	#SHT_PROGBITS,SHF_MERGE|SHF_STRINGS,1
	0x76d		
.debug_str	0x480fc	0xe	sdk\libs\timer_dam_lib.lib(qapi_timer_user.o)	#SHT_PROGBITS,SHF_MERGE|SHF_STRINGS,1
	0x779		
.debug_str	0x4810a	0x19	sdk\libs\timer_dam_lib.lib(qapi_timer_user.o)	#SHT_PROGBITS,SHF_MERGE|SHF_STRINGS,1
	0x787		
.debug_str	0x48123	0xf	sdk\libs\timer_dam_lib.lib(qapi_timer_user.o)	#SHT_PROGBITS,SHF_MERGE|SHF_STRINGS,1
	0x7a0		
.debug_str	0x48132	0x11	sdk\libs\timer_dam_lib.lib(qapi_timer_user.o)	#SHT_PROGBITS,SHF_MERGE|SHF_STRINGS,1
	0x7af		
.debug_str	0x48143	0x1b	sdk\libs\timer_dam_lib.lib(qapi_timer_user.o)	#SHT_PROGBITS,SHF_MERGE|SHF_STRINGS,1
	0x7c0		
.debug_str	0x4815e	0x19	sdk\libs\timer_dam_lib.lib(qapi_timer_user.o)	#SHT_PROGBITS,SHF_MERGE|SHF_STRINGS,1
	0x7db		
.debug_str	0x48177	0x19	sdk\libs\timer_dam_lib.lib(qapi_timer_user.o)	#SHT_PROGBITS,SHF_MERGE|SHF_STRINGS,1
	0x7f4		
.debug_str	0x48190	0x16	sdk\libs\timer_dam_lib.lib(qapi_timer_user.o)	#SHT_PROGBITS,SHF_MERGE|SHF_STRINGS,1
	0x80d		
.debug_str	0x481a6	0x1a	sdk\libs\timer_dam_lib.lib(qapi_timer_user.o)	#SHT_PROGBITS,SHF_MERGE|SHF_STRINGS,1
	0x823		
.debug_str	0x481c0	0x22	sdk\libs\timer_dam_lib.lib(qapi_timer_user.o)	#SHT_PROGBITS,SHF_MERGE|SHF_STRINGS,1
	0x83d		
.debug_str	0x481e2	0x14	sdk\libs\timer_dam_lib.lib(qapi_timer_user.o)	#SHT_PROGBITS,SHF_MERGE|SHF_STRINGS,1
	0x85f		
.debug_str	0x481f6	0x18	sdk\libs\timer_dam_lib.lib(qapi_timer_user.o)	#SHT_PROGBITS,SHF_MERGE|SHF_STRINGS,1
	0x873		
.debug_str	0x4820e	0x10	sdk\libs\timer_dam_lib.lib(qapi_timer_user.o)	#SHT_PROGBITS,SHF_MERGE|SHF_STRINGS,1
	0x88b		
.debug_str	0x4821e	0x1c	sdk\libs\timer_dam_lib.lib(qapi_timer_user.o)	#SHT_PROGBITS,SHF_MERGE|SHF_STRINGS,1
	0x89b		
.debug_str	0x4823a	0x4	sdk\libs\timer_dam_lib.lib(qapi_timer_user.o)	#SHT_PROGBITS,SHF_MERGE|SHF_STRINGS,1
	0x8b7		
.debug_str	0x4823e	0x9	sdk\libs\timer_dam_lib.lib(qapi_timer_user.o)	#SHT_PROGBITS,SHF_MERGE|SHF_STRINGS,1
	0x8bb		
.debug_str	0x48247	0x15	sdk\libs\timer_dam_lib.lib(qapi_timer_user.o)	#SHT_PROGBITS,SHF_MERGE|SHF_STRINGS,1
	0x8c4		
.debug_str	0x4825c	0x17	sdk\libs\timer_dam_lib.lib(qapi_timer_user.o)	#SHT_PROGBITS,SHF_MERGE|SHF_STRINGS,1
	0x8d9		
.debug_str	0x48273	0x1a	sdk\libs\timer_dam_lib.lib(qapi_timer_user.o)	#SHT_PROGBITS,SHF_MERGE|SHF_STRINGS,1
	0x8f0		
.debug_str	0x4828d	0x15	sdk\libs\timer_dam_lib.lib(qapi_timer_user.o)	#SHT_PROGBITS,SHF_MERGE|SHF_STRINGS,1
	0x90a		
.debug_str	0x482a2	0x11	sdk\libs\timer_dam_lib.lib(qapi_timer_user.o)	#SHT_PROGBITS,SHF_MERGE|SHF_STRINGS,1
	0x91f		
.debug_str	0x482b3	0xa	sdk\libs\timer_dam_lib.lib(qapi_timer_user.o)	#SHT_PROGBITS,SHF_MERGE|SHF_STRINGS,1
	0x930		
.debug_str	0x482bd	0x13	sdk\libs\timer_dam_lib.lib(qapi_timer_user.o)	#SHT_PROGBITS,SHF_MERGE|SHF_STRINGS,1
	0x93a		
.debug_str	0x482d0	0xe	sdk\libs\timer_dam_lib.lib(qapi_timer_user.o)	#SHT_PROGBITS,SHF_MERGE|SHF_STRINGS,1
	0x94d		
.debug_str	0x482de	0x6	sdk\libs\timer_dam_lib.lib(qapi_timer_user.o)	#SHT_PROGBITS,SHF_MERGE|SHF_STRINGS,1
	0x95b		
.debug_str	0x482e4	0x12	sdk\libs\timer_dam_lib.lib(qapi_timer_user.o)	#SHT_PROGBITS,SHF_MERGE|SHF_STRINGS,1
	0x961		
.debug_str	0x482f6	0x13	sdk\libs\timer_dam_lib.lib(qapi_timer_user.o)	#SHT_PROGBITS,SHF_MERGE|SHF_STRINGS,1
	0x973		
.debug_str	0x48309	0x1a	sdk\libs\timer_dam_lib.lib(qapi_timer_user.o)	#SHT_PROGBITS,SHF_MERGE|SHF_STRINGS,1
	0x986		
.debug_str	0x48323	0x21	sdk\libs\timer_dam_lib.lib(qapi_timer_user.o)	#SHT_PROGBITS,SHF_MERGE|SHF_STRINGS,1
	0x9a0		
.debug_str	0x48344	0x19	sdk\libs\timer_dam_lib.lib(qapi_timer_user.o)	#SHT_PROGBITS,SHF_MERGE|SHF_STRINGS,1
	0x9c1		
.debug_str	0x4835d	0x1f	sdk\libs\timer_dam_lib.lib(qapi_timer_user.o)	#SHT_PROGBITS,SHF_MERGE|SHF_STRINGS,1
	0x9da		
.debug_str	0x4837c	0x15	sdk\libs\timer_dam_lib.lib(qapi_timer_user.o)	#SHT_PROGBITS,SHF_MERGE|SHF_STRINGS,1
	0x9f9		
.debug_str	0x48391	0x15	sdk\libs\timer_dam_lib.lib(qapi_timer_user.o)	#SHT_PROGBITS,SHF_MERGE|SHF_STRINGS,1
	0xa0e		
.debug_str	0x483a6	0x15	sdk\libs\timer_dam_lib.lib(qapi_timer_user.o)	#SHT_PROGBITS,SHF_MERGE|SHF_STRINGS,1
	0xa23		
.debug_str	0x483bb	0x14	sdk\libs\timer_dam_lib.lib(qapi_timer_user.o)	#SHT_PROGBITS,SHF_MERGE|SHF_STRINGS,1
	0xa38		
.debug_str	0x483cf	0x14	sdk\libs\timer_dam_lib.lib(qapi_timer_user.o)	#SHT_PROGBITS,SHF_MERGE|SHF_STRINGS,1
	0xa4c		
.debug_str	0x483e3	0x15	sdk\libs\timer_dam_lib.lib(qapi_timer_user.o)	#SHT_PROGBITS,SHF_MERGE|SHF_STRINGS,1
	0xa60		
.debug_str	0x483f8	0x14	sdk\libs\timer_dam_lib.lib(qapi_timer_user.o)	#SHT_PROGBITS,SHF_MERGE|SHF_STRINGS,1
	0xa75		
.debug_str	0x4840c	0x21	sdk\libs\timer_dam_lib.lib(qapi_timer_user.o)	#SHT_PROGBITS,SHF_MERGE|SHF_STRINGS,1
	0xa89		
.debug_str	0x4842d	0x25	sdk\libs\timer_dam_lib.lib(qapi_timer_user.o)	#SHT_PROGBITS,SHF_MERGE|SHF_STRINGS,1
	0xaaa		
.debug_str	0x48452	0x26	sdk\libs\timer_dam_lib.lib(qapi_timer_user.o)	#SHT_PROGBITS,SHF_MERGE|SHF_STRINGS,1
	0xacf		
.debug_str	0x48478	0x1a	sdk\libs\timer_dam_lib.lib(qapi_timer_user.o)	#SHT_PROGBITS,SHF_MERGE|SHF_STRINGS,1
	0xaf5		
.debug_str	0x48492	0x10	sdk\libs\timer_dam_lib.lib(qapi_timer_user.o)	#SHT_PROGBITS,SHF_MERGE|SHF_STRINGS,1
	0xb0f		
.debug_str	0x484a2	0x10	sdk\libs\timer_dam_lib.lib(qapi_timer_user.o)	#SHT_PROGBITS,SHF_MERGE|SHF_STRINGS,1
	0xb1f		
.debug_str	0x484b2	0xf	sdk\libs\timer_dam_lib.lib(qapi_timer_user.o)	#SHT_PROGBITS,SHF_MERGE|SHF_STRINGS,1
	0xb2f		
.debug_str	0x484c1	0x11	sdk\libs\timer_dam_lib.lib(qapi_timer_user.o)	#SHT_PROGBITS,SHF_MERGE|SHF_STRINGS,1
	0xb3e		
.debug_str	0x484d2	0x4	sdk\libs\timer_dam_lib.lib(qapi_timer_user.o)	#SHT_PROGBITS,SHF_MERGE|SHF_STRINGS,1
	0xb4f		
.debug_str	0x484d6	0x8	sdk\libs\timer_dam_lib.lib(qapi_timer_user.o)	#SHT_PROGBITS,SHF_MERGE|SHF_STRINGS,1
	0xb53		
.debug_str	0x484de	0xe	sdk\libs\timer_dam_lib.lib(qapi_timer_user.o)	#SHT_PROGBITS,SHF_MERGE|SHF_STRINGS,1
	0xb5b		
.debug_str	0x484ec	0x10	sdk\libs\timer_dam_lib.lib(qapi_timer_user.o)	#SHT_PROGBITS,SHF_MERGE|SHF_STRINGS,1
	0xb69		
.debug_str	0x484fc	0x16	sdk\libs\timer_dam_lib.lib(qapi_timer_user.o)	#SHT_PROGBITS,SHF_MERGE|SHF_STRINGS,1
	0xb79		
.debug_str	0x48512	0x18	sdk\libs\timer_dam_lib.lib(qapi_timer_user.o)	#SHT_PROGBITS,SHF_MERGE|SHF_STRINGS,1
	0xb8f		
.debug_str	0x4852a	0x15	sdk\libs\timer_dam_lib.lib(qapi_timer_user.o)	#SHT_PROGBITS,SHF_MERGE|SHF_STRINGS,1
	0xba7		
.debug_str	0x4853f	0xf	sdk\libs\timer_dam_lib.lib(qapi_timer_user.o)	#SHT_PROGBITS,SHF_MERGE|SHF_STRINGS,1
	0xbbc		
.debug_str	0x4854e	0xf	sdk\libs\timer_dam_lib.lib(qapi_timer_user.o)	#SHT_PROGBITS,SHF_MERGE|SHF_STRINGS,1
	0xbcb		
.debug_str	0x4855d	0x1a	sdk\libs\timer_dam_lib.lib(qapi_timer_user.o)	#SHT_PROGBITS,SHF_MERGE|SHF_STRINGS,1
	0xbda		
.debug_str	0x48577	0x11	sdk\libs\timer_dam_lib.lib(qapi_timer_user.o)	#SHT_PROGBITS,SHF_MERGE|SHF_STRINGS,1
	0xbf4		
.debug_str	0x48588	0x11	sdk\libs\timer_dam_lib.lib(qapi_timer_user.o)	#SHT_PROGBITS,SHF_MERGE|SHF_STRINGS,1
	0xc05		
.debug_str	0x48599	0x10	sdk\libs\timer_dam_lib.lib(qapi_timer_user.o)	#SHT_PROGBITS,SHF_MERGE|SHF_STRINGS,1
	0xc16		
.debug_str	0x485a9	0xe	sdk\libs\timer_dam_lib.lib(qapi_timer_user.o)	#SHT_PROGBITS,SHF_MERGE|SHF_STRINGS,1
	0xc26		
.debug_str	0x485b7	0xe	sdk\libs\timer_dam_lib.lib(qapi_timer_user.o)	#SHT_PROGBITS,SHF_MERGE|SHF_STRINGS,1
	0xc34		
.debug_str	0x485c5	0x9	sdk\libs\timer_dam_lib.lib(qapi_timer_user.o)	#SHT_PROGBITS,SHF_MERGE|SHF_STRINGS,1
	0xc42		
.debug_str	0x485ce	0x5	sdk\libs\timer_dam_lib.lib(qapi_timer_user.o)	#SHT_PROGBITS,SHF_MERGE|SHF_STRINGS,1
	0xc4b		
.debug_str	0x485d3	0x18	sdk\libs\timer_dam_lib.lib(qapi_timer_user.o)	#SHT_PROGBITS,SHF_MERGE|SHF_STRINGS,1
	0xc50		
.debug_str	0x485eb	0x4	sdk\libs\timer_dam_lib.lib(qapi_timer_user.o)	#SHT_PROGBITS,SHF_MERGE|SHF_STRINGS,1
	0xc68		
.debug_str	0x485ef	0xd	sdk\libs\timer_dam_lib.lib(qapi_timer_user.o)	#SHT_PROGBITS,SHF_MERGE|SHF_STRINGS,1
	0xc6c		
.debug_str	0x485fc	0x14	sdk\libs\timer_dam_lib.lib(qapi_timer_user.o)	#SHT_PROGBITS,SHF_MERGE|SHF_STRINGS,1
	0xc79		
.debug_str	0x48610	0xb	sdk\libs\timer_dam_lib.lib(qapi_timer_user.o)	#SHT_PROGBITS,SHF_MERGE|SHF_STRINGS,1
	0xc8d		
.debug_str	0x4861b	0xb	sdk\libs\timer_dam_lib.lib(qapi_timer_user.o)	#SHT_PROGBITS,SHF_MERGE|SHF_STRINGS,1
	0xc98		
.debug_str	0x48626	0x8	sdk\libs\timer_dam_lib.lib(qapi_timer_user.o)	#SHT_PROGBITS,SHF_MERGE|SHF_STRINGS,1
	0xca3		
.debug_str	0x4862e	0x8	sdk\libs\timer_dam_lib.lib(qapi_timer_user.o)	#SHT_PROGBITS,SHF_MERGE|SHF_STRINGS,1
	0xcab		
.debug_str	0x48636	0x14	sdk\libs\timer_dam_lib.lib(qapi_timer_user.o)	#SHT_PROGBITS,SHF_MERGE|SHF_STRINGS,1
	0xcb3		
.debug_str	0x4864a	0xe	sdk\libs\timer_dam_lib.lib(qapi_timer_user.o)	#SHT_PROGBITS,SHF_MERGE|SHF_STRINGS,1
	0xcc7		
.debug_str	0x48658	0xf	sdk\libs\timer_dam_lib.lib(qapi_timer_user.o)	#SHT_PROGBITS,SHF_MERGE|SHF_STRINGS,1
	0xcd5		
.debug_str	0x48667	0x19	sdk\libs\timer_dam_lib.lib(qapi_timer_user.o)	#SHT_PROGBITS,SHF_MERGE|SHF_STRINGS,1
	0xce4		
.debug_str	0x48680	0x5	sdk\libs\timer_dam_lib.lib(qapi_timer_user.o)	#SHT_PROGBITS,SHF_MERGE|SHF_STRINGS,1
	0xcfd		
.debug_str	0x48685	0x9	sdk\libs\timer_dam_lib.lib(qapi_timer_user.o)	#SHT_PROGBITS,SHF_MERGE|SHF_STRINGS,1
	0xd02		
.debug_str	0x4868e	0x7	sdk\libs\timer_dam_lib.lib(qapi_timer_user.o)	#SHT_PROGBITS,SHF_MERGE|SHF_STRINGS,1
	0xd0b		
.debug_str	0x48695	0x5	sdk\libs\timer_dam_lib.lib(qapi_timer_user.o)	#SHT_PROGBITS,SHF_MERGE|SHF_STRINGS,1
	0xd12		
.debug_str	0x4869a	0x15	sdk\libs\timer_dam_lib.lib(qapi_timer_user.o)	#SHT_PROGBITS,SHF_MERGE|SHF_STRINGS,1
	0xd17		
.debug_str	0x486af	0x16	sdk\libs\timer_dam_lib.lib(qapi_timer_user.o)	#SHT_PROGBITS,SHF_MERGE|SHF_STRINGS,1
	0xd2c		
.debug_str	0x486c5	0x14	sdk\libs\timer_dam_lib.lib(qapi_timer_user.o)	#SHT_PROGBITS,SHF_MERGE|SHF_STRINGS,1
	0xd42		
.debug_str	0x486d9	0xb	sdk\libs\timer_dam_lib.lib(qapi_timer_user.o)	#SHT_PROGBITS,SHF_MERGE|SHF_STRINGS,1
	0xd56		
.debug_str	0x486e4	0x15	sdk\libs\timer_dam_lib.lib(qapi_timer_user.o)	#SHT_PROGBITS,SHF_MERGE|SHF_STRINGS,1
	0xd61		
.debug_str	0x486f9	0x1b	sdk\libs\timer_dam_lib.lib(qapi_timer_user.o)	#SHT_PROGBITS,SHF_MERGE|SHF_STRINGS,1
	0xd76		
.debug_str	0x48714	0xf	sdk\libs\timer_dam_lib.lib(qapi_timer_user.o)	#SHT_PROGBITS,SHF_MERGE|SHF_STRINGS,1
	0xd91		
.debug_str	0x48723	0x8	sdk\libs\timer_dam_lib.lib(qapi_timer_user.o)	#SHT_PROGBITS,SHF_MERGE|SHF_STRINGS,1
	0xda0		
.debug_str	0x4872b	0xe	sdk\libs\timer_dam_lib.lib(qapi_timer_user.o)	#SHT_PROGBITS,SHF_MERGE|SHF_STRINGS,1
	0xda8		
.debug_str	0x48739	0x14	sdk\libs\timer_dam_lib.lib(qapi_timer_user.o)	#SHT_PROGBITS,SHF_MERGE|SHF_STRINGS,1
	0xdb6		
.debug_str	0x4874d	0x8	sdk\libs\timer_dam_lib.lib(qapi_timer_user.o)	#SHT_PROGBITS,SHF_MERGE|SHF_STRINGS,1
	0xdca		
.debug_str	0x48755	0xb	sdk\libs\timer_dam_lib.lib(qapi_timer_user.o)	#SHT_PROGBITS,SHF_MERGE|SHF_STRINGS,1
	0xdd2		
.debug_str	0x48760	0xf	sdk\libs\timer_dam_lib.lib(qapi_timer_user.o)	#SHT_PROGBITS,SHF_MERGE|SHF_STRINGS,1
	0xddd		
.debug_str	0x4876f	0xb	sdk\libs\timer_dam_lib.lib(qapi_timer_user.o)	#SHT_PROGBITS,SHF_MERGE|SHF_STRINGS,1
	0xdec		
.debug_str	0x4877a	0xa	sdk\libs\timer_dam_lib.lib(qapi_timer_user.o)	#SHT_PROGBITS,SHF_MERGE|SHF_STRINGS,1
	0xdf7		
.debug_str	0x48784	0xc	sdk\libs\timer_dam_lib.lib(qapi_timer_user.o)	#SHT_PROGBITS,SHF_MERGE|SHF_STRINGS,1
	0xe01		
.debug_str	0x48790	0x5	sdk\libs\timer_dam_lib.lib(qapi_timer_user.o)	#SHT_PROGBITS,SHF_MERGE|SHF_STRINGS,1
	0xe0d		
.debug_str	0x48795	0xf	sdk\libs\timer_dam_lib.lib(qapi_timer_user.o)	#SHT_PROGBITS,SHF_MERGE|SHF_STRINGS,1
	0xe12		
.debug_str	0x487a4	0x9	sdk\libs\timer_dam_lib.lib(qapi_timer_user.o)	#SHT_PROGBITS,SHF_MERGE|SHF_STRINGS,1
	0xe21		
.debug_str	0x487ad	0x6	sdk\libs\timer_dam_lib.lib(qapi_timer_user.o)	#SHT_PROGBITS,SHF_MERGE|SHF_STRINGS,1
	0xe2a		
.debug_str	0x487b3	0x4	sdk\libs\timer_dam_lib.lib(qapi_timer_user.o)	#SHT_PROGBITS,SHF_MERGE|SHF_STRINGS,1
	0xe30		
.debug_str	0x487b7	0x5	sdk\libs\timer_dam_lib.lib(qapi_timer_user.o)	#SHT_PROGBITS,SHF_MERGE|SHF_STRINGS,1
	0xe34		
.debug_str	0x487bc	0x7	sdk\libs\timer_dam_lib.lib(qapi_timer_user.o)	#SHT_PROGBITS,SHF_MERGE|SHF_STRINGS,1
	0xe39		
.debug_str	0x487c3	0x7	sdk\libs\timer_dam_lib.lib(qapi_timer_user.o)	#SHT_PROGBITS,SHF_MERGE|SHF_STRINGS,1
	0xe40		
.debug_str	0x487ca	0xc	sdk\libs\timer_dam_lib.lib(qapi_timer_user.o)	#SHT_PROGBITS,SHF_MERGE|SHF_STRINGS,1
	0xe47		
.debug_str	0x487d6	0x16	sdk\libs\timer_dam_lib.lib(qapi_timer_user.o)	#SHT_PROGBITS,SHF_MERGE|SHF_STRINGS,1
	0xe53		
.debug_str	0x487ec	0x10	sdk\libs\timer_dam_lib.lib(qapi_timer_user.o)	#SHT_PROGBITS,SHF_MERGE|SHF_STRINGS,1
	0xe69		
.debug_str	0x487fc	0xa9	sdk\libs\txm_lib.lib(txm_module_thread_shell_entry.o)	#SHT_PROGBITS,SHF_MERGE|SHF_STRINGS,1
	0xe79		
.debug_str	0x488a5	0x17	sdk\libs\txm_lib.lib(txm_module_thread_shell_entry.o)	#SHT_PROGBITS,SHF_MERGE|SHF_STRINGS,1
	0xf22		
.debug_str	0x488bc	0x24	sdk\libs\txm_lib.lib(txm_module_thread_shell_entry.o)	#SHT_PROGBITS,SHF_MERGE|SHF_STRINGS,1
	0xf39		
.debug_str	0x488e0	0x24	sdk\libs\txm_lib.lib(txm_module_thread_shell_entry.o)	#SHT_PROGBITS,SHF_MERGE|SHF_STRINGS,1
	0xf5d		
.debug_str	0x48904	0x17	sdk\libs\txm_lib.lib(txm_module_thread_shell_entry.o)	#SHT_PROGBITS,SHF_MERGE|SHF_STRINGS,1
	0xf81		
.debug_str	0x4891b	0x19	sdk\libs\txm_lib.lib(txm_module_thread_shell_entry.o)	#SHT_PROGBITS,SHF_MERGE|SHF_STRINGS,1
	0xf98		
.debug_str	0x48934	0x1a	sdk\libs\txm_lib.lib(txm_module_thread_shell_entry.o)	#SHT_PROGBITS,SHF_MERGE|SHF_STRINGS,1
	0xfb1		
.debug_str	0x4894e	0x23	sdk\libs\txm_lib.lib(txm_module_thread_shell_entry.o)	#SHT_PROGBITS,SHF_MERGE|SHF_STRINGS,1
	0xfcb		
.debug_str	0x48971	0x28	sdk\libs\txm_lib.lib(txm_module_thread_shell_entry.o)	#SHT_PROGBITS,SHF_MERGE|SHF_STRINGS,1
	0xfee		
.debug_str	0x48999	0x29	sdk\libs\txm_lib.lib(txm_module_thread_shell_entry.o)	#SHT_PROGBITS,SHF_MERGE|SHF_STRINGS,1
	0x1016		
.debug_str	0x489c2	0x1f	sdk\libs\txm_lib.lib(txm_module_thread_shell_entry.o)	#SHT_PROGBITS,SHF_MERGE|SHF_STRINGS,1
	0x103f		
.debug_str	0x489e1	0x1d	sdk\libs\txm_lib.lib(txm_module_thread_shell_entry.o)	#SHT_PROGBITS,SHF_MERGE|SHF_STRINGS,1
	0x105e		
.debug_str	0x489fe	0x1e	sdk\libs\txm_lib.lib(txm_module_thread_shell_entry.o)	#SHT_PROGBITS,SHF_MERGE|SHF_STRINGS,1
	0x107b		
.debug_str	0x48a1c	0x28	sdk\libs\txm_lib.lib(txm_module_thread_shell_entry.o)	#SHT_PROGBITS,SHF_MERGE|SHF_STRINGS,1
	0x1099		
.debug_str	0x48a44	0x29	sdk\libs\txm_lib.lib(txm_module_thread_shell_entry.o)	#SHT_PROGBITS,SHF_MERGE|SHF_STRINGS,1
	0x10c1		
.debug_str	0x48a6d	0x1f	sdk\libs\txm_lib.lib(txm_module_thread_shell_entry.o)	#SHT_PROGBITS,SHF_MERGE|SHF_STRINGS,1
	0x10ea		
.debug_str	0x48a8c	0x1d	sdk\libs\txm_lib.lib(txm_module_thread_shell_entry.o)	#SHT_PROGBITS,SHF_MERGE|SHF_STRINGS,1
	0x1109		
.debug_str	0x48aa9	0x2d	sdk\libs\txm_lib.lib(txm_module_thread_shell_entry.o)	#SHT_PROGBITS,SHF_MERGE|SHF_STRINGS,1
	0x1126		
.debug_str	0x48ad6	0x1e	sdk\libs\txm_lib.lib(txm_module_thread_shell_entry.o)	#SHT_PROGBITS,SHF_MERGE|SHF_STRINGS,1
	0x1153		
.debug_str	0x48af4	0x24	sdk\libs\txm_lib.lib(txm_module_thread_shell_entry.o)	#SHT_PROGBITS,SHF_MERGE|SHF_STRINGS,1
	0x1171		
.debug_str	0x48b18	0x33	sdk\libs\txm_lib.lib(txm_module_thread_shell_entry.o)	#SHT_PROGBITS,SHF_MERGE|SHF_STRINGS,1
	0x1195		
.debug_str	0x48b4b	0x31	sdk\libs\txm_lib.lib(txm_module_thread_shell_entry.o)	#SHT_PROGBITS,SHF_MERGE|SHF_STRINGS,1
	0x11c8		
.debug_str	0x48b7c	0x31	sdk\libs\txm_lib.lib(txm_module_thread_shell_entry.o)	#SHT_PROGBITS,SHF_MERGE|SHF_STRINGS,1
	0x11f9		
.debug_str	0x48bad	0x2f	sdk\libs\txm_lib.lib(txm_module_thread_shell_entry.o)	#SHT_PROGBITS,SHF_MERGE|SHF_STRINGS,1
	0x122a		
.debug_str	0x48bdc	0x21	sdk\libs\txm_lib.lib(txm_module_thread_shell_entry.o)	#SHT_PROGBITS,SHF_MERGE|SHF_STRINGS,1
	0x1259		
.debug_str	0x48bfd	0x17	sdk\libs\txm_lib.lib(txm_module_thread_shell_entry.o)	#SHT_PROGBITS,SHF_MERGE|SHF_STRINGS,1
	0x127a		
.debug_str	0x48c14	0x22	sdk\libs\txm_lib.lib(txm_module_thread_shell_entry.o)	#SHT_PROGBITS,SHF_MERGE|SHF_STRINGS,1
	0x1291		
.debug_str	0x48c36	0x22	sdk\libs\txm_lib.lib(txm_module_thread_shell_entry.o)	#SHT_PROGBITS,SHF_MERGE|SHF_STRINGS,1
	0x12b3		
.debug_str	0x48c58	0x22	sdk\libs\txm_lib.lib(txm_module_thread_shell_entry.o)	#SHT_PROGBITS,SHF_MERGE|SHF_STRINGS,1
	0x12d5		
.debug_str	0x48c7a	0x2a	sdk\libs\txm_lib.lib(txm_module_thread_shell_entry.o)	#SHT_PROGBITS,SHF_MERGE|SHF_STRINGS,1
	0x12f7		
.debug_str	0x48ca4	0x23	sdk\libs\txm_lib.lib(txm_module_thread_shell_entry.o)	#SHT_PROGBITS,SHF_MERGE|SHF_STRINGS,1
	0x1321		
.debug_str	0x48cc7	0x29	sdk\libs\txm_lib.lib(txm_module_thread_shell_entry.o)	#SHT_PROGBITS,SHF_MERGE|SHF_STRINGS,1
	0x1344		
.debug_str	0x48cf0	0x23	sdk\libs\txm_lib.lib(txm_module_thread_shell_entry.o)	#SHT_PROGBITS,SHF_MERGE|SHF_STRINGS,1
	0x136d		
.debug_str	0x48d13	0x22	sdk\libs\txm_lib.lib(txm_module_thread_shell_entry.o)	#SHT_PROGBITS,SHF_MERGE|SHF_STRINGS,1
	0x1390		
.debug_str	0x48d35	0x28	sdk\libs\txm_lib.lib(txm_module_thread_shell_entry.o)	#SHT_PROGBITS,SHF_MERGE|SHF_STRINGS,1
	0x13b2		
.debug_str	0x48d5d	0x2a	sdk\libs\txm_lib.lib(txm_module_thread_shell_entry.o)	#SHT_PROGBITS,SHF_MERGE|SHF_STRINGS,1
	0x13da		
.debug_str	0x48d87	0x26	sdk\libs\txm_lib.lib(txm_module_thread_shell_entry.o)	#SHT_PROGBITS,SHF_MERGE|SHF_STRINGS,1
	0x1404		
.debug_str	0x48dad	0x26	sdk\libs\txm_lib.lib(txm_module_thread_shell_entry.o)	#SHT_PROGBITS,SHF_MERGE|SHF_STRINGS,1
	0x142a		
.debug_str	0x48dd3	0x28	sdk\libs\txm_lib.lib(txm_module_thread_shell_entry.o)	#SHT_PROGBITS,SHF_MERGE|SHF_STRINGS,1
	0x1450		
.debug_str	0x48dfb	0x1e	sdk\libs\txm_lib.lib(txm_module_thread_shell_entry.o)	#SHT_PROGBITS,SHF_MERGE|SHF_STRINGS,1
	0x1478		
.debug_str	0x48e19	0x1e	sdk\libs\txm_lib.lib(txm_module_thread_shell_entry.o)	#SHT_PROGBITS,SHF_MERGE|SHF_STRINGS,1
	0x1496		
.debug_str	0x48e37	0x1f	sdk\libs\txm_lib.lib(txm_module_thread_shell_entry.o)	#SHT_PROGBITS,SHF_MERGE|SHF_STRINGS,1
	0x14b4		
.debug_str	0x48e56	0x1f	sdk\libs\txm_lib.lib(txm_module_thread_shell_entry.o)	#SHT_PROGBITS,SHF_MERGE|SHF_STRINGS,1
	0x14d3		
.debug_str	0x48e75	0x1f	sdk\libs\txm_lib.lib(txm_module_thread_shell_entry.o)	#SHT_PROGBITS,SHF_MERGE|SHF_STRINGS,1
	0x14f2		
.debug_str	0x48e94	0x1f	sdk\libs\txm_lib.lib(txm_module_thread_shell_entry.o)	#SHT_PROGBITS,SHF_MERGE|SHF_STRINGS,1
	0x1511		
.debug_str	0x48eb3	0x1f	sdk\libs\txm_lib.lib(txm_module_thread_shell_entry.o)	#SHT_PROGBITS,SHF_MERGE|SHF_STRINGS,1
	0x1530		
.debug_str	0x48ed2	0x1f	sdk\libs\txm_lib.lib(txm_module_thread_shell_entry.o)	#SHT_PROGBITS,SHF_MERGE|SHF_STRINGS,1
	0x154f		
.debug_str	0x48ef1	0x1f	sdk\libs\txm_lib.lib(txm_module_thread_shell_entry.o)	#SHT_PROGBITS,SHF_MERGE|SHF_STRINGS,1
	0x156e		
.debug_str	0x48f10	0x1f	sdk\libs\txm_lib.lib(txm_module_thread_shell_entry.o)	#SHT_PROGBITS,SHF_MERGE|SHF_STRINGS,1
	0x158d		
.debug_str	0x48f2f	0x1f	sdk\libs\txm_lib.lib(txm_module_thread_shell_entry.o)	#SHT_PROGBITS,SHF_MERGE|SHF_STRINGS,1
	0x15ac		
.debug_str	0x48f4e	0x1f	sdk\libs\txm_lib.lib(txm_module_thread_shell_entry.o)	#SHT_PROGBITS,SHF_MERGE|SHF_STRINGS,1
	0x15cb		
.debug_str	0x48f6d	0x21	sdk\libs\txm_lib.lib(txm_module_thread_shell_entry.o)	#SHT_PROGBITS,SHF_MERGE|SHF_STRINGS,1
	0x15ea		
.debug_str	0x48f8e	0x20	sdk\libs\txm_lib.lib(txm_module_thread_shell_entry.o)	#SHT_PROGBITS,SHF_MERGE|SHF_STRINGS,1
	0x160b		
.debug_str	0x48fae	0x20	sdk\libs\txm_lib.lib(txm_module_thread_shell_entry.o)	#SHT_PROGBITS,SHF_MERGE|SHF_STRINGS,1
	0x162b		
.debug_str	0x48fce	0x20	sdk\libs\txm_lib.lib(txm_module_thread_shell_entry.o)	#SHT_PROGBITS,SHF_MERGE|SHF_STRINGS,1
	0x164b		
.debug_str	0x48fee	0x20	sdk\libs\txm_lib.lib(txm_module_thread_shell_entry.o)	#SHT_PROGBITS,SHF_MERGE|SHF_STRINGS,1
	0x166b		
.debug_str	0x4900e	0x1d	sdk\libs\txm_lib.lib(txm_module_thread_shell_entry.o)	#SHT_PROGBITS,SHF_MERGE|SHF_STRINGS,1
	0x168b		
.debug_str	0x4902b	0x1b	sdk\libs\txm_lib.lib(txm_module_thread_shell_entry.o)	#SHT_PROGBITS,SHF_MERGE|SHF_STRINGS,1
	0x16a8		
.debug_str	0x49046	0x14	sdk\libs\txm_lib.lib(txm_module_thread_shell_entry.o)	#SHT_PROGBITS,SHF_MERGE|SHF_STRINGS,1
	0x16c3		
.debug_str	0x4905a	0x29	sdk\libs\txm_lib.lib(txm_module_thread_shell_entry.o)	#SHT_PROGBITS,SHF_MERGE|SHF_STRINGS,1
	0x16d7		
.debug_str	0x49083	0x27	sdk\libs\txm_lib.lib(txm_module_thread_shell_entry.o)	#SHT_PROGBITS,SHF_MERGE|SHF_STRINGS,1
	0x1700		
.debug_str	0x490aa	0x26	sdk\libs\txm_lib.lib(txm_module_thread_shell_entry.o)	#SHT_PROGBITS,SHF_MERGE|SHF_STRINGS,1
	0x1727		
.debug_str	0x490d0	0x32	sdk\libs\txm_lib.lib(txm_module_thread_shell_entry.o)	#SHT_PROGBITS,SHF_MERGE|SHF_STRINGS,1
	0x174d		
.debug_str	0x49102	0x26	sdk\libs\txm_lib.lib(txm_module_thread_shell_entry.o)	#SHT_PROGBITS,SHF_MERGE|SHF_STRINGS,1
	0x177f		
.debug_str	0x49128	0x2c	sdk\libs\txm_lib.lib(txm_module_thread_shell_entry.o)	#SHT_PROGBITS,SHF_MERGE|SHF_STRINGS,1
	0x17a5		
.debug_str	0x49154	0x2b	sdk\libs\txm_lib.lib(txm_module_thread_shell_entry.o)	#SHT_PROGBITS,SHF_MERGE|SHF_STRINGS,1
	0x17d1		
.debug_str	0x4917f	0xc	sdk\libs\txm_lib.lib(txm_module_thread_shell_entry.o)	#SHT_PROGBITS,SHF_MERGE|SHF_STRINGS,1
	0x17fc		
.debug_str	0x4918b	0xe	sdk\libs\txm_lib.lib(txm_module_thread_shell_entry.o)	#SHT_PROGBITS,SHF_MERGE|SHF_STRINGS,1
	0x1808		
.debug_str	0x49199	0x16	sdk\libs\txm_lib.lib(txm_module_thread_shell_entry.o)	#SHT_PROGBITS,SHF_MERGE|SHF_STRINGS,1
	0x1816		
.debug_str	0x491af	0x12	sdk\libs\txm_lib.lib(txm_module_thread_shell_entry.o)	#SHT_PROGBITS,SHF_MERGE|SHF_STRINGS,1
	0x182c		
.debug_str	0x491c1	0x12	sdk\libs\txm_lib.lib(txm_module_thread_shell_entry.o)	#SHT_PROGBITS,SHF_MERGE|SHF_STRINGS,1
	0x183e		
.debug_str	0x491d3	0x1b	sdk\libs\txm_lib.lib(txm_module_thread_shell_entry.o)	#SHT_PROGBITS,SHF_MERGE|SHF_STRINGS,1
	0x1850		
.debug_str	0x491ee	0xf	sdk\libs\txm_lib.lib(txm_module_thread_shell_entry.o)	#SHT_PROGBITS,SHF_MERGE|SHF_STRINGS,1
	0x186b		
.debug_str	0x491fd	0xd	sdk\libs\txm_lib.lib(txm_module_thread_shell_entry.o)	#SHT_PROGBITS,SHF_MERGE|SHF_STRINGS,1
	0x187a		
.debug_str	0x4920a	0xe	sdk\libs\txm_lib.lib(txm_module_thread_shell_entry.o)	#SHT_PROGBITS,SHF_MERGE|SHF_STRINGS,1
	0x1887		
.debug_str	0x49218	0xf	sdk\libs\txm_lib.lib(txm_module_thread_shell_entry.o)	#SHT_PROGBITS,SHF_MERGE|SHF_STRINGS,1
	0x1895		
.debug_str	0x49227	0x19	sdk\libs\txm_lib.lib(txm_module_thread_shell_entry.o)	#SHT_PROGBITS,SHF_MERGE|SHF_STRINGS,1
	0x18a4		
.debug_str	0x49240	0x19	sdk\libs\txm_lib.lib(txm_module_thread_shell_entry.o)	#SHT_PROGBITS,SHF_MERGE|SHF_STRINGS,1
	0x18bd		
.debug_str	0x49259	0x16	sdk\libs\txm_lib.lib(txm_module_thread_shell_entry.o)	#SHT_PROGBITS,SHF_MERGE|SHF_STRINGS,1
	0x18d6		
.debug_str	0x4926f	0x1a	sdk\libs\txm_lib.lib(txm_module_thread_shell_entry.o)	#SHT_PROGBITS,SHF_MERGE|SHF_STRINGS,1
	0x18ec		
.debug_str	0x49289	0x10	sdk\libs\txm_lib.lib(txm_module_thread_shell_entry.o)	#SHT_PROGBITS,SHF_MERGE|SHF_STRINGS,1
	0x1906		
.debug_str	0x49299	0x9	sdk\libs\txm_lib.lib(txm_module_thread_shell_entry.o)	#SHT_PROGBITS,SHF_MERGE|SHF_STRINGS,1
	0x1916		
.debug_str	0x492a2	0x30	sdk\libs\txm_lib.lib(txm_module_thread_shell_entry.o)	#SHT_PROGBITS,SHF_MERGE|SHF_STRINGS,1
	0x191f		
.debug_str	0x492d2	0x2a	sdk\libs\txm_lib.lib(txm_module_thread_shell_entry.o)	#SHT_PROGBITS,SHF_MERGE|SHF_STRINGS,1
	0x194f		
.debug_str	0x492fc	0x28	sdk\libs\txm_lib.lib(txm_module_thread_shell_entry.o)	#SHT_PROGBITS,SHF_MERGE|SHF_STRINGS,1
	0x1979		
.debug_str	0x49324	0x28	sdk\libs\txm_lib.lib(txm_module_thread_shell_entry.o)	#SHT_PROGBITS,SHF_MERGE|SHF_STRINGS,1
	0x19a1		
.debug_str	0x4934c	0x26	sdk\libs\txm_lib.lib(txm_module_thread_shell_entry.o)	#SHT_PROGBITS,SHF_MERGE|SHF_STRINGS,1
	0x19c9		
.debug_str	0x49372	0x2a	sdk\libs\txm_lib.lib(txm_module_thread_shell_entry.o)	#SHT_PROGBITS,SHF_MERGE|SHF_STRINGS,1
	0x19ef		
.debug_str	0x4939c	0x28	sdk\libs\txm_lib.lib(txm_module_thread_shell_entry.o)	#SHT_PROGBITS,SHF_MERGE|SHF_STRINGS,1
	0x1a19		
.debug_str	0x493c4	0x28	sdk\libs\txm_lib.lib(txm_module_thread_shell_entry.o)	#SHT_PROGBITS,SHF_MERGE|SHF_STRINGS,1
	0x1a41		
.debug_str	0x493ec	0x25	sdk\libs\txm_lib.lib(txm_module_thread_shell_entry.o)	#SHT_PROGBITS,SHF_MERGE|SHF_STRINGS,1
	0x1a69		
.debug_str	0x49411	0x19	sdk\libs\txm_lib.lib(txm_module_thread_shell_entry.o)	#SHT_PROGBITS,SHF_MERGE|SHF_STRINGS,1
	0x1a8e		
.debug_str	0x4942a	0x18	sdk\libs\txm_lib.lib(txm_module_thread_shell_entry.o)	#SHT_PROGBITS,SHF_MERGE|SHF_STRINGS,1
	0x1aa7		
.debug_str	0x49442	0x1e	sdk\libs\txm_lib.lib(txm_module_thread_shell_entry.o)	#SHT_PROGBITS,SHF_MERGE|SHF_STRINGS,1
	0x1abf		
.debug_str	0x49460	0x1e	sdk\libs\txm_lib.lib(txm_module_thread_shell_entry.o)	#SHT_PROGBITS,SHF_MERGE|SHF_STRINGS,1
	0x1add		
.debug_str	0x4947e	0x15	sdk\libs\txm_lib.lib(txm_module_thread_shell_entry.o)	#SHT_PROGBITS,SHF_MERGE|SHF_STRINGS,1
	0x1afb		
.debug_str	0x49493	0x14	sdk\libs\txm_lib.lib(txm_module_thread_shell_entry.o)	#SHT_PROGBITS,SHF_MERGE|SHF_STRINGS,1
	0x1b10		
.debug_str	0x494a7	0x25	sdk\libs\txm_lib.lib(txm_module_thread_shell_entry.o)	#SHT_PROGBITS,SHF_MERGE|SHF_STRINGS,1
	0x1b24		
.debug_str	0x494cc	0x2c	sdk\libs\txm_lib.lib(txm_module_thread_shell_entry.o)	#SHT_PROGBITS,SHF_MERGE|SHF_STRINGS,1
	0x1b49		
.debug_str	0x494f8	0x21	sdk\libs\txm_lib.lib(txm_module_thread_shell_entry.o)	#SHT_PROGBITS,SHF_MERGE|SHF_STRINGS,1
	0x1b75		
.debug_str	0x49519	0x25	sdk\libs\txm_lib.lib(txm_module_thread_shell_entry.o)	#SHT_PROGBITS,SHF_MERGE|SHF_STRINGS,1
	0x1b96		
.debug_str	0x4953e	0x17	sdk\libs\txm_lib.lib(txm_module_thread_shell_entry.o)	#SHT_PROGBITS,SHF_MERGE|SHF_STRINGS,1
	0x1bbb		
.debug_str	0x49555	0x23	sdk\libs\txm_lib.lib(txm_module_thread_shell_entry.o)	#SHT_PROGBITS,SHF_MERGE|SHF_STRINGS,1
	0x1bd2		
.debug_str	0x49578	0x26	sdk\libs\txm_lib.lib(txm_module_thread_shell_entry.o)	#SHT_PROGBITS,SHF_MERGE|SHF_STRINGS,1
	0x1bf5		
.debug_str	0x4959e	0x20	sdk\libs\txm_lib.lib(txm_module_thread_shell_entry.o)	#SHT_PROGBITS,SHF_MERGE|SHF_STRINGS,1
	0x1c1b		
.debug_str	0x495be	0x24	sdk\libs\txm_lib.lib(txm_module_thread_shell_entry.o)	#SHT_PROGBITS,SHF_MERGE|SHF_STRINGS,1
	0x1c3b		
.debug_str	0x495e2	0x1b	sdk\libs\txm_lib.lib(txm_module_thread_shell_entry.o)	#SHT_PROGBITS,SHF_MERGE|SHF_STRINGS,1
	0x1c5f		
.debug_str	0x495fd	0x14	sdk\libs\txm_lib.lib(txm_module_thread_shell_entry.o)	#SHT_PROGBITS,SHF_MERGE|SHF_STRINGS,1
	0x1c7a		
.debug_str	0x49611	0x2f	sdk\libs\txm_lib.lib(txm_module_thread_shell_entry.o)	#SHT_PROGBITS,SHF_MERGE|SHF_STRINGS,1
	0x1c8e		
.debug_str	0x49640	0x2f	sdk\libs\txm_lib.lib(txm_module_thread_shell_entry.o)	#SHT_PROGBITS,SHF_MERGE|SHF_STRINGS,1
	0x1cbd		
.debug_str	0x4966f	0x23	sdk\libs\txm_lib.lib(txm_module_thread_shell_entry.o)	#SHT_PROGBITS,SHF_MERGE|SHF_STRINGS,1
	0x1cec		
.debug_str	0x49692	0x27	sdk\libs\txm_lib.lib(txm_module_thread_shell_entry.o)	#SHT_PROGBITS,SHF_MERGE|SHF_STRINGS,1
	0x1d0f		
.debug_str	0x496b9	0x29	sdk\libs\txm_lib.lib(txm_module_thread_shell_entry.o)	#SHT_PROGBITS,SHF_MERGE|SHF_STRINGS,1
	0x1d36		
.debug_str	0x496e2	0x2a	sdk\libs\txm_lib.lib(txm_module_thread_shell_entry.o)	#SHT_PROGBITS,SHF_MERGE|SHF_STRINGS,1
	0x1d5f		
.debug_str	0x4970c	0x35	sdk\libs\txm_lib.lib(txm_module_thread_shell_entry.o)	#SHT_PROGBITS,SHF_MERGE|SHF_STRINGS,1
	0x1d89		
.debug_str	0x49741	0x34	sdk\libs\txm_lib.lib(txm_module_thread_shell_entry.o)	#SHT_PROGBITS,SHF_MERGE|SHF_STRINGS,1
	0x1dbe		
.debug_str	0x49775	0x35	sdk\libs\txm_lib.lib(txm_module_thread_shell_entry.o)	#SHT_PROGBITS,SHF_MERGE|SHF_STRINGS,1
	0x1df2		
.debug_str	0x497aa	0x34	sdk\libs\txm_lib.lib(txm_module_thread_shell_entry.o)	#SHT_PROGBITS,SHF_MERGE|SHF_STRINGS,1
	0x1e27		
.debug_str	0x497de	0x24	sdk\libs\txm_lib.lib(txm_module_thread_shell_entry.o)	#SHT_PROGBITS,SHF_MERGE|SHF_STRINGS,1
	0x1e5b		
.debug_str	0x49802	0x1d	sdk\libs\txm_lib.lib(txm_module_thread_shell_entry.o)	#SHT_PROGBITS,SHF_MERGE|SHF_STRINGS,1
	0x1e7f		
.debug_str	0x4981f	0x19	sdk\libs\txm_lib.lib(txm_module_thread_shell_entry.o)	#SHT_PROGBITS,SHF_MERGE|SHF_STRINGS,1
	0x1e9c		
.debug_str	0x49838	0x23	sdk\libs\txm_lib.lib(txm_module_thread_shell_entry.o)	#SHT_PROGBITS,SHF_MERGE|SHF_STRINGS,1
	0x1eb5		
.debug_str	0x4985b	0xa	sdk\libs\txm_lib.lib(txm_module_thread_shell_entry.o)	#SHT_PROGBITS,SHF_MERGE|SHF_STRINGS,1
	0x1ed8		
.debug_str	0x49865	0x1f	sdk\libs\txm_lib.lib(txm_module_thread_shell_entry.o)	#SHT_PROGBITS,SHF_MERGE|SHF_STRINGS,1
	0x1ee2		
.debug_str	0x49884	0xb	sdk\libs\txm_lib.lib(txm_module_thread_shell_entry.o)	#SHT_PROGBITS,SHF_MERGE|SHF_STRINGS,1
	0x1f01		
.debug_str	0x4988f	0xc	sdk\libs\txm_lib.lib(txm_module_thread_shell_entry.o)	#SHT_PROGBITS,SHF_MERGE|SHF_STRINGS,1
	0x1f0c		
.debug_str	0x4989b	0xb4	sdk\libs\txm_lib.lib(txm_module_callback_request_thread_entry.o)	#SHT_PROGBITS,SHF_MERGE|SHF_STRINGS,1
	0x1f18		
.debug_str	0x4994f	0x18	sdk\libs\txm_lib.lib(txm_module_callback_request_thread_entry.o)	#SHT_PROGBITS,SHF_MERGE|SHF_STRINGS,1
	0x1fcc		
.debug_str	0x49967	0x1a	sdk\libs\txm_lib.lib(txm_module_callback_request_thread_entry.o)	#SHT_PROGBITS,SHF_MERGE|SHF_STRINGS,1
	0x1fe4		
.debug_str	0x49981	0x1d	sdk\libs\txm_lib.lib(txm_module_callback_request_thread_entry.o)	#SHT_PROGBITS,SHF_MERGE|SHF_STRINGS,1
	0x1ffe		
.debug_str	0x4999e	0x22	sdk\libs\txm_lib.lib(txm_module_callback_request_thread_entry.o)	#SHT_PROGBITS,SHF_MERGE|SHF_STRINGS,1
	0x201b		
.debug_str	0x499c0	0x25	sdk\libs\txm_lib.lib(txm_module_callback_request_thread_entry.o)	#SHT_PROGBITS,SHF_MERGE|SHF_STRINGS,1
	0x203d		
.debug_str	0x499e5	0x25	sdk\libs\txm_lib.lib(txm_module_callback_request_thread_entry.o)	#SHT_PROGBITS,SHF_MERGE|SHF_STRINGS,1
	0x2062		
.debug_str	0x49a0a	0x22	sdk\libs\txm_lib.lib(txm_module_callback_request_thread_entry.o)	#SHT_PROGBITS,SHF_MERGE|SHF_STRINGS,1
	0x2087		
.debug_str	0x49a2c	0x26	sdk\libs\txm_lib.lib(txm_module_callback_request_thread_entry.o)	#SHT_PROGBITS,SHF_MERGE|SHF_STRINGS,1
	0x20a9		
.debug_str	0x49a52	0x23	sdk\libs\txm_lib.lib(txm_module_callback_request_thread_entry.o)	#SHT_PROGBITS,SHF_MERGE|SHF_STRINGS,1
	0x20cf		
.debug_str	0x49a75	0x1c	sdk\libs\txm_lib.lib(txm_module_callback_request_thread_entry.o)	#SHT_PROGBITS,SHF_MERGE|SHF_STRINGS,1
	0x20f2		
.debug_str	0x49a91	0x15	sdk\libs\txm_lib.lib(txm_module_callback_request_thread_entry.o)	#SHT_PROGBITS,SHF_MERGE|SHF_STRINGS,1
	0x210e		
.debug_str	0x49aa6	0x10	sdk\libs\txm_lib.lib(txm_module_callback_request_thread_entry.o)	#SHT_PROGBITS,SHF_MERGE|SHF_STRINGS,1
	0x2123		
.debug_str	0x49ab6	0x12	sdk\libs\txm_lib.lib(txm_module_callback_request_thread_entry.o)	#SHT_PROGBITS,SHF_MERGE|SHF_STRINGS,1
	0x2133		
.debug_str	0x49ac8	0x13	sdk\libs\txm_lib.lib(txm_module_callback_request_thread_entry.o)	#SHT_PROGBITS,SHF_MERGE|SHF_STRINGS,1
	0x2145		
.debug_str	0x49adb	0x1d	sdk\libs\txm_lib.lib(txm_module_callback_request_thread_entry.o)	#SHT_PROGBITS,SHF_MERGE|SHF_STRINGS,1
	0x2158		
.debug_str	0x49af8	0x1d	sdk\libs\txm_lib.lib(txm_module_callback_request_thread_entry.o)	#SHT_PROGBITS,SHF_MERGE|SHF_STRINGS,1
	0x2175		
.debug_str	0x49b15	0x1a	sdk\libs\txm_lib.lib(txm_module_callback_request_thread_entry.o)	#SHT_PROGBITS,SHF_MERGE|SHF_STRINGS,1
	0x2192		
.debug_str	0x49b2f	0x1e	sdk\libs\txm_lib.lib(txm_module_callback_request_thread_entry.o)	#SHT_PROGBITS,SHF_MERGE|SHF_STRINGS,1
	0x21ac		
.debug_str	0x49b4d	0x14	sdk\libs\txm_lib.lib(txm_module_callback_request_thread_entry.o)	#SHT_PROGBITS,SHF_MERGE|SHF_STRINGS,1
	0x21ca		
.debug_str	0x49b61	0xd	sdk\libs\txm_lib.lib(txm_module_callback_request_thread_entry.o)	#SHT_PROGBITS,SHF_MERGE|SHF_STRINGS,1
	0x21de		
.debug_str	0x49b6e	0x18	sdk\libs\txm_lib.lib(txm_module_callback_request_thread_entry.o)	#SHT_PROGBITS,SHF_MERGE|SHF_STRINGS,1
	0x21eb		
.debug_str	0x49b86	0x2a	sdk\libs\txm_lib.lib(txm_module_callback_request_thread_entry.o)	#SHT_PROGBITS,SHF_MERGE|SHF_STRINGS,1
	0x2203		
.debug_str	0x49bb0	0x3	sdk\libs\txm_lib.lib(txm_module_callback_request_thread_entry.o)	#SHT_PROGBITS,SHF_MERGE|SHF_STRINGS,1
	0x222d		
.debug_str	0x49bb3	0x7	sdk\libs\txm_lib.lib(txm_module_callback_request_thread_entry.o)	#SHT_PROGBITS,SHF_MERGE|SHF_STRINGS,1
	0x2230		
.debug_str	0x49bba	0xf	sdk\libs\txm_lib.lib(txm_module_callback_request_thread_entry.o)	#SHT_PROGBITS,SHF_MERGE|SHF_STRINGS,1
	0x2237		
.debug_str	0x49bc9	0x19	sdk\libs\txm_lib.lib(txm_module_callback_request_thread_entry.o)	#SHT_PROGBITS,SHF_MERGE|SHF_STRINGS,1
	0x2246		
.debug_str	0x49be2	0x12	sdk\libs\txm_lib.lib(txm_module_callback_request_thread_entry.o)	#SHT_PROGBITS,SHF_MERGE|SHF_STRINGS,1
	0x225f		
.debug_str	0x49bf4	0xe	sdk\libs\txm_lib.lib(txm_module_callback_request_thread_entry.o)	#SHT_PROGBITS,SHF_MERGE|SHF_STRINGS,1
	0x2271		
.debug_str	0x49c02	0xf	sdk\libs\txm_lib.lib(txm_module_callback_request_thread_entry.o)	#SHT_PROGBITS,SHF_MERGE|SHF_STRINGS,1
	0x227f		
.debug_str	0x49c11	0x11	sdk\libs\txm_lib.lib(txm_module_callback_request_thread_entry.o)	#SHT_PROGBITS,SHF_MERGE|SHF_STRINGS,1
	0x228e		
.debug_str	0x49c22	0x24	sdk\libs\txm_lib.lib(txm_module_callback_request_thread_entry.o)	#SHT_PROGBITS,SHF_MERGE|SHF_STRINGS,1
	0x229f		
.debug_str	0x49c46	0x1a	sdk\libs\txm_lib.lib(txm_module_callback_request_thread_entry.o)	#SHT_PROGBITS,SHF_MERGE|SHF_STRINGS,1
	0x22c3		
.debug_str	0x49c60	0x22	sdk\libs\txm_lib.lib(txm_module_callback_request_thread_entry.o)	#SHT_PROGBITS,SHF_MERGE|SHF_STRINGS,1
	0x22dd		
.debug_str	0x49c82	0x1e	sdk\libs\txm_lib.lib(txm_module_callback_request_thread_entry.o)	#SHT_PROGBITS,SHF_MERGE|SHF_STRINGS,1
	0x22ff		
.debug_str	0x49ca0	0x25	sdk\libs\txm_lib.lib(txm_module_callback_request_thread_entry.o)	#SHT_PROGBITS,SHF_MERGE|SHF_STRINGS,1
	0x231d		
.debug_str	0x49cc5	0x24	sdk\libs\txm_lib.lib(txm_module_callback_request_thread_entry.o)	#SHT_PROGBITS,SHF_MERGE|SHF_STRINGS,1
	0x2342		
.debug_str	0x49ce9	0x22	sdk\libs\txm_lib.lib(txm_module_callback_request_thread_entry.o)	#SHT_PROGBITS,SHF_MERGE|SHF_STRINGS,1
	0x2366		
.debug_str	0x49d0b	0x29	sdk\libs\txm_lib.lib(txm_module_callback_request_thread_entry.o)	#SHT_PROGBITS,SHF_MERGE|SHF_STRINGS,1
	0x2388		
.debug_str	0x49d34	0x19	sdk\libs\txm_lib.lib(txm_module_callback_request_thread_entry.o)	#SHT_PROGBITS,SHF_MERGE|SHF_STRINGS,1
	0x23b1		
.debug_str	0x49d4d	0x1f	sdk\libs\txm_lib.lib(txm_module_callback_request_thread_entry.o)	#SHT_PROGBITS,SHF_MERGE|SHF_STRINGS,1
	0x23ca		
.debug_str	0x49d6c	0x17	sdk\libs\txm_lib.lib(txm_module_callback_request_thread_entry.o)	#SHT_PROGBITS,SHF_MERGE|SHF_STRINGS,1
	0x23e9		
.debug_str	0x49d83	0x1c	sdk\libs\txm_lib.lib(txm_module_callback_request_thread_entry.o)	#SHT_PROGBITS,SHF_MERGE|SHF_STRINGS,1
	0x2400		
.debug_str	0x49d9f	0x1c	sdk\libs\txm_lib.lib(txm_module_callback_request_thread_entry.o)	#SHT_PROGBITS,SHF_MERGE|SHF_STRINGS,1
	0x241c		
.debug_str	0x49dbb	0x19	sdk\libs\txm_lib.lib(txm_module_callback_request_thread_entry.o)	#SHT_PROGBITS,SHF_MERGE|SHF_STRINGS,1
	0x2438		
.debug_str	0x49dd4	0x1d	sdk\libs\txm_lib.lib(txm_module_callback_request_thread_entry.o)	#SHT_PROGBITS,SHF_MERGE|SHF_STRINGS,1
	0x2451		
.debug_str	0x49df1	0x21	sdk\libs\txm_lib.lib(txm_module_callback_request_thread_entry.o)	#SHT_PROGBITS,SHF_MERGE|SHF_STRINGS,1
	0x246e		
.debug_str	0x49e12	0x25	sdk\libs\txm_lib.lib(txm_module_callback_request_thread_entry.o)	#SHT_PROGBITS,SHF_MERGE|SHF_STRINGS,1
	0x248f		
.debug_str	0x49e37	0x1c	sdk\libs\txm_lib.lib(txm_module_callback_request_thread_entry.o)	#SHT_PROGBITS,SHF_MERGE|SHF_STRINGS,1
	0x24b4		
.debug_str	0x49e53	0x1c	sdk\libs\txm_lib.lib(txm_module_callback_request_thread_entry.o)	#SHT_PROGBITS,SHF_MERGE|SHF_STRINGS,1
	0x24d0		
.debug_str	0x49e6f	0x1c	sdk\libs\txm_lib.lib(txm_module_callback_request_thread_entry.o)	#SHT_PROGBITS,SHF_MERGE|SHF_STRINGS,1
	0x24ec		
.debug_str	0x49e8b	0x1c	sdk\libs\txm_lib.lib(txm_module_callback_request_thread_entry.o)	#SHT_PROGBITS,SHF_MERGE|SHF_STRINGS,1
	0x2508		
.debug_str	0x49ea7	0x1c	sdk\libs\txm_lib.lib(txm_module_callback_request_thread_entry.o)	#SHT_PROGBITS,SHF_MERGE|SHF_STRINGS,1
	0x2524		
.debug_str	0x49ec3	0x1c	sdk\libs\txm_lib.lib(txm_module_callback_request_thread_entry.o)	#SHT_PROGBITS,SHF_MERGE|SHF_STRINGS,1
	0x2540		
.debug_str	0x49edf	0x1b	sdk\libs\txm_lib.lib(txm_module_callback_request_thread_entry.o)	#SHT_PROGBITS,SHF_MERGE|SHF_STRINGS,1
	0x255c		
.debug_str	0x49efa	0x14	sdk\libs\txm_lib.lib(txm_module_callback_request_thread_entry.o)	#SHT_PROGBITS,SHF_MERGE|SHF_STRINGS,1
	0x2577		
.debug_str	0x49f0e	0x30	sdk\libs\txm_lib.lib(txm_module_callback_request_thread_entry.o)	#SHT_PROGBITS,SHF_MERGE|SHF_STRINGS,1
	0x258b		
.debug_str	0x49f3e	0x23	sdk\libs\txm_lib.lib(txm_module_callback_request_thread_entry.o)	#SHT_PROGBITS,SHF_MERGE|SHF_STRINGS,1
	0x25bb		
.debug_str	0x49f61	0x23	sdk\libs\txm_lib.lib(txm_module_callback_request_thread_entry.o)	#SHT_PROGBITS,SHF_MERGE|SHF_STRINGS,1
	0x25de		
.debug_str	0x49f84	0x20	sdk\libs\txm_lib.lib(txm_module_callback_request_thread_entry.o)	#SHT_PROGBITS,SHF_MERGE|SHF_STRINGS,1
	0x2601		
.debug_str	0x49fa4	0x29	sdk\libs\txm_lib.lib(txm_module_callback_request_thread_entry.o)	#SHT_PROGBITS,SHF_MERGE|SHF_STRINGS,1
	0x2621		
.debug_str	0x49fcd	0x25	sdk\libs\txm_lib.lib(txm_module_callback_request_thread_entry.o)	#SHT_PROGBITS,SHF_MERGE|SHF_STRINGS,1
	0x264a		
.debug_str	0x49ff2	0x25	sdk\libs\txm_lib.lib(txm_module_callback_request_thread_entry.o)	#SHT_PROGBITS,SHF_MERGE|SHF_STRINGS,1
	0x266f		
.debug_str	0x4a017	0x28	sdk\libs\txm_lib.lib(txm_module_callback_request_thread_entry.o)	#SHT_PROGBITS,SHF_MERGE|SHF_STRINGS,1
	0x2694		
.debug_str	0x4a03f	0x2c	sdk\libs\txm_lib.lib(txm_module_callback_request_thread_entry.o)	#SHT_PROGBITS,SHF_MERGE|SHF_STRINGS,1
	0x26bc		
.debug_str	0x4a06b	0x23	sdk\libs\txm_lib.lib(txm_module_callback_request_thread_entry.o)	#SHT_PROGBITS,SHF_MERGE|SHF_STRINGS,1
	0x26e8		
.debug_str	0x4a08e	0x23	sdk\libs\txm_lib.lib(txm_module_callback_request_thread_entry.o)	#SHT_PROGBITS,SHF_MERGE|SHF_STRINGS,1
	0x270b		
.debug_str	0x4a0b1	0x23	sdk\libs\txm_lib.lib(txm_module_callback_request_thread_entry.o)	#SHT_PROGBITS,SHF_MERGE|SHF_STRINGS,1
	0x272e		
.debug_str	0x4a0d4	0x23	sdk\libs\txm_lib.lib(txm_module_callback_request_thread_entry.o)	#SHT_PROGBITS,SHF_MERGE|SHF_STRINGS,1
	0x2751		
.debug_str	0x4a0f7	0x23	sdk\libs\txm_lib.lib(txm_module_callback_request_thread_entry.o)	#SHT_PROGBITS,SHF_MERGE|SHF_STRINGS,1
	0x2774		
.debug_str	0x4a11a	0x23	sdk\libs\txm_lib.lib(txm_module_callback_request_thread_entry.o)	#SHT_PROGBITS,SHF_MERGE|SHF_STRINGS,1
	0x2797		
.debug_str	0x4a13d	0x22	sdk\libs\txm_lib.lib(txm_module_callback_request_thread_entry.o)	#SHT_PROGBITS,SHF_MERGE|SHF_STRINGS,1
	0x27ba		
.debug_str	0x4a15f	0x1b	sdk\libs\txm_lib.lib(txm_module_callback_request_thread_entry.o)	#SHT_PROGBITS,SHF_MERGE|SHF_STRINGS,1
	0x27dc		
.debug_str	0x4a17a	0x12	sdk\libs\txm_lib.lib(txm_module_callback_request_thread_entry.o)	#SHT_PROGBITS,SHF_MERGE|SHF_STRINGS,1
	0x27f7		
.debug_str	0x4a18c	0x15	sdk\libs\txm_lib.lib(txm_module_callback_request_thread_entry.o)	#SHT_PROGBITS,SHF_MERGE|SHF_STRINGS,1
	0x2809		
.debug_str	0x4a1a1	0x12	sdk\libs\txm_lib.lib(txm_module_callback_request_thread_entry.o)	#SHT_PROGBITS,SHF_MERGE|SHF_STRINGS,1
	0x281e		
.debug_str	0x4a1b3	0xa4	sdk\libs\txm_lib.lib(txm_module_system_call11.o)	#SHT_PROGBITS,SHF_MERGE|SHF_STRINGS,1
	0x2830		
.debug_str	0x4a257	0x1a	sdk\libs\txm_lib.lib(txm_module_system_call11.o)	#SHT_PROGBITS,SHF_MERGE|SHF_STRINGS,1
	0x28d4		
.debug_str	0x4a271	0x11	sdk\libs\txm_lib.lib(txm_module_system_call11.o)	#SHT_PROGBITS,SHF_MERGE|SHF_STRINGS,1
	0x28ee		
.debug_str	0x4a282	0x8	sdk\libs\txm_lib.lib(txm_module_system_call11.o)	#SHT_PROGBITS,SHF_MERGE|SHF_STRINGS,1
	0x28ff		
.debug_str	0x4a28a	0x8	sdk\libs\txm_lib.lib(txm_module_system_call11.o)	#SHT_PROGBITS,SHF_MERGE|SHF_STRINGS,1
	0x2907		
.debug_str	0x4a292	0x8	sdk\libs\txm_lib.lib(txm_module_system_call11.o)	#SHT_PROGBITS,SHF_MERGE|SHF_STRINGS,1
	0x290f		
.debug_str	0x4a29a	0x8	sdk\libs\txm_lib.lib(txm_module_system_call11.o)	#SHT_PROGBITS,SHF_MERGE|SHF_STRINGS,1
	0x2917		
.debug_str	0x4a2a2	0x8	sdk\libs\txm_lib.lib(txm_module_system_call11.o)	#SHT_PROGBITS,SHF_MERGE|SHF_STRINGS,1
	0x291f		
.debug_str	0x4a2aa	0x8	sdk\libs\txm_lib.lib(txm_module_system_call11.o)	#SHT_PROGBITS,SHF_MERGE|SHF_STRINGS,1
	0x2927		
.debug_str	0x4a2b2	0x8	sdk\libs\txm_lib.lib(txm_module_system_call11.o)	#SHT_PROGBITS,SHF_MERGE|SHF_STRINGS,1
	0x292f		
.debug_str	0x4a2ba	0x8	sdk\libs\txm_lib.lib(txm_module_system_call11.o)	#SHT_PROGBITS,SHF_MERGE|SHF_STRINGS,1
	0x2937		
.debug_str	0x4a2c2	0x8	sdk\libs\txm_lib.lib(txm_module_system_call11.o)	#SHT_PROGBITS,SHF_MERGE|SHF_STRINGS,1
	0x293f		
.debug_str	0x4a2ca	0x8	sdk\libs\txm_lib.lib(txm_module_system_call11.o)	#SHT_PROGBITS,SHF_MERGE|SHF_STRINGS,1
	0x2947		
.debug_str	0x4a2d2	0x9	sdk\libs\txm_lib.lib(txm_module_system_call11.o)	#SHT_PROGBITS,SHF_MERGE|SHF_STRINGS,1
	0x294f		
.debug_str	0x4a2db	0x9	sdk\libs\txm_lib.lib(txm_module_system_call11.o)	#SHT_PROGBITS,SHF_MERGE|SHF_STRINGS,1
	0x2958		
.debug_str	0x4a2e4	0xd	sdk\libs\txm_lib.lib(txm_module_system_call11.o)	#SHT_PROGBITS,SHF_MERGE|SHF_STRINGS,1
	0x2961		
.debug_str	0x4a2f1	0xa4	sdk\libs\txm_lib.lib(txm_module_system_call12.o)	#SHT_PROGBITS,SHF_MERGE|SHF_STRINGS,1
	0x296e		
.debug_str	0x4a395	0x1a	sdk\libs\txm_lib.lib(txm_module_system_call12.o)	#SHT_PROGBITS,SHF_MERGE|SHF_STRINGS,1
	0x2a12		
.debug_str	0x4a3af	0x9	sdk\libs\txm_lib.lib(txm_module_system_call12.o)	#SHT_PROGBITS,SHF_MERGE|SHF_STRINGS,1
	0x2a2c		
.debug_str	0x4a3b8	0xa3	sdk\libs\txm_lib.lib(txm_module_system_call4.o)	#SHT_PROGBITS,SHF_MERGE|SHF_STRINGS,1
	0x2a35		
.debug_str	0x4a45b	0x19	sdk\libs\txm_lib.lib(txm_module_system_call4.o)	#SHT_PROGBITS,SHF_MERGE|SHF_STRINGS,1
	0x2ad8		
.debug_str	0x4a474	0xa3	sdk\libs\txm_lib.lib(txm_module_system_call5.o)	#SHT_PROGBITS,SHF_MERGE|SHF_STRINGS,1
	0x2af1		
.debug_str	0x4a517	0x19	sdk\libs\txm_lib.lib(txm_module_system_call5.o)	#SHT_PROGBITS,SHF_MERGE|SHF_STRINGS,1
	0x2b94		
.debug_str	0x4a530	0xa3	sdk\libs\txm_lib.lib(txm_module_system_call6.o)	#SHT_PROGBITS,SHF_MERGE|SHF_STRINGS,1
	0x2bad		
.debug_str	0x4a5d3	0x19	sdk\libs\txm_lib.lib(txm_module_system_call6.o)	#SHT_PROGBITS,SHF_MERGE|SHF_STRINGS,1
	0x2c50		
.debug_str	0x4a5ec	0xa3	sdk\libs\txm_lib.lib(txm_module_system_call7.o)	#SHT_PROGBITS,SHF_MERGE|SHF_STRINGS,1
	0x2c69		
.debug_str	0x4a68f	0x19	sdk\libs\txm_lib.lib(txm_module_system_call7.o)	#SHT_PROGBITS,SHF_MERGE|SHF_STRINGS,1
	0x2d0c		
.debug_str	0x4a6a8	0xa3	sdk\libs\txm_lib.lib(txm_module_system_call8.o)	#SHT_PROGBITS,SHF_MERGE|SHF_STRINGS,1
	0x2d25		
.debug_str	0x4a74b	0x19	sdk\libs\txm_lib.lib(txm_module_system_call8.o)	#SHT_PROGBITS,SHF_MERGE|SHF_STRINGS,1
	0x2dc8		

.debug_loc	0x4a764	0x8df # Offset: 0x4a764
*(.debug_loc )
.debug_loc	0x4a764	0x30c	sdk\libs\timer_dam_lib.lib(qapi_timer_user.o)	#SHT_PROGBITS,,1
.debug_loc	0x4aa70	0x3c	sdk\libs\txm_lib.lib(txm_module_thread_shell_entry.o)	#SHT_PROGBITS,,1
.debug_loc	0x4aaac	0x75	sdk\libs\txm_lib.lib(txm_module_callback_request_thread_entry.o)	#SHT_PROGBITS,,1
.debug_loc	0x4ab21	0x103	sdk\libs\txm_lib.lib(txm_module_system_call11.o)	#SHT_PROGBITS,,1
.debug_loc	0x4ac24	0x118	sdk\libs\txm_lib.lib(txm_module_system_call12.o)	#SHT_PROGBITS,,1
.debug_loc	0x4ad3c	0x73	sdk\libs\txm_lib.lib(txm_module_system_call4.o)	#SHT_PROGBITS,,1
.debug_loc	0x4adaf	0x87	sdk\libs\txm_lib.lib(txm_module_system_call5.o)	#SHT_PROGBITS,,1
.debug_loc	0x4ae36	0x9b	sdk\libs\txm_lib.lib(txm_module_system_call6.o)	#SHT_PROGBITS,,1
.debug_loc	0x4aed1	0xaf	sdk\libs\txm_lib.lib(txm_module_system_call7.o)	#SHT_PROGBITS,,1
.debug_loc	0x4af80	0xc3	sdk\libs\txm_lib.lib(txm_module_system_call8.o)	#SHT_PROGBITS,,1

.debug_macinfo	0x4b043	0xa # Offset: 0x4b043
*(.debug_macinfo )
.debug_macinfo	0x4b043	0x1	sdk\libs\timer_dam_lib.lib(qapi_timer_user.o)	#SHT_PROGBITS,,1
.debug_macinfo	0x4b044	0x1	sdk\libs\txm_lib.lib(txm_module_thread_shell_entry.o)	#SHT_PROGBITS,,1
.debug_macinfo	0x4b045	0x1	sdk\libs\txm_lib.lib(txm_module_callback_request_thread_entry.o)	#SHT_PROGBITS,,1
.debug_macinfo	0x4b046	0x1	sdk\libs\txm_lib.lib(txm_module_system_call11.o)	#SHT_PROGBITS,,1
.debug_macinfo	0x4b047	0x1	sdk\libs\txm_lib.lib(txm_module_system_call12.o)	#SHT_PROGBITS,,1
.debug_macinfo	0x4b048	0x1	sdk\libs\txm_lib.lib(txm_module_system_call4.o)	#SHT_PROGBITS,,1
.debug_macinfo	0x4b049	0x1	sdk\libs\txm_lib.lib(txm_module_system_call5.o)	#SHT_PROGBITS,,1
.debug_macinfo	0x4b04a	0x1	sdk\libs\txm_lib.lib(txm_module_system_call6.o)	#SHT_PROGBITS,,1
.debug_macinfo	0x4b04b	0x1	sdk\libs\txm_lib.lib(txm_module_system_call7.o)	#SHT_PROGBITS,,1
.debug_macinfo	0x4b04c	0x1	sdk\libs\txm_lib.lib(txm_module_system_call8.o)	#SHT_PROGBITS,,1

.debug_weaknames	0x4b04d	0x0 # Offset: 0x4b04d

.debug_funcnames	0x4b04d	0x0 # Offset: 0x4b04d

.debug_typenames	0x4b04d	0x0 # Offset: 0x4b04d

.debug_varnames	0x4b04d	0x0 # Offset: 0x4b04d

.debug_pubtypes	0x4b04d	0x88e # Offset: 0x4b04d
*(.debug_pubtypes )
.debug_pubtypes	0x4b04d	0x2bb	sdk\libs\timer_dam_lib.lib(qapi_timer_user.o)	#SHT_PROGBITS,,1
.debug_pubtypes	0x4b308	0x1e2	sdk\libs\txm_lib.lib(txm_module_thread_shell_entry.o)	#SHT_PROGBITS,,1
.debug_pubtypes	0x4b4ea	0x293	sdk\libs\txm_lib.lib(txm_module_callback_request_thread_entry.o)	#SHT_PROGBITS,,1
.debug_pubtypes	0x4b77d	0x32	sdk\libs\txm_lib.lib(txm_module_system_call11.o)	#SHT_PROGBITS,,1
.debug_pubtypes	0x4b7af	0x32	sdk\libs\txm_lib.lib(txm_module_system_call12.o)	#SHT_PROGBITS,,1
.debug_pubtypes	0x4b7e1	0x32	sdk\libs\txm_lib.lib(txm_module_system_call4.o)	#SHT_PROGBITS,,1
.debug_pubtypes	0x4b813	0x32	sdk\libs\txm_lib.lib(txm_module_system_call5.o)	#SHT_PROGBITS,,1
.debug_pubtypes	0x4b845	0x32	sdk\libs\txm_lib.lib(txm_module_system_call6.o)	#SHT_PROGBITS,,1
.debug_pubtypes	0x4b877	0x32	sdk\libs\txm_lib.lib(txm_module_system_call7.o)	#SHT_PROGBITS,,1
.debug_pubtypes	0x4b8a9	0x32	sdk\libs\txm_lib.lib(txm_module_system_call8.o)	#SHT_PROGBITS,,1

.debug_ranges	0x4b8db	0x58 # Offset: 0x4b8db
*(.debug_ranges )
.debug_ranges	0x4b8db	0x58	sdk\libs\timer_dam_lib.lib(qapi_timer_user.o)	#SHT_PROGBITS,,1

.gnu.attributes	0x0	0x0 # Offset: 0x4b933, LMA: 0x0

.note.gnu.arm.ident	0x0	0x0 # Offset: 0x4b933, LMA: 0x0

.ARM.attributes	0x4b933	0x10 # Offset: 0x4b933

.comment	0x4b943	0x65 # Offset: 0x4b943
.comment	0x4b943	0x1	D:\4.0.3\armv7m-none-eabi\libc\lib/libc.a(tolower.o)	#SHT_PROGBITS,SHF_MERGE|SHF_STRINGS,1
.comment	0x4b980	0x28	Linker Version	#SHT_PROGBITS,SHF_MERGE|SHF_STRINGS,1

.note.GNU-stack	0x4b9a8	0x0 # Offset: 0x4b9a8

/DISCARD/	0x75	0x0 # Offset: 0x4b9a8, LMA: 0x0

.shstrtab	0x4b9a8	0xcc # Offset: 0x4b9a8

.symtab	0x4ba74	0x12780 # Offset: 0x4ba74

.strtab	0x5e1f4	0xc84c # Offset: 0x5e1f4
